
build/ch.elf:     file format elf32-littlearm


Disassembly of section .vectors:

08000000 <_vectors>:
 8000000:	20000400 	.word	0x20000400
 8000004:	080002d9 	.word	0x080002d9
 8000008:	080002db 	.word	0x080002db
 800000c:	080002db 	.word	0x080002db
 8000010:	080002db 	.word	0x080002db
 8000014:	080002db 	.word	0x080002db
 8000018:	080002db 	.word	0x080002db
 800001c:	080002db 	.word	0x080002db
 8000020:	080002db 	.word	0x080002db
 8000024:	080002db 	.word	0x080002db
 8000028:	080002db 	.word	0x080002db
 800002c:	08004861 	.word	0x08004861
 8000030:	080002db 	.word	0x080002db
 8000034:	080002db 	.word	0x080002db
 8000038:	080002db 	.word	0x080002db
 800003c:	080002db 	.word	0x080002db
 8000040:	080002db 	.word	0x080002db
 8000044:	080002db 	.word	0x080002db
 8000048:	080002db 	.word	0x080002db
 800004c:	080002db 	.word	0x080002db
 8000050:	080002db 	.word	0x080002db
 8000054:	080002db 	.word	0x080002db
 8000058:	080002db 	.word	0x080002db
 800005c:	080002db 	.word	0x080002db
 8000060:	080002db 	.word	0x080002db
 8000064:	080002db 	.word	0x080002db
 8000068:	080002db 	.word	0x080002db
 800006c:	080002db 	.word	0x080002db
 8000070:	080002db 	.word	0x080002db
 8000074:	080002db 	.word	0x080002db
 8000078:	080002db 	.word	0x080002db
 800007c:	080002db 	.word	0x080002db
 8000080:	080002db 	.word	0x080002db
 8000084:	080002db 	.word	0x080002db
 8000088:	080002db 	.word	0x080002db
 800008c:	080002db 	.word	0x080002db
 8000090:	080002db 	.word	0x080002db
 8000094:	080002db 	.word	0x080002db
 8000098:	080002db 	.word	0x080002db
 800009c:	080002db 	.word	0x080002db
 80000a0:	080002db 	.word	0x080002db
 80000a4:	080057a1 	.word	0x080057a1
 80000a8:	080002db 	.word	0x080002db
 80000ac:	080057c1 	.word	0x080057c1
 80000b0:	08005781 	.word	0x08005781
 80000b4:	080002db 	.word	0x080002db
 80000b8:	080002db 	.word	0x080002db
 80000bc:	080002db 	.word	0x080002db
 80000c0:	080002db 	.word	0x080002db
 80000c4:	080002db 	.word	0x080002db
 80000c8:	080002db 	.word	0x080002db
 80000cc:	080002db 	.word	0x080002db
 80000d0:	080002db 	.word	0x080002db
 80000d4:	08005761 	.word	0x08005761
 80000d8:	08005741 	.word	0x08005741
 80000dc:	080002db 	.word	0x080002db
 80000e0:	080002db 	.word	0x080002db
 80000e4:	080002db 	.word	0x080002db
 80000e8:	080002db 	.word	0x080002db
 80000ec:	080002db 	.word	0x080002db
 80000f0:	080002db 	.word	0x080002db
 80000f4:	080002db 	.word	0x080002db
 80000f8:	080002db 	.word	0x080002db
 80000fc:	080002db 	.word	0x080002db
 8000100:	080002db 	.word	0x080002db
 8000104:	080002db 	.word	0x080002db
 8000108:	080057d1 	.word	0x080057d1
 800010c:	080002db 	.word	0x080002db
 8000110:	080002db 	.word	0x080002db
 8000114:	080002db 	.word	0x080002db
 8000118:	080002db 	.word	0x080002db
 800011c:	080002db 	.word	0x080002db
 8000120:	080002db 	.word	0x080002db
 8000124:	080002db 	.word	0x080002db
 8000128:	080002db 	.word	0x080002db
 800012c:	080002db 	.word	0x080002db
 8000130:	080002db 	.word	0x080002db
 8000134:	080002db 	.word	0x080002db
 8000138:	080002db 	.word	0x080002db
 800013c:	080002db 	.word	0x080002db
 8000140:	080002db 	.word	0x080002db
 8000144:	080002db 	.word	0x080002db
 8000148:	080002db 	.word	0x080002db
 800014c:	08005881 	.word	0x08005881
 8000150:	080002db 	.word	0x080002db
 8000154:	080002db 	.word	0x080002db
 8000158:	080002db 	.word	0x080002db
 800015c:	08005721 	.word	0x08005721
 8000160:	080002db 	.word	0x080002db
 8000164:	080002db 	.word	0x080002db
 8000168:	080002db 	.word	0x080002db
 800016c:	080002db 	.word	0x080002db
 8000170:	080002db 	.word	0x080002db
 8000174:	080002db 	.word	0x080002db
 8000178:	080002db 	.word	0x080002db
 800017c:	080002db 	.word	0x080002db
 8000180:	080002db 	.word	0x080002db
 8000184:	080002db 	.word	0x080002db
 8000188:	080002db 	.word	0x080002db
 800018c:	080002db 	.word	0x080002db
 8000190:	080002db 	.word	0x080002db
 8000194:	080002db 	.word	0x080002db
 8000198:	080002db 	.word	0x080002db
 800019c:	080002db 	.word	0x080002db
 80001a0:	080002db 	.word	0x080002db
 80001a4:	080002db 	.word	0x080002db
 80001a8:	080002db 	.word	0x080002db
 80001ac:	080002db 	.word	0x080002db
 80001b0:	080002db 	.word	0x080002db
 80001b4:	080002db 	.word	0x080002db
 80001b8:	080002db 	.word	0x080002db
 80001bc:	080002db 	.word	0x080002db
 80001c0:	080002db 	.word	0x080002db
 80001c4:	080002db 	.word	0x080002db
 80001c8:	080002db 	.word	0x080002db
 80001cc:	080002db 	.word	0x080002db
 80001d0:	080002db 	.word	0x080002db
 80001d4:	080002db 	.word	0x080002db
 80001d8:	080002db 	.word	0x080002db
 80001dc:	080002db 	.word	0x080002db

Disassembly of section .text:

08000200 <_crt0_entry>:
                .align  2
                .thumb_func
                .global _crt0_entry
_crt0_entry:
                /* Interrupts are globally masked initially.*/
                cpsid   i
 8000200:	b672      	cpsid	i

#if CRT0_FORCE_MSP_INIT == TRUE
                /* MSP stack pointers initialization.*/
                ldr     r0, =__main_stack_end__
 8000202:	4827      	ldr	r0, [pc, #156]	; (80002a0 <endfiniloop+0x4>)
                msr     MSP, r0
 8000204:	f380 8808 	msr	MSP, r0
#endif

                /* PSP stack pointers initialization.*/
                ldr     r0, =__process_stack_end__
 8000208:	4826      	ldr	r0, [pc, #152]	; (80002a4 <endfiniloop+0x8>)
                msr     PSP, r0
 800020a:	f380 8809 	msr	PSP, r0

#if CRT0_VTOR_INIT == TRUE
                ldr     r0, =_vectors
 800020e:	4826      	ldr	r0, [pc, #152]	; (80002a8 <endfiniloop+0xc>)
                movw    r1, #SCB_VTOR & 0xFFFF
 8000210:	f64e 5108 	movw	r1, #60680	; 0xed08
                movt    r1, #SCB_VTOR >> 16
 8000214:	f2ce 0100 	movt	r1, #57344	; 0xe000
                str     r0, [r1]
 8000218:	6008      	str	r0, [r1, #0]

                /* Enforcing FPCA bit in the CONTROL register.*/
                movs    r0, #CRT0_CONTROL_INIT | CONTROL_FPCA

#else
                movs    r0, #CRT0_CONTROL_INIT
 800021a:	2002      	movs	r0, #2
#endif

                /* CONTROL register initialization as configured.*/
                msr     CONTROL, r0
 800021c:	f380 8814 	msr	CONTROL, r0
                isb
 8000220:	f3bf 8f6f 	isb	sy

#if CRT0_INIT_CORE == TRUE
                /* Core initialization.*/
                bl      __core_init
 8000224:	f005 fd8c 	bl	8005d40 <__core_init>
#endif

                /* Early initialization.*/
                bl      __early_init
 8000228:	f005 f982 	bl	8005530 <__early_init>

#if CRT0_INIT_STACKS == TRUE
                ldr     r0, =CRT0_STACKS_FILL_PATTERN
 800022c:	f04f 3055 	mov.w	r0, #1431655765	; 0x55555555
                /* Main Stack initialization. Note, it assumes that the
                   stack size is a multiple of 4 so the linker file must
                   ensure this.*/
                ldr     r1, =__main_stack_base__
 8000230:	491e      	ldr	r1, [pc, #120]	; (80002ac <endfiniloop+0x10>)
                ldr     r2, =__main_stack_end__
 8000232:	4a1b      	ldr	r2, [pc, #108]	; (80002a0 <endfiniloop+0x4>)

08000234 <msloop>:
msloop:
                cmp     r1, r2
 8000234:	4291      	cmp	r1, r2
                itt     lo
 8000236:	bf3c      	itt	cc
                strlo   r0, [r1], #4
 8000238:	f841 0b04 	strcc.w	r0, [r1], #4
                blo     msloop
 800023c:	e7fa      	bcc.n	8000234 <msloop>

                /* Process Stack initialization. Note, it assumes that the
                   stack size is a multiple of 4 so the linker file must
                   ensure this.*/
                ldr     r1, =__process_stack_base__
 800023e:	491c      	ldr	r1, [pc, #112]	; (80002b0 <endfiniloop+0x14>)
                ldr     r2, =__process_stack_end__
 8000240:	4a18      	ldr	r2, [pc, #96]	; (80002a4 <endfiniloop+0x8>)

08000242 <psloop>:
psloop:
                cmp     r1, r2
 8000242:	4291      	cmp	r1, r2
                itt     lo
 8000244:	bf3c      	itt	cc
                strlo   r0, [r1], #4
 8000246:	f841 0b04 	strcc.w	r0, [r1], #4
                blo     psloop
 800024a:	e7fa      	bcc.n	8000242 <psloop>
#endif

#if CRT0_INIT_DATA == TRUE
                /* Data initialization. Note, it assumes that the DATA size
                  is a multiple of 4 so the linker file must ensure this.*/
                ldr     r1, =__textdata_base__
 800024c:	4919      	ldr	r1, [pc, #100]	; (80002b4 <endfiniloop+0x18>)
                ldr     r2, =__data_base__
 800024e:	4a1a      	ldr	r2, [pc, #104]	; (80002b8 <endfiniloop+0x1c>)
                ldr     r3, =__data_end__
 8000250:	4b1a      	ldr	r3, [pc, #104]	; (80002bc <endfiniloop+0x20>)

08000252 <dloop>:
dloop:
                cmp     r2, r3
 8000252:	429a      	cmp	r2, r3
                ittt    lo
 8000254:	bf3e      	ittt	cc
                ldrlo   r0, [r1], #4
 8000256:	f851 0b04 	ldrcc.w	r0, [r1], #4
                strlo   r0, [r2], #4
 800025a:	f842 0b04 	strcc.w	r0, [r2], #4
                blo     dloop
 800025e:	e7f8      	bcc.n	8000252 <dloop>
#endif

#if CRT0_INIT_BSS == TRUE
                /* BSS initialization. Note, it assumes that the DATA size
                  is a multiple of 4 so the linker file must ensure this.*/
                movs    r0, #0
 8000260:	2000      	movs	r0, #0
                ldr     r1, =__bss_base__
 8000262:	4917      	ldr	r1, [pc, #92]	; (80002c0 <endfiniloop+0x24>)
                ldr     r2, =__bss_end__
 8000264:	4a17      	ldr	r2, [pc, #92]	; (80002c4 <endfiniloop+0x28>)

08000266 <bloop>:
bloop:
                cmp     r1, r2
 8000266:	4291      	cmp	r1, r2
                itt     lo
 8000268:	bf3c      	itt	cc
                strlo   r0, [r1], #4
 800026a:	f841 0b04 	strcc.w	r0, [r1], #4
                blo     bloop
 800026e:	e7fa      	bcc.n	8000266 <bloop>
#endif

#if CRT0_INIT_RAM_AREAS == TRUE
                /* RAM areas initialization.*/
                bl      __init_ram_areas
 8000270:	f005 fd1e 	bl	8005cb0 <__init_ram_areas>
#endif

                /* Late initialization..*/
                bl      __late_init
 8000274:	f005 fd5c 	bl	8005d30 <__late_init>

#if CRT0_CALL_CONSTRUCTORS == TRUE
                /* Constructors invocation.*/
                ldr     r4, =__init_array_base__
 8000278:	4c13      	ldr	r4, [pc, #76]	; (80002c8 <endfiniloop+0x2c>)
                ldr     r5, =__init_array_end__
 800027a:	4d14      	ldr	r5, [pc, #80]	; (80002cc <endfiniloop+0x30>)

0800027c <initloop>:
initloop:
                cmp     r4, r5
 800027c:	42ac      	cmp	r4, r5
                bge     endinitloop
 800027e:	da03      	bge.n	8000288 <endinitloop>
                ldr     r1, [r4], #4
 8000280:	f854 1b04 	ldr.w	r1, [r4], #4
                blx     r1
 8000284:	4788      	blx	r1
                b       initloop
 8000286:	e7f9      	b.n	800027c <initloop>

08000288 <endinitloop>:
endinitloop:
#endif

                /* Main program invocation, r0 contains the returned value.*/
                bl      main
 8000288:	f004 fc9a 	bl	8004bc0 <main>

#if CRT0_CALL_DESTRUCTORS == TRUE
                /* Destructors invocation.*/
                ldr     r4, =__fini_array_base__
 800028c:	4c10      	ldr	r4, [pc, #64]	; (80002d0 <endfiniloop+0x34>)
                ldr     r5, =__fini_array_end__
 800028e:	4d11      	ldr	r5, [pc, #68]	; (80002d4 <endfiniloop+0x38>)

08000290 <finiloop>:
finiloop:
                cmp     r4, r5
 8000290:	42ac      	cmp	r4, r5
                bge     endfiniloop
 8000292:	da03      	bge.n	800029c <endfiniloop>
                ldr     r1, [r4], #4
 8000294:	f854 1b04 	ldr.w	r1, [r4], #4
                blx     r1
 8000298:	4788      	blx	r1
                b       finiloop
 800029a:	e7f9      	b.n	8000290 <finiloop>

0800029c <endfiniloop>:
endfiniloop:
#endif

                /* Branching to the defined exit handler.*/
                b       __default_exit
 800029c:	f005 bd40 	b.w	8005d20 <__default_exit>
                ldr     r0, =__main_stack_end__
 80002a0:	20000400 	.word	0x20000400
                ldr     r0, =__process_stack_end__
 80002a4:	20000800 	.word	0x20000800
                ldr     r0, =_vectors
 80002a8:	08000000 	.word	0x08000000
                ldr     r1, =__main_stack_base__
 80002ac:	20000000 	.word	0x20000000
                ldr     r1, =__process_stack_base__
 80002b0:	20000400 	.word	0x20000400
                ldr     r1, =__textdata_base__
 80002b4:	08006dbc 	.word	0x08006dbc
                ldr     r2, =__data_base__
 80002b8:	20000800 	.word	0x20000800
                ldr     r3, =__data_end__
 80002bc:	20000c68 	.word	0x20000c68
                ldr     r1, =__bss_base__
 80002c0:	20000c68 	.word	0x20000c68
                ldr     r2, =__bss_end__
 80002c4:	200044e8 	.word	0x200044e8
                ldr     r4, =__init_array_base__
 80002c8:	080001e0 	.word	0x080001e0
                ldr     r5, =__init_array_end__
 80002cc:	080001e0 	.word	0x080001e0
                ldr     r4, =__fini_array_base__
 80002d0:	080001e0 	.word	0x080001e0
                ldr     r5, =__fini_array_end__
 80002d4:	080001e0 	.word	0x080001e0

080002d8 <Reset_Handler>:

        .align      2
        .thumb_func
        .weak       Reset_Handler
Reset_Handler:
         b          _crt0_entry
 80002d8:	e792      	b.n	8000200 <_crt0_entry>

080002da <BusFault_Handler>:
        .thumb_func
Vector3F8:
        .thumb_func
Vector3FC:
#endif
        bl          _unhandled_exception
 80002da:	f000 f800 	bl	80002de <_unhandled_exception>

080002de <_unhandled_exception>:

        .thumb_func
        .weak       _unhandled_exception
_unhandled_exception:
.stay:
        b           .stay
 80002de:	e7fe      	b.n	80002de <_unhandled_exception>

080002e0 <_port_switch>:
 * Performs a context switch between two threads.
 *--------------------------------------------------------------------------*/
                .thumb_func
                .globl  _port_switch
_port_switch:
                push    {r4, r5, r6, r7, r8, r9, r10, r11, lr}
 80002e0:	e92d 4ff0 	stmdb	sp!, {r4, r5, r6, r7, r8, r9, sl, fp, lr}
#if PORT_SWITCHED_REGIONS_NUMBER == 4
                push    {r4, r5, r6, r7, r8, r9, r10, r11}
#endif
#endif

                str     sp, [r1, #CONTEXT_OFFSET]
 80002e4:	f8c1 d014 	str.w	sp, [r1, #20]
#if (CORTEX_SIMPLIFIED_PRIORITY == FALSE) &&                                \
    ((CORTEX_MODEL == 3) || (CORTEX_MODEL == 4))
                /* Workaround for ARM errata 752419, only applied if
                   condition exists for it to be triggered.*/
                ldr     r3, [r0, #CONTEXT_OFFSET]
 80002e8:	6943      	ldr	r3, [r0, #20]
                mov     sp, r3
 80002ea:	469d      	mov	sp, r3

#if CORTEX_USE_FPU
                /* Restoring FPU context.*/
                vpop    {s16-s31}
#endif
                pop     {r4, r5, r6, r7, r8, r9, r10, r11, pc}
 80002ec:	e8bd 8ff0 	ldmia.w	sp!, {r4, r5, r6, r7, r8, r9, sl, fp, pc}

080002f0 <_port_thread_start>:
                bl      _stats_stop_measure_crit_thd
#endif
#if CORTEX_SIMPLIFIED_PRIORITY
                cpsie   i
#else
                movs    r3, #0              /* CORTEX_BASEPRI_DISABLED */
 80002f0:	2300      	movs	r3, #0
                msr     BASEPRI, r3
 80002f2:	f383 8811 	msr	BASEPRI, r3
#endif
                mov     r0, r5
 80002f6:	4628      	mov	r0, r5
                blx     r4
 80002f8:	47a0      	blx	r4
                movs    r0, #0              /* MSG_OK */
 80002fa:	2000      	movs	r0, #0
                bl      chThdExit
 80002fc:	f004 fac0 	bl	8004880 <chThdExit>

08000300 <_zombies>:
_zombies:       b       _zombies
 8000300:	e7fe      	b.n	8000300 <_zombies>

08000302 <_port_switch_from_isr>:
                bl      _stats_start_measure_crit_thd
#endif
#if CH_DBG_SYSTEM_STATE_CHECK
                bl      _dbg_check_lock
#endif
                bl      chSchDoReschedule
 8000302:	f004 fac5 	bl	8004890 <chSchDoReschedule>

08000306 <_port_exit_from_isr>:
                movt    r3, #:upper16:SCB_ICSR
                mov     r2, ICSR_PENDSVSET
                str     r2, [r3, #0]
                cpsie   i
#else /* !CORTEX_SIMPLIFIED_PRIORITY */
                svc     #0
 8000306:	df00      	svc	0
#endif /* !CORTEX_SIMPLIFIED_PRIORITY */
.L1:            b       .L1
 8000308:	e7fe      	b.n	8000308 <_port_exit_from_isr+0x2>
	...

0800030c <memcpy>:
 800030c:	4684      	mov	ip, r0
 800030e:	ea41 0300 	orr.w	r3, r1, r0
 8000312:	f013 0303 	ands.w	r3, r3, #3
 8000316:	d16d      	bne.n	80003f4 <memcpy+0xe8>
 8000318:	3a40      	subs	r2, #64	; 0x40
 800031a:	d341      	bcc.n	80003a0 <memcpy+0x94>
 800031c:	f851 3b04 	ldr.w	r3, [r1], #4
 8000320:	f840 3b04 	str.w	r3, [r0], #4
 8000324:	f851 3b04 	ldr.w	r3, [r1], #4
 8000328:	f840 3b04 	str.w	r3, [r0], #4
 800032c:	f851 3b04 	ldr.w	r3, [r1], #4
 8000330:	f840 3b04 	str.w	r3, [r0], #4
 8000334:	f851 3b04 	ldr.w	r3, [r1], #4
 8000338:	f840 3b04 	str.w	r3, [r0], #4
 800033c:	f851 3b04 	ldr.w	r3, [r1], #4
 8000340:	f840 3b04 	str.w	r3, [r0], #4
 8000344:	f851 3b04 	ldr.w	r3, [r1], #4
 8000348:	f840 3b04 	str.w	r3, [r0], #4
 800034c:	f851 3b04 	ldr.w	r3, [r1], #4
 8000350:	f840 3b04 	str.w	r3, [r0], #4
 8000354:	f851 3b04 	ldr.w	r3, [r1], #4
 8000358:	f840 3b04 	str.w	r3, [r0], #4
 800035c:	f851 3b04 	ldr.w	r3, [r1], #4
 8000360:	f840 3b04 	str.w	r3, [r0], #4
 8000364:	f851 3b04 	ldr.w	r3, [r1], #4
 8000368:	f840 3b04 	str.w	r3, [r0], #4
 800036c:	f851 3b04 	ldr.w	r3, [r1], #4
 8000370:	f840 3b04 	str.w	r3, [r0], #4
 8000374:	f851 3b04 	ldr.w	r3, [r1], #4
 8000378:	f840 3b04 	str.w	r3, [r0], #4
 800037c:	f851 3b04 	ldr.w	r3, [r1], #4
 8000380:	f840 3b04 	str.w	r3, [r0], #4
 8000384:	f851 3b04 	ldr.w	r3, [r1], #4
 8000388:	f840 3b04 	str.w	r3, [r0], #4
 800038c:	f851 3b04 	ldr.w	r3, [r1], #4
 8000390:	f840 3b04 	str.w	r3, [r0], #4
 8000394:	f851 3b04 	ldr.w	r3, [r1], #4
 8000398:	f840 3b04 	str.w	r3, [r0], #4
 800039c:	3a40      	subs	r2, #64	; 0x40
 800039e:	d2bd      	bcs.n	800031c <memcpy+0x10>
 80003a0:	3230      	adds	r2, #48	; 0x30
 80003a2:	d311      	bcc.n	80003c8 <memcpy+0xbc>
 80003a4:	f851 3b04 	ldr.w	r3, [r1], #4
 80003a8:	f840 3b04 	str.w	r3, [r0], #4
 80003ac:	f851 3b04 	ldr.w	r3, [r1], #4
 80003b0:	f840 3b04 	str.w	r3, [r0], #4
 80003b4:	f851 3b04 	ldr.w	r3, [r1], #4
 80003b8:	f840 3b04 	str.w	r3, [r0], #4
 80003bc:	f851 3b04 	ldr.w	r3, [r1], #4
 80003c0:	f840 3b04 	str.w	r3, [r0], #4
 80003c4:	3a10      	subs	r2, #16
 80003c6:	d2ed      	bcs.n	80003a4 <memcpy+0x98>
 80003c8:	320c      	adds	r2, #12
 80003ca:	d305      	bcc.n	80003d8 <memcpy+0xcc>
 80003cc:	f851 3b04 	ldr.w	r3, [r1], #4
 80003d0:	f840 3b04 	str.w	r3, [r0], #4
 80003d4:	3a04      	subs	r2, #4
 80003d6:	d2f9      	bcs.n	80003cc <memcpy+0xc0>
 80003d8:	3204      	adds	r2, #4
 80003da:	d008      	beq.n	80003ee <memcpy+0xe2>
 80003dc:	07d2      	lsls	r2, r2, #31
 80003de:	bf1c      	itt	ne
 80003e0:	f811 3b01 	ldrbne.w	r3, [r1], #1
 80003e4:	f800 3b01 	strbne.w	r3, [r0], #1
 80003e8:	d301      	bcc.n	80003ee <memcpy+0xe2>
 80003ea:	880b      	ldrh	r3, [r1, #0]
 80003ec:	8003      	strh	r3, [r0, #0]
 80003ee:	4660      	mov	r0, ip
 80003f0:	4770      	bx	lr
 80003f2:	bf00      	nop
 80003f4:	2a08      	cmp	r2, #8
 80003f6:	d313      	bcc.n	8000420 <memcpy+0x114>
 80003f8:	078b      	lsls	r3, r1, #30
 80003fa:	d08d      	beq.n	8000318 <memcpy+0xc>
 80003fc:	f010 0303 	ands.w	r3, r0, #3
 8000400:	d08a      	beq.n	8000318 <memcpy+0xc>
 8000402:	f1c3 0304 	rsb	r3, r3, #4
 8000406:	1ad2      	subs	r2, r2, r3
 8000408:	07db      	lsls	r3, r3, #31
 800040a:	bf1c      	itt	ne
 800040c:	f811 3b01 	ldrbne.w	r3, [r1], #1
 8000410:	f800 3b01 	strbne.w	r3, [r0], #1
 8000414:	d380      	bcc.n	8000318 <memcpy+0xc>
 8000416:	f831 3b02 	ldrh.w	r3, [r1], #2
 800041a:	f820 3b02 	strh.w	r3, [r0], #2
 800041e:	e77b      	b.n	8000318 <memcpy+0xc>
 8000420:	3a04      	subs	r2, #4
 8000422:	d3d9      	bcc.n	80003d8 <memcpy+0xcc>
 8000424:	3a01      	subs	r2, #1
 8000426:	f811 3b01 	ldrb.w	r3, [r1], #1
 800042a:	f800 3b01 	strb.w	r3, [r0], #1
 800042e:	d2f9      	bcs.n	8000424 <memcpy+0x118>
 8000430:	780b      	ldrb	r3, [r1, #0]
 8000432:	7003      	strb	r3, [r0, #0]
 8000434:	784b      	ldrb	r3, [r1, #1]
 8000436:	7043      	strb	r3, [r0, #1]
 8000438:	788b      	ldrb	r3, [r1, #2]
 800043a:	7083      	strb	r3, [r0, #2]
 800043c:	4660      	mov	r0, ip
 800043e:	4770      	bx	lr
 8000440:	eba2 0003 	sub.w	r0, r2, r3
 8000444:	4770      	bx	lr
 8000446:	bf00      	nop

08000448 <strcmp>:
 8000448:	7802      	ldrb	r2, [r0, #0]
 800044a:	780b      	ldrb	r3, [r1, #0]
 800044c:	2a01      	cmp	r2, #1
 800044e:	bf28      	it	cs
 8000450:	429a      	cmpcs	r2, r3
 8000452:	d1f5      	bne.n	8000440 <memcpy+0x134>
 8000454:	e96d 4504 	strd	r4, r5, [sp, #-16]!
 8000458:	ea40 0401 	orr.w	r4, r0, r1
 800045c:	e9cd 6702 	strd	r6, r7, [sp, #8]
 8000460:	f06f 0c00 	mvn.w	ip, #0
 8000464:	ea4f 7244 	mov.w	r2, r4, lsl #29
 8000468:	b312      	cbz	r2, 80004b0 <strcmp+0x68>
 800046a:	ea80 0401 	eor.w	r4, r0, r1
 800046e:	f014 0f07 	tst.w	r4, #7
 8000472:	d16a      	bne.n	800054a <strcmp+0x102>
 8000474:	f000 0407 	and.w	r4, r0, #7
 8000478:	f020 0007 	bic.w	r0, r0, #7
 800047c:	f004 0503 	and.w	r5, r4, #3
 8000480:	f021 0107 	bic.w	r1, r1, #7
 8000484:	ea4f 05c5 	mov.w	r5, r5, lsl #3
 8000488:	e8f0 2304 	ldrd	r2, r3, [r0], #16
 800048c:	f014 0f04 	tst.w	r4, #4
 8000490:	e8f1 6704 	ldrd	r6, r7, [r1], #16
 8000494:	fa0c f405 	lsl.w	r4, ip, r5
 8000498:	ea62 0204 	orn	r2, r2, r4
 800049c:	ea66 0604 	orn	r6, r6, r4
 80004a0:	d00a      	beq.n	80004b8 <strcmp+0x70>
 80004a2:	ea63 0304 	orn	r3, r3, r4
 80004a6:	4662      	mov	r2, ip
 80004a8:	ea67 0704 	orn	r7, r7, r4
 80004ac:	4666      	mov	r6, ip
 80004ae:	e003      	b.n	80004b8 <strcmp+0x70>
 80004b0:	e8f0 2304 	ldrd	r2, r3, [r0], #16
 80004b4:	e8f1 6704 	ldrd	r6, r7, [r1], #16
 80004b8:	fa82 f54c 	uadd8	r5, r2, ip
 80004bc:	ea82 0406 	eor.w	r4, r2, r6
 80004c0:	faa4 f48c 	sel	r4, r4, ip
 80004c4:	bb6c      	cbnz	r4, 8000522 <strcmp+0xda>
 80004c6:	fa83 f54c 	uadd8	r5, r3, ip
 80004ca:	ea83 0507 	eor.w	r5, r3, r7
 80004ce:	faa5 f58c 	sel	r5, r5, ip
 80004d2:	b995      	cbnz	r5, 80004fa <strcmp+0xb2>
 80004d4:	e950 2302 	ldrd	r2, r3, [r0, #-8]
 80004d8:	e951 6702 	ldrd	r6, r7, [r1, #-8]
 80004dc:	fa82 f54c 	uadd8	r5, r2, ip
 80004e0:	ea82 0406 	eor.w	r4, r2, r6
 80004e4:	faa4 f48c 	sel	r4, r4, ip
 80004e8:	fa83 f54c 	uadd8	r5, r3, ip
 80004ec:	ea83 0507 	eor.w	r5, r3, r7
 80004f0:	faa5 f58c 	sel	r5, r5, ip
 80004f4:	4325      	orrs	r5, r4
 80004f6:	d0db      	beq.n	80004b0 <strcmp+0x68>
 80004f8:	b99c      	cbnz	r4, 8000522 <strcmp+0xda>
 80004fa:	ba2d      	rev	r5, r5
 80004fc:	fab5 f485 	clz	r4, r5
 8000500:	f024 0407 	bic.w	r4, r4, #7
 8000504:	fa27 f104 	lsr.w	r1, r7, r4
 8000508:	e9dd 6702 	ldrd	r6, r7, [sp, #8]
 800050c:	fa23 f304 	lsr.w	r3, r3, r4
 8000510:	f003 00ff 	and.w	r0, r3, #255	; 0xff
 8000514:	f001 01ff 	and.w	r1, r1, #255	; 0xff
 8000518:	e8fd 4504 	ldrd	r4, r5, [sp], #16
 800051c:	eba0 0001 	sub.w	r0, r0, r1
 8000520:	4770      	bx	lr
 8000522:	ba24      	rev	r4, r4
 8000524:	fab4 f484 	clz	r4, r4
 8000528:	f024 0407 	bic.w	r4, r4, #7
 800052c:	fa26 f104 	lsr.w	r1, r6, r4
 8000530:	e9dd 6702 	ldrd	r6, r7, [sp, #8]
 8000534:	fa22 f204 	lsr.w	r2, r2, r4
 8000538:	f002 00ff 	and.w	r0, r2, #255	; 0xff
 800053c:	f001 01ff 	and.w	r1, r1, #255	; 0xff
 8000540:	e8fd 4504 	ldrd	r4, r5, [sp], #16
 8000544:	eba0 0001 	sub.w	r0, r0, r1
 8000548:	4770      	bx	lr
 800054a:	f014 0f03 	tst.w	r4, #3
 800054e:	d13c      	bne.n	80005ca <strcmp+0x182>
 8000550:	f010 0403 	ands.w	r4, r0, #3
 8000554:	d128      	bne.n	80005a8 <strcmp+0x160>
 8000556:	f850 2b08 	ldr.w	r2, [r0], #8
 800055a:	f851 3b08 	ldr.w	r3, [r1], #8
 800055e:	fa82 f54c 	uadd8	r5, r2, ip
 8000562:	ea82 0503 	eor.w	r5, r2, r3
 8000566:	faa5 f58c 	sel	r5, r5, ip
 800056a:	b95d      	cbnz	r5, 8000584 <strcmp+0x13c>
 800056c:	f850 2c04 	ldr.w	r2, [r0, #-4]
 8000570:	f851 3c04 	ldr.w	r3, [r1, #-4]
 8000574:	fa82 f54c 	uadd8	r5, r2, ip
 8000578:	ea82 0503 	eor.w	r5, r2, r3
 800057c:	faa5 f58c 	sel	r5, r5, ip
 8000580:	2d00      	cmp	r5, #0
 8000582:	d0e8      	beq.n	8000556 <strcmp+0x10e>
 8000584:	ba2d      	rev	r5, r5
 8000586:	fab5 f485 	clz	r4, r5
 800058a:	f024 0407 	bic.w	r4, r4, #7
 800058e:	fa23 f104 	lsr.w	r1, r3, r4
 8000592:	fa22 f204 	lsr.w	r2, r2, r4
 8000596:	f002 00ff 	and.w	r0, r2, #255	; 0xff
 800059a:	f001 01ff 	and.w	r1, r1, #255	; 0xff
 800059e:	e8fd 4504 	ldrd	r4, r5, [sp], #16
 80005a2:	eba0 0001 	sub.w	r0, r0, r1
 80005a6:	4770      	bx	lr
 80005a8:	ea4f 04c4 	mov.w	r4, r4, lsl #3
 80005ac:	f020 0003 	bic.w	r0, r0, #3
 80005b0:	f850 2b08 	ldr.w	r2, [r0], #8
 80005b4:	f021 0103 	bic.w	r1, r1, #3
 80005b8:	f851 3b08 	ldr.w	r3, [r1], #8
 80005bc:	fa0c f404 	lsl.w	r4, ip, r4
 80005c0:	ea62 0204 	orn	r2, r2, r4
 80005c4:	ea63 0304 	orn	r3, r3, r4
 80005c8:	e7c9      	b.n	800055e <strcmp+0x116>
 80005ca:	f010 0403 	ands.w	r4, r0, #3
 80005ce:	d01a      	beq.n	8000606 <strcmp+0x1be>
 80005d0:	eba1 0104 	sub.w	r1, r1, r4
 80005d4:	f020 0003 	bic.w	r0, r0, #3
 80005d8:	07e4      	lsls	r4, r4, #31
 80005da:	f850 2b04 	ldr.w	r2, [r0], #4
 80005de:	d006      	beq.n	80005ee <strcmp+0x1a6>
 80005e0:	d20f      	bcs.n	8000602 <strcmp+0x1ba>
 80005e2:	788b      	ldrb	r3, [r1, #2]
 80005e4:	fa5f f4a2 	uxtb.w	r4, r2, ror #16
 80005e8:	1ae4      	subs	r4, r4, r3
 80005ea:	d106      	bne.n	80005fa <strcmp+0x1b2>
 80005ec:	b12b      	cbz	r3, 80005fa <strcmp+0x1b2>
 80005ee:	78cb      	ldrb	r3, [r1, #3]
 80005f0:	fa5f f4b2 	uxtb.w	r4, r2, ror #24
 80005f4:	1ae4      	subs	r4, r4, r3
 80005f6:	d100      	bne.n	80005fa <strcmp+0x1b2>
 80005f8:	b91b      	cbnz	r3, 8000602 <strcmp+0x1ba>
 80005fa:	4620      	mov	r0, r4
 80005fc:	f85d 4b10 	ldr.w	r4, [sp], #16
 8000600:	4770      	bx	lr
 8000602:	f101 0104 	add.w	r1, r1, #4
 8000606:	f850 2b04 	ldr.w	r2, [r0], #4
 800060a:	07cc      	lsls	r4, r1, #31
 800060c:	f021 0103 	bic.w	r1, r1, #3
 8000610:	f851 3b04 	ldr.w	r3, [r1], #4
 8000614:	d848      	bhi.n	80006a8 <strcmp+0x260>
 8000616:	d224      	bcs.n	8000662 <strcmp+0x21a>
 8000618:	f022 447f 	bic.w	r4, r2, #4278190080	; 0xff000000
 800061c:	fa82 f54c 	uadd8	r5, r2, ip
 8000620:	ea94 2513 	eors.w	r5, r4, r3, lsr #8
 8000624:	faa5 f58c 	sel	r5, r5, ip
 8000628:	d10a      	bne.n	8000640 <strcmp+0x1f8>
 800062a:	b965      	cbnz	r5, 8000646 <strcmp+0x1fe>
 800062c:	f851 3b04 	ldr.w	r3, [r1], #4
 8000630:	ea84 0402 	eor.w	r4, r4, r2
 8000634:	ebb4 6f03 	cmp.w	r4, r3, lsl #24
 8000638:	d10e      	bne.n	8000658 <strcmp+0x210>
 800063a:	f850 2b04 	ldr.w	r2, [r0], #4
 800063e:	e7eb      	b.n	8000618 <strcmp+0x1d0>
 8000640:	ea4f 2313 	mov.w	r3, r3, lsr #8
 8000644:	e055      	b.n	80006f2 <strcmp+0x2aa>
 8000646:	f035 457f 	bics.w	r5, r5, #4278190080	; 0xff000000
 800064a:	d14d      	bne.n	80006e8 <strcmp+0x2a0>
 800064c:	7808      	ldrb	r0, [r1, #0]
 800064e:	e8fd 4504 	ldrd	r4, r5, [sp], #16
 8000652:	f1c0 0000 	rsb	r0, r0, #0
 8000656:	4770      	bx	lr
 8000658:	ea4f 6212 	mov.w	r2, r2, lsr #24
 800065c:	f003 03ff 	and.w	r3, r3, #255	; 0xff
 8000660:	e047      	b.n	80006f2 <strcmp+0x2aa>
 8000662:	ea02 441c 	and.w	r4, r2, ip, lsr #16
 8000666:	fa82 f54c 	uadd8	r5, r2, ip
 800066a:	ea94 4513 	eors.w	r5, r4, r3, lsr #16
 800066e:	faa5 f58c 	sel	r5, r5, ip
 8000672:	d10a      	bne.n	800068a <strcmp+0x242>
 8000674:	b965      	cbnz	r5, 8000690 <strcmp+0x248>
 8000676:	f851 3b04 	ldr.w	r3, [r1], #4
 800067a:	ea84 0402 	eor.w	r4, r4, r2
 800067e:	ebb4 4f03 	cmp.w	r4, r3, lsl #16
 8000682:	d10c      	bne.n	800069e <strcmp+0x256>
 8000684:	f850 2b04 	ldr.w	r2, [r0], #4
 8000688:	e7eb      	b.n	8000662 <strcmp+0x21a>
 800068a:	ea4f 4313 	mov.w	r3, r3, lsr #16
 800068e:	e030      	b.n	80006f2 <strcmp+0x2aa>
 8000690:	ea15 451c 	ands.w	r5, r5, ip, lsr #16
 8000694:	d128      	bne.n	80006e8 <strcmp+0x2a0>
 8000696:	880b      	ldrh	r3, [r1, #0]
 8000698:	ea4f 4212 	mov.w	r2, r2, lsr #16
 800069c:	e029      	b.n	80006f2 <strcmp+0x2aa>
 800069e:	ea4f 4212 	mov.w	r2, r2, lsr #16
 80006a2:	ea03 431c 	and.w	r3, r3, ip, lsr #16
 80006a6:	e024      	b.n	80006f2 <strcmp+0x2aa>
 80006a8:	f002 04ff 	and.w	r4, r2, #255	; 0xff
 80006ac:	fa82 f54c 	uadd8	r5, r2, ip
 80006b0:	ea94 6513 	eors.w	r5, r4, r3, lsr #24
 80006b4:	faa5 f58c 	sel	r5, r5, ip
 80006b8:	d10a      	bne.n	80006d0 <strcmp+0x288>
 80006ba:	b965      	cbnz	r5, 80006d6 <strcmp+0x28e>
 80006bc:	f851 3b04 	ldr.w	r3, [r1], #4
 80006c0:	ea84 0402 	eor.w	r4, r4, r2
 80006c4:	ebb4 2f03 	cmp.w	r4, r3, lsl #8
 80006c8:	d109      	bne.n	80006de <strcmp+0x296>
 80006ca:	f850 2b04 	ldr.w	r2, [r0], #4
 80006ce:	e7eb      	b.n	80006a8 <strcmp+0x260>
 80006d0:	ea4f 6313 	mov.w	r3, r3, lsr #24
 80006d4:	e00d      	b.n	80006f2 <strcmp+0x2aa>
 80006d6:	f015 0fff 	tst.w	r5, #255	; 0xff
 80006da:	d105      	bne.n	80006e8 <strcmp+0x2a0>
 80006dc:	680b      	ldr	r3, [r1, #0]
 80006de:	ea4f 2212 	mov.w	r2, r2, lsr #8
 80006e2:	f023 437f 	bic.w	r3, r3, #4278190080	; 0xff000000
 80006e6:	e004      	b.n	80006f2 <strcmp+0x2aa>
 80006e8:	f04f 0000 	mov.w	r0, #0
 80006ec:	e8fd 4504 	ldrd	r4, r5, [sp], #16
 80006f0:	4770      	bx	lr
 80006f2:	ba12      	rev	r2, r2
 80006f4:	ba1b      	rev	r3, r3
 80006f6:	fa82 f44c 	uadd8	r4, r2, ip
 80006fa:	ea82 0403 	eor.w	r4, r2, r3
 80006fe:	faa4 f58c 	sel	r5, r4, ip
 8000702:	fab5 f485 	clz	r4, r5
 8000706:	fa02 f204 	lsl.w	r2, r2, r4
 800070a:	fa03 f304 	lsl.w	r3, r3, r4
 800070e:	ea4f 6012 	mov.w	r0, r2, lsr #24
 8000712:	e8fd 4504 	ldrd	r4, r5, [sp], #16
 8000716:	eba0 6013 	sub.w	r0, r0, r3, lsr #24
 800071a:	4770      	bx	lr
	...

08000740 <strlen>:
 8000740:	f890 f000 	pld	[r0]
 8000744:	e96d 4502 	strd	r4, r5, [sp, #-8]!
 8000748:	f020 0107 	bic.w	r1, r0, #7
 800074c:	f06f 0c00 	mvn.w	ip, #0
 8000750:	f010 0407 	ands.w	r4, r0, #7
 8000754:	f891 f020 	pld	[r1, #32]
 8000758:	f040 8049 	bne.w	80007ee <strlen+0xae>
 800075c:	f04f 0400 	mov.w	r4, #0
 8000760:	f06f 0007 	mvn.w	r0, #7
 8000764:	e9d1 2300 	ldrd	r2, r3, [r1]
 8000768:	f891 f040 	pld	[r1, #64]	; 0x40
 800076c:	f100 0008 	add.w	r0, r0, #8
 8000770:	fa82 f24c 	uadd8	r2, r2, ip
 8000774:	faa4 f28c 	sel	r2, r4, ip
 8000778:	fa83 f34c 	uadd8	r3, r3, ip
 800077c:	faa2 f38c 	sel	r3, r2, ip
 8000780:	bb4b      	cbnz	r3, 80007d6 <strlen+0x96>
 8000782:	e9d1 2302 	ldrd	r2, r3, [r1, #8]
 8000786:	fa82 f24c 	uadd8	r2, r2, ip
 800078a:	f100 0008 	add.w	r0, r0, #8
 800078e:	faa4 f28c 	sel	r2, r4, ip
 8000792:	fa83 f34c 	uadd8	r3, r3, ip
 8000796:	faa2 f38c 	sel	r3, r2, ip
 800079a:	b9e3      	cbnz	r3, 80007d6 <strlen+0x96>
 800079c:	e9d1 2304 	ldrd	r2, r3, [r1, #16]
 80007a0:	fa82 f24c 	uadd8	r2, r2, ip
 80007a4:	f100 0008 	add.w	r0, r0, #8
 80007a8:	faa4 f28c 	sel	r2, r4, ip
 80007ac:	fa83 f34c 	uadd8	r3, r3, ip
 80007b0:	faa2 f38c 	sel	r3, r2, ip
 80007b4:	b97b      	cbnz	r3, 80007d6 <strlen+0x96>
 80007b6:	e9d1 2306 	ldrd	r2, r3, [r1, #24]
 80007ba:	f101 0120 	add.w	r1, r1, #32
 80007be:	fa82 f24c 	uadd8	r2, r2, ip
 80007c2:	f100 0008 	add.w	r0, r0, #8
 80007c6:	faa4 f28c 	sel	r2, r4, ip
 80007ca:	fa83 f34c 	uadd8	r3, r3, ip
 80007ce:	faa2 f38c 	sel	r3, r2, ip
 80007d2:	2b00      	cmp	r3, #0
 80007d4:	d0c6      	beq.n	8000764 <strlen+0x24>
 80007d6:	2a00      	cmp	r2, #0
 80007d8:	bf04      	itt	eq
 80007da:	3004      	addeq	r0, #4
 80007dc:	461a      	moveq	r2, r3
 80007de:	ba12      	rev	r2, r2
 80007e0:	fab2 f282 	clz	r2, r2
 80007e4:	e8fd 4502 	ldrd	r4, r5, [sp], #8
 80007e8:	eb00 00d2 	add.w	r0, r0, r2, lsr #3
 80007ec:	4770      	bx	lr
 80007ee:	e9d1 2300 	ldrd	r2, r3, [r1]
 80007f2:	f004 0503 	and.w	r5, r4, #3
 80007f6:	f1c4 0000 	rsb	r0, r4, #0
 80007fa:	ea4f 05c5 	mov.w	r5, r5, lsl #3
 80007fe:	f014 0f04 	tst.w	r4, #4
 8000802:	f891 f040 	pld	[r1, #64]	; 0x40
 8000806:	fa0c f505 	lsl.w	r5, ip, r5
 800080a:	ea62 0205 	orn	r2, r2, r5
 800080e:	bf1c      	itt	ne
 8000810:	ea63 0305 	ornne	r3, r3, r5
 8000814:	4662      	movne	r2, ip
 8000816:	f04f 0400 	mov.w	r4, #0
 800081a:	e7a9      	b.n	8000770 <strlen+0x30>

0800081c <__aeabi_drsub>:
 800081c:	f081 4100 	eor.w	r1, r1, #2147483648	; 0x80000000
 8000820:	e002      	b.n	8000828 <__adddf3>
 8000822:	bf00      	nop

08000824 <__aeabi_dsub>:
 8000824:	f083 4300 	eor.w	r3, r3, #2147483648	; 0x80000000

08000828 <__adddf3>:
 8000828:	b530      	push	{r4, r5, lr}
 800082a:	ea4f 0441 	mov.w	r4, r1, lsl #1
 800082e:	ea4f 0543 	mov.w	r5, r3, lsl #1
 8000832:	ea94 0f05 	teq	r4, r5
 8000836:	bf08      	it	eq
 8000838:	ea90 0f02 	teqeq	r0, r2
 800083c:	bf1f      	itttt	ne
 800083e:	ea54 0c00 	orrsne.w	ip, r4, r0
 8000842:	ea55 0c02 	orrsne.w	ip, r5, r2
 8000846:	ea7f 5c64 	mvnsne.w	ip, r4, asr #21
 800084a:	ea7f 5c65 	mvnsne.w	ip, r5, asr #21
 800084e:	f000 80e2 	beq.w	8000a16 <__adddf3+0x1ee>
 8000852:	ea4f 5454 	mov.w	r4, r4, lsr #21
 8000856:	ebd4 5555 	rsbs	r5, r4, r5, lsr #21
 800085a:	bfb8      	it	lt
 800085c:	426d      	neglt	r5, r5
 800085e:	dd0c      	ble.n	800087a <__adddf3+0x52>
 8000860:	442c      	add	r4, r5
 8000862:	ea80 0202 	eor.w	r2, r0, r2
 8000866:	ea81 0303 	eor.w	r3, r1, r3
 800086a:	ea82 0000 	eor.w	r0, r2, r0
 800086e:	ea83 0101 	eor.w	r1, r3, r1
 8000872:	ea80 0202 	eor.w	r2, r0, r2
 8000876:	ea81 0303 	eor.w	r3, r1, r3
 800087a:	2d36      	cmp	r5, #54	; 0x36
 800087c:	bf88      	it	hi
 800087e:	bd30      	pophi	{r4, r5, pc}
 8000880:	f011 4f00 	tst.w	r1, #2147483648	; 0x80000000
 8000884:	ea4f 3101 	mov.w	r1, r1, lsl #12
 8000888:	f44f 1c80 	mov.w	ip, #1048576	; 0x100000
 800088c:	ea4c 3111 	orr.w	r1, ip, r1, lsr #12
 8000890:	d002      	beq.n	8000898 <__adddf3+0x70>
 8000892:	4240      	negs	r0, r0
 8000894:	eb61 0141 	sbc.w	r1, r1, r1, lsl #1
 8000898:	f013 4f00 	tst.w	r3, #2147483648	; 0x80000000
 800089c:	ea4f 3303 	mov.w	r3, r3, lsl #12
 80008a0:	ea4c 3313 	orr.w	r3, ip, r3, lsr #12
 80008a4:	d002      	beq.n	80008ac <__adddf3+0x84>
 80008a6:	4252      	negs	r2, r2
 80008a8:	eb63 0343 	sbc.w	r3, r3, r3, lsl #1
 80008ac:	ea94 0f05 	teq	r4, r5
 80008b0:	f000 80a7 	beq.w	8000a02 <__adddf3+0x1da>
 80008b4:	f1a4 0401 	sub.w	r4, r4, #1
 80008b8:	f1d5 0e20 	rsbs	lr, r5, #32
 80008bc:	db0d      	blt.n	80008da <__adddf3+0xb2>
 80008be:	fa02 fc0e 	lsl.w	ip, r2, lr
 80008c2:	fa22 f205 	lsr.w	r2, r2, r5
 80008c6:	1880      	adds	r0, r0, r2
 80008c8:	f141 0100 	adc.w	r1, r1, #0
 80008cc:	fa03 f20e 	lsl.w	r2, r3, lr
 80008d0:	1880      	adds	r0, r0, r2
 80008d2:	fa43 f305 	asr.w	r3, r3, r5
 80008d6:	4159      	adcs	r1, r3
 80008d8:	e00e      	b.n	80008f8 <__adddf3+0xd0>
 80008da:	f1a5 0520 	sub.w	r5, r5, #32
 80008de:	f10e 0e20 	add.w	lr, lr, #32
 80008e2:	2a01      	cmp	r2, #1
 80008e4:	fa03 fc0e 	lsl.w	ip, r3, lr
 80008e8:	bf28      	it	cs
 80008ea:	f04c 0c02 	orrcs.w	ip, ip, #2
 80008ee:	fa43 f305 	asr.w	r3, r3, r5
 80008f2:	18c0      	adds	r0, r0, r3
 80008f4:	eb51 71e3 	adcs.w	r1, r1, r3, asr #31
 80008f8:	f001 4500 	and.w	r5, r1, #2147483648	; 0x80000000
 80008fc:	d507      	bpl.n	800090e <__adddf3+0xe6>
 80008fe:	f04f 0e00 	mov.w	lr, #0
 8000902:	f1dc 0c00 	rsbs	ip, ip, #0
 8000906:	eb7e 0000 	sbcs.w	r0, lr, r0
 800090a:	eb6e 0101 	sbc.w	r1, lr, r1
 800090e:	f5b1 1f80 	cmp.w	r1, #1048576	; 0x100000
 8000912:	d31b      	bcc.n	800094c <__adddf3+0x124>
 8000914:	f5b1 1f00 	cmp.w	r1, #2097152	; 0x200000
 8000918:	d30c      	bcc.n	8000934 <__adddf3+0x10c>
 800091a:	0849      	lsrs	r1, r1, #1
 800091c:	ea5f 0030 	movs.w	r0, r0, rrx
 8000920:	ea4f 0c3c 	mov.w	ip, ip, rrx
 8000924:	f104 0401 	add.w	r4, r4, #1
 8000928:	ea4f 5244 	mov.w	r2, r4, lsl #21
 800092c:	f512 0f80 	cmn.w	r2, #4194304	; 0x400000
 8000930:	f080 809a 	bcs.w	8000a68 <__adddf3+0x240>
 8000934:	f1bc 4f00 	cmp.w	ip, #2147483648	; 0x80000000
 8000938:	bf08      	it	eq
 800093a:	ea5f 0c50 	movseq.w	ip, r0, lsr #1
 800093e:	f150 0000 	adcs.w	r0, r0, #0
 8000942:	eb41 5104 	adc.w	r1, r1, r4, lsl #20
 8000946:	ea41 0105 	orr.w	r1, r1, r5
 800094a:	bd30      	pop	{r4, r5, pc}
 800094c:	ea5f 0c4c 	movs.w	ip, ip, lsl #1
 8000950:	4140      	adcs	r0, r0
 8000952:	eb41 0101 	adc.w	r1, r1, r1
 8000956:	3c01      	subs	r4, #1
 8000958:	bf28      	it	cs
 800095a:	f5b1 1f80 	cmpcs.w	r1, #1048576	; 0x100000
 800095e:	d2e9      	bcs.n	8000934 <__adddf3+0x10c>
 8000960:	f091 0f00 	teq	r1, #0
 8000964:	bf04      	itt	eq
 8000966:	4601      	moveq	r1, r0
 8000968:	2000      	moveq	r0, #0
 800096a:	fab1 f381 	clz	r3, r1
 800096e:	bf08      	it	eq
 8000970:	3320      	addeq	r3, #32
 8000972:	f1a3 030b 	sub.w	r3, r3, #11
 8000976:	f1b3 0220 	subs.w	r2, r3, #32
 800097a:	da0c      	bge.n	8000996 <__adddf3+0x16e>
 800097c:	320c      	adds	r2, #12
 800097e:	dd08      	ble.n	8000992 <__adddf3+0x16a>
 8000980:	f102 0c14 	add.w	ip, r2, #20
 8000984:	f1c2 020c 	rsb	r2, r2, #12
 8000988:	fa01 f00c 	lsl.w	r0, r1, ip
 800098c:	fa21 f102 	lsr.w	r1, r1, r2
 8000990:	e00c      	b.n	80009ac <__adddf3+0x184>
 8000992:	f102 0214 	add.w	r2, r2, #20
 8000996:	bfd8      	it	le
 8000998:	f1c2 0c20 	rsble	ip, r2, #32
 800099c:	fa01 f102 	lsl.w	r1, r1, r2
 80009a0:	fa20 fc0c 	lsr.w	ip, r0, ip
 80009a4:	bfdc      	itt	le
 80009a6:	ea41 010c 	orrle.w	r1, r1, ip
 80009aa:	4090      	lslle	r0, r2
 80009ac:	1ae4      	subs	r4, r4, r3
 80009ae:	bfa2      	ittt	ge
 80009b0:	eb01 5104 	addge.w	r1, r1, r4, lsl #20
 80009b4:	4329      	orrge	r1, r5
 80009b6:	bd30      	popge	{r4, r5, pc}
 80009b8:	ea6f 0404 	mvn.w	r4, r4
 80009bc:	3c1f      	subs	r4, #31
 80009be:	da1c      	bge.n	80009fa <__adddf3+0x1d2>
 80009c0:	340c      	adds	r4, #12
 80009c2:	dc0e      	bgt.n	80009e2 <__adddf3+0x1ba>
 80009c4:	f104 0414 	add.w	r4, r4, #20
 80009c8:	f1c4 0220 	rsb	r2, r4, #32
 80009cc:	fa20 f004 	lsr.w	r0, r0, r4
 80009d0:	fa01 f302 	lsl.w	r3, r1, r2
 80009d4:	ea40 0003 	orr.w	r0, r0, r3
 80009d8:	fa21 f304 	lsr.w	r3, r1, r4
 80009dc:	ea45 0103 	orr.w	r1, r5, r3
 80009e0:	bd30      	pop	{r4, r5, pc}
 80009e2:	f1c4 040c 	rsb	r4, r4, #12
 80009e6:	f1c4 0220 	rsb	r2, r4, #32
 80009ea:	fa20 f002 	lsr.w	r0, r0, r2
 80009ee:	fa01 f304 	lsl.w	r3, r1, r4
 80009f2:	ea40 0003 	orr.w	r0, r0, r3
 80009f6:	4629      	mov	r1, r5
 80009f8:	bd30      	pop	{r4, r5, pc}
 80009fa:	fa21 f004 	lsr.w	r0, r1, r4
 80009fe:	4629      	mov	r1, r5
 8000a00:	bd30      	pop	{r4, r5, pc}
 8000a02:	f094 0f00 	teq	r4, #0
 8000a06:	f483 1380 	eor.w	r3, r3, #1048576	; 0x100000
 8000a0a:	bf06      	itte	eq
 8000a0c:	f481 1180 	eoreq.w	r1, r1, #1048576	; 0x100000
 8000a10:	3401      	addeq	r4, #1
 8000a12:	3d01      	subne	r5, #1
 8000a14:	e74e      	b.n	80008b4 <__adddf3+0x8c>
 8000a16:	ea7f 5c64 	mvns.w	ip, r4, asr #21
 8000a1a:	bf18      	it	ne
 8000a1c:	ea7f 5c65 	mvnsne.w	ip, r5, asr #21
 8000a20:	d029      	beq.n	8000a76 <__adddf3+0x24e>
 8000a22:	ea94 0f05 	teq	r4, r5
 8000a26:	bf08      	it	eq
 8000a28:	ea90 0f02 	teqeq	r0, r2
 8000a2c:	d005      	beq.n	8000a3a <__adddf3+0x212>
 8000a2e:	ea54 0c00 	orrs.w	ip, r4, r0
 8000a32:	bf04      	itt	eq
 8000a34:	4619      	moveq	r1, r3
 8000a36:	4610      	moveq	r0, r2
 8000a38:	bd30      	pop	{r4, r5, pc}
 8000a3a:	ea91 0f03 	teq	r1, r3
 8000a3e:	bf1e      	ittt	ne
 8000a40:	2100      	movne	r1, #0
 8000a42:	2000      	movne	r0, #0
 8000a44:	bd30      	popne	{r4, r5, pc}
 8000a46:	ea5f 5c54 	movs.w	ip, r4, lsr #21
 8000a4a:	d105      	bne.n	8000a58 <__adddf3+0x230>
 8000a4c:	0040      	lsls	r0, r0, #1
 8000a4e:	4149      	adcs	r1, r1
 8000a50:	bf28      	it	cs
 8000a52:	f041 4100 	orrcs.w	r1, r1, #2147483648	; 0x80000000
 8000a56:	bd30      	pop	{r4, r5, pc}
 8000a58:	f514 0480 	adds.w	r4, r4, #4194304	; 0x400000
 8000a5c:	bf3c      	itt	cc
 8000a5e:	f501 1180 	addcc.w	r1, r1, #1048576	; 0x100000
 8000a62:	bd30      	popcc	{r4, r5, pc}
 8000a64:	f001 4500 	and.w	r5, r1, #2147483648	; 0x80000000
 8000a68:	f045 41fe 	orr.w	r1, r5, #2130706432	; 0x7f000000
 8000a6c:	f441 0170 	orr.w	r1, r1, #15728640	; 0xf00000
 8000a70:	f04f 0000 	mov.w	r0, #0
 8000a74:	bd30      	pop	{r4, r5, pc}
 8000a76:	ea7f 5c64 	mvns.w	ip, r4, asr #21
 8000a7a:	bf1a      	itte	ne
 8000a7c:	4619      	movne	r1, r3
 8000a7e:	4610      	movne	r0, r2
 8000a80:	ea7f 5c65 	mvnseq.w	ip, r5, asr #21
 8000a84:	bf1c      	itt	ne
 8000a86:	460b      	movne	r3, r1
 8000a88:	4602      	movne	r2, r0
 8000a8a:	ea50 3401 	orrs.w	r4, r0, r1, lsl #12
 8000a8e:	bf06      	itte	eq
 8000a90:	ea52 3503 	orrseq.w	r5, r2, r3, lsl #12
 8000a94:	ea91 0f03 	teqeq	r1, r3
 8000a98:	f441 2100 	orrne.w	r1, r1, #524288	; 0x80000
 8000a9c:	bd30      	pop	{r4, r5, pc}
 8000a9e:	bf00      	nop

08000aa0 <__aeabi_ui2d>:
 8000aa0:	f090 0f00 	teq	r0, #0
 8000aa4:	bf04      	itt	eq
 8000aa6:	2100      	moveq	r1, #0
 8000aa8:	4770      	bxeq	lr
 8000aaa:	b530      	push	{r4, r5, lr}
 8000aac:	f44f 6480 	mov.w	r4, #1024	; 0x400
 8000ab0:	f104 0432 	add.w	r4, r4, #50	; 0x32
 8000ab4:	f04f 0500 	mov.w	r5, #0
 8000ab8:	f04f 0100 	mov.w	r1, #0
 8000abc:	e750      	b.n	8000960 <__adddf3+0x138>
 8000abe:	bf00      	nop

08000ac0 <__aeabi_i2d>:
 8000ac0:	f090 0f00 	teq	r0, #0
 8000ac4:	bf04      	itt	eq
 8000ac6:	2100      	moveq	r1, #0
 8000ac8:	4770      	bxeq	lr
 8000aca:	b530      	push	{r4, r5, lr}
 8000acc:	f44f 6480 	mov.w	r4, #1024	; 0x400
 8000ad0:	f104 0432 	add.w	r4, r4, #50	; 0x32
 8000ad4:	f010 4500 	ands.w	r5, r0, #2147483648	; 0x80000000
 8000ad8:	bf48      	it	mi
 8000ada:	4240      	negmi	r0, r0
 8000adc:	f04f 0100 	mov.w	r1, #0
 8000ae0:	e73e      	b.n	8000960 <__adddf3+0x138>
 8000ae2:	bf00      	nop

08000ae4 <__aeabi_f2d>:
 8000ae4:	0042      	lsls	r2, r0, #1
 8000ae6:	ea4f 01e2 	mov.w	r1, r2, asr #3
 8000aea:	ea4f 0131 	mov.w	r1, r1, rrx
 8000aee:	ea4f 7002 	mov.w	r0, r2, lsl #28
 8000af2:	bf1f      	itttt	ne
 8000af4:	f012 437f 	andsne.w	r3, r2, #4278190080	; 0xff000000
 8000af8:	f093 4f7f 	teqne	r3, #4278190080	; 0xff000000
 8000afc:	f081 5160 	eorne.w	r1, r1, #939524096	; 0x38000000
 8000b00:	4770      	bxne	lr
 8000b02:	f032 427f 	bics.w	r2, r2, #4278190080	; 0xff000000
 8000b06:	bf08      	it	eq
 8000b08:	4770      	bxeq	lr
 8000b0a:	f093 4f7f 	teq	r3, #4278190080	; 0xff000000
 8000b0e:	bf04      	itt	eq
 8000b10:	f441 2100 	orreq.w	r1, r1, #524288	; 0x80000
 8000b14:	4770      	bxeq	lr
 8000b16:	b530      	push	{r4, r5, lr}
 8000b18:	f44f 7460 	mov.w	r4, #896	; 0x380
 8000b1c:	f001 4500 	and.w	r5, r1, #2147483648	; 0x80000000
 8000b20:	f021 4100 	bic.w	r1, r1, #2147483648	; 0x80000000
 8000b24:	e71c      	b.n	8000960 <__adddf3+0x138>
 8000b26:	bf00      	nop

08000b28 <__aeabi_ul2d>:
 8000b28:	ea50 0201 	orrs.w	r2, r0, r1
 8000b2c:	bf08      	it	eq
 8000b2e:	4770      	bxeq	lr
 8000b30:	b530      	push	{r4, r5, lr}
 8000b32:	f04f 0500 	mov.w	r5, #0
 8000b36:	e00a      	b.n	8000b4e <__aeabi_l2d+0x16>

08000b38 <__aeabi_l2d>:
 8000b38:	ea50 0201 	orrs.w	r2, r0, r1
 8000b3c:	bf08      	it	eq
 8000b3e:	4770      	bxeq	lr
 8000b40:	b530      	push	{r4, r5, lr}
 8000b42:	f011 4500 	ands.w	r5, r1, #2147483648	; 0x80000000
 8000b46:	d502      	bpl.n	8000b4e <__aeabi_l2d+0x16>
 8000b48:	4240      	negs	r0, r0
 8000b4a:	eb61 0141 	sbc.w	r1, r1, r1, lsl #1
 8000b4e:	f44f 6480 	mov.w	r4, #1024	; 0x400
 8000b52:	f104 0432 	add.w	r4, r4, #50	; 0x32
 8000b56:	ea5f 5c91 	movs.w	ip, r1, lsr #22
 8000b5a:	f43f aed8 	beq.w	800090e <__adddf3+0xe6>
 8000b5e:	f04f 0203 	mov.w	r2, #3
 8000b62:	ea5f 0cdc 	movs.w	ip, ip, lsr #3
 8000b66:	bf18      	it	ne
 8000b68:	3203      	addne	r2, #3
 8000b6a:	ea5f 0cdc 	movs.w	ip, ip, lsr #3
 8000b6e:	bf18      	it	ne
 8000b70:	3203      	addne	r2, #3
 8000b72:	eb02 02dc 	add.w	r2, r2, ip, lsr #3
 8000b76:	f1c2 0320 	rsb	r3, r2, #32
 8000b7a:	fa00 fc03 	lsl.w	ip, r0, r3
 8000b7e:	fa20 f002 	lsr.w	r0, r0, r2
 8000b82:	fa01 fe03 	lsl.w	lr, r1, r3
 8000b86:	ea40 000e 	orr.w	r0, r0, lr
 8000b8a:	fa21 f102 	lsr.w	r1, r1, r2
 8000b8e:	4414      	add	r4, r2
 8000b90:	e6bd      	b.n	800090e <__adddf3+0xe6>
 8000b92:	bf00      	nop

08000b94 <__aeabi_dmul>:
 8000b94:	b570      	push	{r4, r5, r6, lr}
 8000b96:	f04f 0cff 	mov.w	ip, #255	; 0xff
 8000b9a:	f44c 6ce0 	orr.w	ip, ip, #1792	; 0x700
 8000b9e:	ea1c 5411 	ands.w	r4, ip, r1, lsr #20
 8000ba2:	bf1d      	ittte	ne
 8000ba4:	ea1c 5513 	andsne.w	r5, ip, r3, lsr #20
 8000ba8:	ea94 0f0c 	teqne	r4, ip
 8000bac:	ea95 0f0c 	teqne	r5, ip
 8000bb0:	f000 f8de 	bleq	8000d70 <__aeabi_dmul+0x1dc>
 8000bb4:	442c      	add	r4, r5
 8000bb6:	ea81 0603 	eor.w	r6, r1, r3
 8000bba:	ea21 514c 	bic.w	r1, r1, ip, lsl #21
 8000bbe:	ea23 534c 	bic.w	r3, r3, ip, lsl #21
 8000bc2:	ea50 3501 	orrs.w	r5, r0, r1, lsl #12
 8000bc6:	bf18      	it	ne
 8000bc8:	ea52 3503 	orrsne.w	r5, r2, r3, lsl #12
 8000bcc:	f441 1180 	orr.w	r1, r1, #1048576	; 0x100000
 8000bd0:	f443 1380 	orr.w	r3, r3, #1048576	; 0x100000
 8000bd4:	d038      	beq.n	8000c48 <__aeabi_dmul+0xb4>
 8000bd6:	fba0 ce02 	umull	ip, lr, r0, r2
 8000bda:	f04f 0500 	mov.w	r5, #0
 8000bde:	fbe1 e502 	umlal	lr, r5, r1, r2
 8000be2:	f006 4200 	and.w	r2, r6, #2147483648	; 0x80000000
 8000be6:	fbe0 e503 	umlal	lr, r5, r0, r3
 8000bea:	f04f 0600 	mov.w	r6, #0
 8000bee:	fbe1 5603 	umlal	r5, r6, r1, r3
 8000bf2:	f09c 0f00 	teq	ip, #0
 8000bf6:	bf18      	it	ne
 8000bf8:	f04e 0e01 	orrne.w	lr, lr, #1
 8000bfc:	f1a4 04ff 	sub.w	r4, r4, #255	; 0xff
 8000c00:	f5b6 7f00 	cmp.w	r6, #512	; 0x200
 8000c04:	f564 7440 	sbc.w	r4, r4, #768	; 0x300
 8000c08:	d204      	bcs.n	8000c14 <__aeabi_dmul+0x80>
 8000c0a:	ea5f 0e4e 	movs.w	lr, lr, lsl #1
 8000c0e:	416d      	adcs	r5, r5
 8000c10:	eb46 0606 	adc.w	r6, r6, r6
 8000c14:	ea42 21c6 	orr.w	r1, r2, r6, lsl #11
 8000c18:	ea41 5155 	orr.w	r1, r1, r5, lsr #21
 8000c1c:	ea4f 20c5 	mov.w	r0, r5, lsl #11
 8000c20:	ea40 505e 	orr.w	r0, r0, lr, lsr #21
 8000c24:	ea4f 2ece 	mov.w	lr, lr, lsl #11
 8000c28:	f1b4 0cfd 	subs.w	ip, r4, #253	; 0xfd
 8000c2c:	bf88      	it	hi
 8000c2e:	f5bc 6fe0 	cmphi.w	ip, #1792	; 0x700
 8000c32:	d81e      	bhi.n	8000c72 <__aeabi_dmul+0xde>
 8000c34:	f1be 4f00 	cmp.w	lr, #2147483648	; 0x80000000
 8000c38:	bf08      	it	eq
 8000c3a:	ea5f 0e50 	movseq.w	lr, r0, lsr #1
 8000c3e:	f150 0000 	adcs.w	r0, r0, #0
 8000c42:	eb41 5104 	adc.w	r1, r1, r4, lsl #20
 8000c46:	bd70      	pop	{r4, r5, r6, pc}
 8000c48:	f006 4600 	and.w	r6, r6, #2147483648	; 0x80000000
 8000c4c:	ea46 0101 	orr.w	r1, r6, r1
 8000c50:	ea40 0002 	orr.w	r0, r0, r2
 8000c54:	ea81 0103 	eor.w	r1, r1, r3
 8000c58:	ebb4 045c 	subs.w	r4, r4, ip, lsr #1
 8000c5c:	bfc2      	ittt	gt
 8000c5e:	ebd4 050c 	rsbsgt	r5, r4, ip
 8000c62:	ea41 5104 	orrgt.w	r1, r1, r4, lsl #20
 8000c66:	bd70      	popgt	{r4, r5, r6, pc}
 8000c68:	f441 1180 	orr.w	r1, r1, #1048576	; 0x100000
 8000c6c:	f04f 0e00 	mov.w	lr, #0
 8000c70:	3c01      	subs	r4, #1
 8000c72:	f300 80ab 	bgt.w	8000dcc <__aeabi_dmul+0x238>
 8000c76:	f114 0f36 	cmn.w	r4, #54	; 0x36
 8000c7a:	bfde      	ittt	le
 8000c7c:	2000      	movle	r0, #0
 8000c7e:	f001 4100 	andle.w	r1, r1, #2147483648	; 0x80000000
 8000c82:	bd70      	pople	{r4, r5, r6, pc}
 8000c84:	f1c4 0400 	rsb	r4, r4, #0
 8000c88:	3c20      	subs	r4, #32
 8000c8a:	da35      	bge.n	8000cf8 <__aeabi_dmul+0x164>
 8000c8c:	340c      	adds	r4, #12
 8000c8e:	dc1b      	bgt.n	8000cc8 <__aeabi_dmul+0x134>
 8000c90:	f104 0414 	add.w	r4, r4, #20
 8000c94:	f1c4 0520 	rsb	r5, r4, #32
 8000c98:	fa00 f305 	lsl.w	r3, r0, r5
 8000c9c:	fa20 f004 	lsr.w	r0, r0, r4
 8000ca0:	fa01 f205 	lsl.w	r2, r1, r5
 8000ca4:	ea40 0002 	orr.w	r0, r0, r2
 8000ca8:	f001 4200 	and.w	r2, r1, #2147483648	; 0x80000000
 8000cac:	f021 4100 	bic.w	r1, r1, #2147483648	; 0x80000000
 8000cb0:	eb10 70d3 	adds.w	r0, r0, r3, lsr #31
 8000cb4:	fa21 f604 	lsr.w	r6, r1, r4
 8000cb8:	eb42 0106 	adc.w	r1, r2, r6
 8000cbc:	ea5e 0e43 	orrs.w	lr, lr, r3, lsl #1
 8000cc0:	bf08      	it	eq
 8000cc2:	ea20 70d3 	biceq.w	r0, r0, r3, lsr #31
 8000cc6:	bd70      	pop	{r4, r5, r6, pc}
 8000cc8:	f1c4 040c 	rsb	r4, r4, #12
 8000ccc:	f1c4 0520 	rsb	r5, r4, #32
 8000cd0:	fa00 f304 	lsl.w	r3, r0, r4
 8000cd4:	fa20 f005 	lsr.w	r0, r0, r5
 8000cd8:	fa01 f204 	lsl.w	r2, r1, r4
 8000cdc:	ea40 0002 	orr.w	r0, r0, r2
 8000ce0:	f001 4100 	and.w	r1, r1, #2147483648	; 0x80000000
 8000ce4:	eb10 70d3 	adds.w	r0, r0, r3, lsr #31
 8000ce8:	f141 0100 	adc.w	r1, r1, #0
 8000cec:	ea5e 0e43 	orrs.w	lr, lr, r3, lsl #1
 8000cf0:	bf08      	it	eq
 8000cf2:	ea20 70d3 	biceq.w	r0, r0, r3, lsr #31
 8000cf6:	bd70      	pop	{r4, r5, r6, pc}
 8000cf8:	f1c4 0520 	rsb	r5, r4, #32
 8000cfc:	fa00 f205 	lsl.w	r2, r0, r5
 8000d00:	ea4e 0e02 	orr.w	lr, lr, r2
 8000d04:	fa20 f304 	lsr.w	r3, r0, r4
 8000d08:	fa01 f205 	lsl.w	r2, r1, r5
 8000d0c:	ea43 0302 	orr.w	r3, r3, r2
 8000d10:	fa21 f004 	lsr.w	r0, r1, r4
 8000d14:	f001 4100 	and.w	r1, r1, #2147483648	; 0x80000000
 8000d18:	fa21 f204 	lsr.w	r2, r1, r4
 8000d1c:	ea20 0002 	bic.w	r0, r0, r2
 8000d20:	eb00 70d3 	add.w	r0, r0, r3, lsr #31
 8000d24:	ea5e 0e43 	orrs.w	lr, lr, r3, lsl #1
 8000d28:	bf08      	it	eq
 8000d2a:	ea20 70d3 	biceq.w	r0, r0, r3, lsr #31
 8000d2e:	bd70      	pop	{r4, r5, r6, pc}
 8000d30:	f094 0f00 	teq	r4, #0
 8000d34:	d10f      	bne.n	8000d56 <__aeabi_dmul+0x1c2>
 8000d36:	f001 4600 	and.w	r6, r1, #2147483648	; 0x80000000
 8000d3a:	0040      	lsls	r0, r0, #1
 8000d3c:	eb41 0101 	adc.w	r1, r1, r1
 8000d40:	f411 1f80 	tst.w	r1, #1048576	; 0x100000
 8000d44:	bf08      	it	eq
 8000d46:	3c01      	subeq	r4, #1
 8000d48:	d0f7      	beq.n	8000d3a <__aeabi_dmul+0x1a6>
 8000d4a:	ea41 0106 	orr.w	r1, r1, r6
 8000d4e:	f095 0f00 	teq	r5, #0
 8000d52:	bf18      	it	ne
 8000d54:	4770      	bxne	lr
 8000d56:	f003 4600 	and.w	r6, r3, #2147483648	; 0x80000000
 8000d5a:	0052      	lsls	r2, r2, #1
 8000d5c:	eb43 0303 	adc.w	r3, r3, r3
 8000d60:	f413 1f80 	tst.w	r3, #1048576	; 0x100000
 8000d64:	bf08      	it	eq
 8000d66:	3d01      	subeq	r5, #1
 8000d68:	d0f7      	beq.n	8000d5a <__aeabi_dmul+0x1c6>
 8000d6a:	ea43 0306 	orr.w	r3, r3, r6
 8000d6e:	4770      	bx	lr
 8000d70:	ea94 0f0c 	teq	r4, ip
 8000d74:	ea0c 5513 	and.w	r5, ip, r3, lsr #20
 8000d78:	bf18      	it	ne
 8000d7a:	ea95 0f0c 	teqne	r5, ip
 8000d7e:	d00c      	beq.n	8000d9a <__aeabi_dmul+0x206>
 8000d80:	ea50 0641 	orrs.w	r6, r0, r1, lsl #1
 8000d84:	bf18      	it	ne
 8000d86:	ea52 0643 	orrsne.w	r6, r2, r3, lsl #1
 8000d8a:	d1d1      	bne.n	8000d30 <__aeabi_dmul+0x19c>
 8000d8c:	ea81 0103 	eor.w	r1, r1, r3
 8000d90:	f001 4100 	and.w	r1, r1, #2147483648	; 0x80000000
 8000d94:	f04f 0000 	mov.w	r0, #0
 8000d98:	bd70      	pop	{r4, r5, r6, pc}
 8000d9a:	ea50 0641 	orrs.w	r6, r0, r1, lsl #1
 8000d9e:	bf06      	itte	eq
 8000da0:	4610      	moveq	r0, r2
 8000da2:	4619      	moveq	r1, r3
 8000da4:	ea52 0643 	orrsne.w	r6, r2, r3, lsl #1
 8000da8:	d019      	beq.n	8000dde <__aeabi_dmul+0x24a>
 8000daa:	ea94 0f0c 	teq	r4, ip
 8000dae:	d102      	bne.n	8000db6 <__aeabi_dmul+0x222>
 8000db0:	ea50 3601 	orrs.w	r6, r0, r1, lsl #12
 8000db4:	d113      	bne.n	8000dde <__aeabi_dmul+0x24a>
 8000db6:	ea95 0f0c 	teq	r5, ip
 8000dba:	d105      	bne.n	8000dc8 <__aeabi_dmul+0x234>
 8000dbc:	ea52 3603 	orrs.w	r6, r2, r3, lsl #12
 8000dc0:	bf1c      	itt	ne
 8000dc2:	4610      	movne	r0, r2
 8000dc4:	4619      	movne	r1, r3
 8000dc6:	d10a      	bne.n	8000dde <__aeabi_dmul+0x24a>
 8000dc8:	ea81 0103 	eor.w	r1, r1, r3
 8000dcc:	f001 4100 	and.w	r1, r1, #2147483648	; 0x80000000
 8000dd0:	f041 41fe 	orr.w	r1, r1, #2130706432	; 0x7f000000
 8000dd4:	f441 0170 	orr.w	r1, r1, #15728640	; 0xf00000
 8000dd8:	f04f 0000 	mov.w	r0, #0
 8000ddc:	bd70      	pop	{r4, r5, r6, pc}
 8000dde:	f041 41fe 	orr.w	r1, r1, #2130706432	; 0x7f000000
 8000de2:	f441 0178 	orr.w	r1, r1, #16252928	; 0xf80000
 8000de6:	bd70      	pop	{r4, r5, r6, pc}

08000de8 <__aeabi_ddiv>:
 8000de8:	b570      	push	{r4, r5, r6, lr}
 8000dea:	f04f 0cff 	mov.w	ip, #255	; 0xff
 8000dee:	f44c 6ce0 	orr.w	ip, ip, #1792	; 0x700
 8000df2:	ea1c 5411 	ands.w	r4, ip, r1, lsr #20
 8000df6:	bf1d      	ittte	ne
 8000df8:	ea1c 5513 	andsne.w	r5, ip, r3, lsr #20
 8000dfc:	ea94 0f0c 	teqne	r4, ip
 8000e00:	ea95 0f0c 	teqne	r5, ip
 8000e04:	f000 f8a7 	bleq	8000f56 <__aeabi_ddiv+0x16e>
 8000e08:	eba4 0405 	sub.w	r4, r4, r5
 8000e0c:	ea81 0e03 	eor.w	lr, r1, r3
 8000e10:	ea52 3503 	orrs.w	r5, r2, r3, lsl #12
 8000e14:	ea4f 3101 	mov.w	r1, r1, lsl #12
 8000e18:	f000 8088 	beq.w	8000f2c <__aeabi_ddiv+0x144>
 8000e1c:	ea4f 3303 	mov.w	r3, r3, lsl #12
 8000e20:	f04f 5580 	mov.w	r5, #268435456	; 0x10000000
 8000e24:	ea45 1313 	orr.w	r3, r5, r3, lsr #4
 8000e28:	ea43 6312 	orr.w	r3, r3, r2, lsr #24
 8000e2c:	ea4f 2202 	mov.w	r2, r2, lsl #8
 8000e30:	ea45 1511 	orr.w	r5, r5, r1, lsr #4
 8000e34:	ea45 6510 	orr.w	r5, r5, r0, lsr #24
 8000e38:	ea4f 2600 	mov.w	r6, r0, lsl #8
 8000e3c:	f00e 4100 	and.w	r1, lr, #2147483648	; 0x80000000
 8000e40:	429d      	cmp	r5, r3
 8000e42:	bf08      	it	eq
 8000e44:	4296      	cmpeq	r6, r2
 8000e46:	f144 04fd 	adc.w	r4, r4, #253	; 0xfd
 8000e4a:	f504 7440 	add.w	r4, r4, #768	; 0x300
 8000e4e:	d202      	bcs.n	8000e56 <__aeabi_ddiv+0x6e>
 8000e50:	085b      	lsrs	r3, r3, #1
 8000e52:	ea4f 0232 	mov.w	r2, r2, rrx
 8000e56:	1ab6      	subs	r6, r6, r2
 8000e58:	eb65 0503 	sbc.w	r5, r5, r3
 8000e5c:	085b      	lsrs	r3, r3, #1
 8000e5e:	ea4f 0232 	mov.w	r2, r2, rrx
 8000e62:	f44f 1080 	mov.w	r0, #1048576	; 0x100000
 8000e66:	f44f 2c00 	mov.w	ip, #524288	; 0x80000
 8000e6a:	ebb6 0e02 	subs.w	lr, r6, r2
 8000e6e:	eb75 0e03 	sbcs.w	lr, r5, r3
 8000e72:	bf22      	ittt	cs
 8000e74:	1ab6      	subcs	r6, r6, r2
 8000e76:	4675      	movcs	r5, lr
 8000e78:	ea40 000c 	orrcs.w	r0, r0, ip
 8000e7c:	085b      	lsrs	r3, r3, #1
 8000e7e:	ea4f 0232 	mov.w	r2, r2, rrx
 8000e82:	ebb6 0e02 	subs.w	lr, r6, r2
 8000e86:	eb75 0e03 	sbcs.w	lr, r5, r3
 8000e8a:	bf22      	ittt	cs
 8000e8c:	1ab6      	subcs	r6, r6, r2
 8000e8e:	4675      	movcs	r5, lr
 8000e90:	ea40 005c 	orrcs.w	r0, r0, ip, lsr #1
 8000e94:	085b      	lsrs	r3, r3, #1
 8000e96:	ea4f 0232 	mov.w	r2, r2, rrx
 8000e9a:	ebb6 0e02 	subs.w	lr, r6, r2
 8000e9e:	eb75 0e03 	sbcs.w	lr, r5, r3
 8000ea2:	bf22      	ittt	cs
 8000ea4:	1ab6      	subcs	r6, r6, r2
 8000ea6:	4675      	movcs	r5, lr
 8000ea8:	ea40 009c 	orrcs.w	r0, r0, ip, lsr #2
 8000eac:	085b      	lsrs	r3, r3, #1
 8000eae:	ea4f 0232 	mov.w	r2, r2, rrx
 8000eb2:	ebb6 0e02 	subs.w	lr, r6, r2
 8000eb6:	eb75 0e03 	sbcs.w	lr, r5, r3
 8000eba:	bf22      	ittt	cs
 8000ebc:	1ab6      	subcs	r6, r6, r2
 8000ebe:	4675      	movcs	r5, lr
 8000ec0:	ea40 00dc 	orrcs.w	r0, r0, ip, lsr #3
 8000ec4:	ea55 0e06 	orrs.w	lr, r5, r6
 8000ec8:	d018      	beq.n	8000efc <__aeabi_ddiv+0x114>
 8000eca:	ea4f 1505 	mov.w	r5, r5, lsl #4
 8000ece:	ea45 7516 	orr.w	r5, r5, r6, lsr #28
 8000ed2:	ea4f 1606 	mov.w	r6, r6, lsl #4
 8000ed6:	ea4f 03c3 	mov.w	r3, r3, lsl #3
 8000eda:	ea43 7352 	orr.w	r3, r3, r2, lsr #29
 8000ede:	ea4f 02c2 	mov.w	r2, r2, lsl #3
 8000ee2:	ea5f 1c1c 	movs.w	ip, ip, lsr #4
 8000ee6:	d1c0      	bne.n	8000e6a <__aeabi_ddiv+0x82>
 8000ee8:	f411 1f80 	tst.w	r1, #1048576	; 0x100000
 8000eec:	d10b      	bne.n	8000f06 <__aeabi_ddiv+0x11e>
 8000eee:	ea41 0100 	orr.w	r1, r1, r0
 8000ef2:	f04f 0000 	mov.w	r0, #0
 8000ef6:	f04f 4c00 	mov.w	ip, #2147483648	; 0x80000000
 8000efa:	e7b6      	b.n	8000e6a <__aeabi_ddiv+0x82>
 8000efc:	f411 1f80 	tst.w	r1, #1048576	; 0x100000
 8000f00:	bf04      	itt	eq
 8000f02:	4301      	orreq	r1, r0
 8000f04:	2000      	moveq	r0, #0
 8000f06:	f1b4 0cfd 	subs.w	ip, r4, #253	; 0xfd
 8000f0a:	bf88      	it	hi
 8000f0c:	f5bc 6fe0 	cmphi.w	ip, #1792	; 0x700
 8000f10:	f63f aeaf 	bhi.w	8000c72 <__aeabi_dmul+0xde>
 8000f14:	ebb5 0c03 	subs.w	ip, r5, r3
 8000f18:	bf04      	itt	eq
 8000f1a:	ebb6 0c02 	subseq.w	ip, r6, r2
 8000f1e:	ea5f 0c50 	movseq.w	ip, r0, lsr #1
 8000f22:	f150 0000 	adcs.w	r0, r0, #0
 8000f26:	eb41 5104 	adc.w	r1, r1, r4, lsl #20
 8000f2a:	bd70      	pop	{r4, r5, r6, pc}
 8000f2c:	f00e 4e00 	and.w	lr, lr, #2147483648	; 0x80000000
 8000f30:	ea4e 3111 	orr.w	r1, lr, r1, lsr #12
 8000f34:	eb14 045c 	adds.w	r4, r4, ip, lsr #1
 8000f38:	bfc2      	ittt	gt
 8000f3a:	ebd4 050c 	rsbsgt	r5, r4, ip
 8000f3e:	ea41 5104 	orrgt.w	r1, r1, r4, lsl #20
 8000f42:	bd70      	popgt	{r4, r5, r6, pc}
 8000f44:	f441 1180 	orr.w	r1, r1, #1048576	; 0x100000
 8000f48:	f04f 0e00 	mov.w	lr, #0
 8000f4c:	3c01      	subs	r4, #1
 8000f4e:	e690      	b.n	8000c72 <__aeabi_dmul+0xde>
 8000f50:	ea45 0e06 	orr.w	lr, r5, r6
 8000f54:	e68d      	b.n	8000c72 <__aeabi_dmul+0xde>
 8000f56:	ea0c 5513 	and.w	r5, ip, r3, lsr #20
 8000f5a:	ea94 0f0c 	teq	r4, ip
 8000f5e:	bf08      	it	eq
 8000f60:	ea95 0f0c 	teqeq	r5, ip
 8000f64:	f43f af3b 	beq.w	8000dde <__aeabi_dmul+0x24a>
 8000f68:	ea94 0f0c 	teq	r4, ip
 8000f6c:	d10a      	bne.n	8000f84 <__aeabi_ddiv+0x19c>
 8000f6e:	ea50 3401 	orrs.w	r4, r0, r1, lsl #12
 8000f72:	f47f af34 	bne.w	8000dde <__aeabi_dmul+0x24a>
 8000f76:	ea95 0f0c 	teq	r5, ip
 8000f7a:	f47f af25 	bne.w	8000dc8 <__aeabi_dmul+0x234>
 8000f7e:	4610      	mov	r0, r2
 8000f80:	4619      	mov	r1, r3
 8000f82:	e72c      	b.n	8000dde <__aeabi_dmul+0x24a>
 8000f84:	ea95 0f0c 	teq	r5, ip
 8000f88:	d106      	bne.n	8000f98 <__aeabi_ddiv+0x1b0>
 8000f8a:	ea52 3503 	orrs.w	r5, r2, r3, lsl #12
 8000f8e:	f43f aefd 	beq.w	8000d8c <__aeabi_dmul+0x1f8>
 8000f92:	4610      	mov	r0, r2
 8000f94:	4619      	mov	r1, r3
 8000f96:	e722      	b.n	8000dde <__aeabi_dmul+0x24a>
 8000f98:	ea50 0641 	orrs.w	r6, r0, r1, lsl #1
 8000f9c:	bf18      	it	ne
 8000f9e:	ea52 0643 	orrsne.w	r6, r2, r3, lsl #1
 8000fa2:	f47f aec5 	bne.w	8000d30 <__aeabi_dmul+0x19c>
 8000fa6:	ea50 0441 	orrs.w	r4, r0, r1, lsl #1
 8000faa:	f47f af0d 	bne.w	8000dc8 <__aeabi_dmul+0x234>
 8000fae:	ea52 0543 	orrs.w	r5, r2, r3, lsl #1
 8000fb2:	f47f aeeb 	bne.w	8000d8c <__aeabi_dmul+0x1f8>
 8000fb6:	e712      	b.n	8000dde <__aeabi_dmul+0x24a>

08000fb8 <__aeabi_d2uiz>:
 8000fb8:	004a      	lsls	r2, r1, #1
 8000fba:	d211      	bcs.n	8000fe0 <__aeabi_d2uiz+0x28>
 8000fbc:	f512 1200 	adds.w	r2, r2, #2097152	; 0x200000
 8000fc0:	d211      	bcs.n	8000fe6 <__aeabi_d2uiz+0x2e>
 8000fc2:	d50d      	bpl.n	8000fe0 <__aeabi_d2uiz+0x28>
 8000fc4:	f46f 7378 	mvn.w	r3, #992	; 0x3e0
 8000fc8:	ebb3 5262 	subs.w	r2, r3, r2, asr #21
 8000fcc:	d40e      	bmi.n	8000fec <__aeabi_d2uiz+0x34>
 8000fce:	ea4f 23c1 	mov.w	r3, r1, lsl #11
 8000fd2:	f043 4300 	orr.w	r3, r3, #2147483648	; 0x80000000
 8000fd6:	ea43 5350 	orr.w	r3, r3, r0, lsr #21
 8000fda:	fa23 f002 	lsr.w	r0, r3, r2
 8000fde:	4770      	bx	lr
 8000fe0:	f04f 0000 	mov.w	r0, #0
 8000fe4:	4770      	bx	lr
 8000fe6:	ea50 3001 	orrs.w	r0, r0, r1, lsl #12
 8000fea:	d102      	bne.n	8000ff2 <__aeabi_d2uiz+0x3a>
 8000fec:	f04f 30ff 	mov.w	r0, #4294967295	; 0xffffffff
 8000ff0:	4770      	bx	lr
 8000ff2:	f04f 0000 	mov.w	r0, #0
 8000ff6:	4770      	bx	lr

08000ff8 <__aeabi_uldivmod>:
 8000ff8:	b953      	cbnz	r3, 8001010 <__aeabi_uldivmod+0x18>
 8000ffa:	b94a      	cbnz	r2, 8001010 <__aeabi_uldivmod+0x18>
 8000ffc:	2900      	cmp	r1, #0
 8000ffe:	bf08      	it	eq
 8001000:	2800      	cmpeq	r0, #0
 8001002:	bf1c      	itt	ne
 8001004:	f04f 31ff 	movne.w	r1, #4294967295	; 0xffffffff
 8001008:	f04f 30ff 	movne.w	r0, #4294967295	; 0xffffffff
 800100c:	f000 b96c 	b.w	80012e8 <__aeabi_idiv0>
 8001010:	f1ad 0c08 	sub.w	ip, sp, #8
 8001014:	e96d ce04 	strd	ip, lr, [sp, #-16]!
 8001018:	f000 f806 	bl	8001028 <__udivmoddi4>
 800101c:	f8dd e004 	ldr.w	lr, [sp, #4]
 8001020:	e9dd 2302 	ldrd	r2, r3, [sp, #8]
 8001024:	b004      	add	sp, #16
 8001026:	4770      	bx	lr

08001028 <__udivmoddi4>:
 8001028:	e92d 47f0 	stmdb	sp!, {r4, r5, r6, r7, r8, r9, sl, lr}
 800102c:	9e08      	ldr	r6, [sp, #32]
 800102e:	460d      	mov	r5, r1
 8001030:	4604      	mov	r4, r0
 8001032:	468e      	mov	lr, r1
 8001034:	2b00      	cmp	r3, #0
 8001036:	f040 8082 	bne.w	800113e <__udivmoddi4+0x116>
 800103a:	428a      	cmp	r2, r1
 800103c:	4617      	mov	r7, r2
 800103e:	d946      	bls.n	80010ce <__udivmoddi4+0xa6>
 8001040:	fab2 f282 	clz	r2, r2
 8001044:	b14a      	cbz	r2, 800105a <__udivmoddi4+0x32>
 8001046:	f1c2 0120 	rsb	r1, r2, #32
 800104a:	fa05 f302 	lsl.w	r3, r5, r2
 800104e:	fa20 f101 	lsr.w	r1, r0, r1
 8001052:	4097      	lsls	r7, r2
 8001054:	ea41 0e03 	orr.w	lr, r1, r3
 8001058:	4094      	lsls	r4, r2
 800105a:	ea4f 4817 	mov.w	r8, r7, lsr #16
 800105e:	0c23      	lsrs	r3, r4, #16
 8001060:	fbbe fcf8 	udiv	ip, lr, r8
 8001064:	b2b9      	uxth	r1, r7
 8001066:	fb08 ee1c 	mls	lr, r8, ip, lr
 800106a:	ea43 430e 	orr.w	r3, r3, lr, lsl #16
 800106e:	fb0c f001 	mul.w	r0, ip, r1
 8001072:	4298      	cmp	r0, r3
 8001074:	d90a      	bls.n	800108c <__udivmoddi4+0x64>
 8001076:	18fb      	adds	r3, r7, r3
 8001078:	f10c 35ff 	add.w	r5, ip, #4294967295	; 0xffffffff
 800107c:	f080 8116 	bcs.w	80012ac <__udivmoddi4+0x284>
 8001080:	4298      	cmp	r0, r3
 8001082:	f240 8113 	bls.w	80012ac <__udivmoddi4+0x284>
 8001086:	f1ac 0c02 	sub.w	ip, ip, #2
 800108a:	443b      	add	r3, r7
 800108c:	1a1b      	subs	r3, r3, r0
 800108e:	b2a4      	uxth	r4, r4
 8001090:	fbb3 f0f8 	udiv	r0, r3, r8
 8001094:	fb08 3310 	mls	r3, r8, r0, r3
 8001098:	ea44 4403 	orr.w	r4, r4, r3, lsl #16
 800109c:	fb00 f101 	mul.w	r1, r0, r1
 80010a0:	42a1      	cmp	r1, r4
 80010a2:	d909      	bls.n	80010b8 <__udivmoddi4+0x90>
 80010a4:	193c      	adds	r4, r7, r4
 80010a6:	f100 33ff 	add.w	r3, r0, #4294967295	; 0xffffffff
 80010aa:	f080 8101 	bcs.w	80012b0 <__udivmoddi4+0x288>
 80010ae:	42a1      	cmp	r1, r4
 80010b0:	f240 80fe 	bls.w	80012b0 <__udivmoddi4+0x288>
 80010b4:	3802      	subs	r0, #2
 80010b6:	443c      	add	r4, r7
 80010b8:	1a64      	subs	r4, r4, r1
 80010ba:	ea40 400c 	orr.w	r0, r0, ip, lsl #16
 80010be:	2100      	movs	r1, #0
 80010c0:	b11e      	cbz	r6, 80010ca <__udivmoddi4+0xa2>
 80010c2:	40d4      	lsrs	r4, r2
 80010c4:	2300      	movs	r3, #0
 80010c6:	e9c6 4300 	strd	r4, r3, [r6]
 80010ca:	e8bd 87f0 	ldmia.w	sp!, {r4, r5, r6, r7, r8, r9, sl, pc}
 80010ce:	b902      	cbnz	r2, 80010d2 <__udivmoddi4+0xaa>
 80010d0:	deff      	udf	#255	; 0xff
 80010d2:	fab2 f282 	clz	r2, r2
 80010d6:	2a00      	cmp	r2, #0
 80010d8:	d14f      	bne.n	800117a <__udivmoddi4+0x152>
 80010da:	1bcb      	subs	r3, r1, r7
 80010dc:	ea4f 4e17 	mov.w	lr, r7, lsr #16
 80010e0:	fa1f f887 	uxth.w	r8, r7
 80010e4:	2101      	movs	r1, #1
 80010e6:	fbb3 fcfe 	udiv	ip, r3, lr
 80010ea:	0c25      	lsrs	r5, r4, #16
 80010ec:	fb0e 331c 	mls	r3, lr, ip, r3
 80010f0:	ea45 4503 	orr.w	r5, r5, r3, lsl #16
 80010f4:	fb08 f30c 	mul.w	r3, r8, ip
 80010f8:	42ab      	cmp	r3, r5
 80010fa:	d907      	bls.n	800110c <__udivmoddi4+0xe4>
 80010fc:	197d      	adds	r5, r7, r5
 80010fe:	f10c 30ff 	add.w	r0, ip, #4294967295	; 0xffffffff
 8001102:	d202      	bcs.n	800110a <__udivmoddi4+0xe2>
 8001104:	42ab      	cmp	r3, r5
 8001106:	f200 80e7 	bhi.w	80012d8 <__udivmoddi4+0x2b0>
 800110a:	4684      	mov	ip, r0
 800110c:	1aed      	subs	r5, r5, r3
 800110e:	b2a3      	uxth	r3, r4
 8001110:	fbb5 f0fe 	udiv	r0, r5, lr
 8001114:	fb0e 5510 	mls	r5, lr, r0, r5
 8001118:	ea43 4405 	orr.w	r4, r3, r5, lsl #16
 800111c:	fb08 f800 	mul.w	r8, r8, r0
 8001120:	45a0      	cmp	r8, r4
 8001122:	d907      	bls.n	8001134 <__udivmoddi4+0x10c>
 8001124:	193c      	adds	r4, r7, r4
 8001126:	f100 33ff 	add.w	r3, r0, #4294967295	; 0xffffffff
 800112a:	d202      	bcs.n	8001132 <__udivmoddi4+0x10a>
 800112c:	45a0      	cmp	r8, r4
 800112e:	f200 80d7 	bhi.w	80012e0 <__udivmoddi4+0x2b8>
 8001132:	4618      	mov	r0, r3
 8001134:	eba4 0408 	sub.w	r4, r4, r8
 8001138:	ea40 400c 	orr.w	r0, r0, ip, lsl #16
 800113c:	e7c0      	b.n	80010c0 <__udivmoddi4+0x98>
 800113e:	428b      	cmp	r3, r1
 8001140:	d908      	bls.n	8001154 <__udivmoddi4+0x12c>
 8001142:	2e00      	cmp	r6, #0
 8001144:	f000 80af 	beq.w	80012a6 <__udivmoddi4+0x27e>
 8001148:	2100      	movs	r1, #0
 800114a:	e9c6 0500 	strd	r0, r5, [r6]
 800114e:	4608      	mov	r0, r1
 8001150:	e8bd 87f0 	ldmia.w	sp!, {r4, r5, r6, r7, r8, r9, sl, pc}
 8001154:	fab3 f183 	clz	r1, r3
 8001158:	2900      	cmp	r1, #0
 800115a:	d14b      	bne.n	80011f4 <__udivmoddi4+0x1cc>
 800115c:	42ab      	cmp	r3, r5
 800115e:	d302      	bcc.n	8001166 <__udivmoddi4+0x13e>
 8001160:	4282      	cmp	r2, r0
 8001162:	f200 80b7 	bhi.w	80012d4 <__udivmoddi4+0x2ac>
 8001166:	1a84      	subs	r4, r0, r2
 8001168:	eb65 0303 	sbc.w	r3, r5, r3
 800116c:	2001      	movs	r0, #1
 800116e:	469e      	mov	lr, r3
 8001170:	2e00      	cmp	r6, #0
 8001172:	d0aa      	beq.n	80010ca <__udivmoddi4+0xa2>
 8001174:	e9c6 4e00 	strd	r4, lr, [r6]
 8001178:	e7a7      	b.n	80010ca <__udivmoddi4+0xa2>
 800117a:	f1c2 0c20 	rsb	ip, r2, #32
 800117e:	fa01 f302 	lsl.w	r3, r1, r2
 8001182:	4097      	lsls	r7, r2
 8001184:	fa20 f00c 	lsr.w	r0, r0, ip
 8001188:	ea4f 4e17 	mov.w	lr, r7, lsr #16
 800118c:	fa21 fc0c 	lsr.w	ip, r1, ip
 8001190:	4318      	orrs	r0, r3
 8001192:	fbbc f1fe 	udiv	r1, ip, lr
 8001196:	0c05      	lsrs	r5, r0, #16
 8001198:	fb0e cc11 	mls	ip, lr, r1, ip
 800119c:	fa1f f887 	uxth.w	r8, r7
 80011a0:	ea45 450c 	orr.w	r5, r5, ip, lsl #16
 80011a4:	fb01 f308 	mul.w	r3, r1, r8
 80011a8:	42ab      	cmp	r3, r5
 80011aa:	fa04 f402 	lsl.w	r4, r4, r2
 80011ae:	d909      	bls.n	80011c4 <__udivmoddi4+0x19c>
 80011b0:	197d      	adds	r5, r7, r5
 80011b2:	f101 3cff 	add.w	ip, r1, #4294967295	; 0xffffffff
 80011b6:	f080 808b 	bcs.w	80012d0 <__udivmoddi4+0x2a8>
 80011ba:	42ab      	cmp	r3, r5
 80011bc:	f240 8088 	bls.w	80012d0 <__udivmoddi4+0x2a8>
 80011c0:	3902      	subs	r1, #2
 80011c2:	443d      	add	r5, r7
 80011c4:	1aeb      	subs	r3, r5, r3
 80011c6:	b285      	uxth	r5, r0
 80011c8:	fbb3 f0fe 	udiv	r0, r3, lr
 80011cc:	fb0e 3310 	mls	r3, lr, r0, r3
 80011d0:	ea45 4503 	orr.w	r5, r5, r3, lsl #16
 80011d4:	fb00 f308 	mul.w	r3, r0, r8
 80011d8:	42ab      	cmp	r3, r5
 80011da:	d907      	bls.n	80011ec <__udivmoddi4+0x1c4>
 80011dc:	197d      	adds	r5, r7, r5
 80011de:	f100 3cff 	add.w	ip, r0, #4294967295	; 0xffffffff
 80011e2:	d271      	bcs.n	80012c8 <__udivmoddi4+0x2a0>
 80011e4:	42ab      	cmp	r3, r5
 80011e6:	d96f      	bls.n	80012c8 <__udivmoddi4+0x2a0>
 80011e8:	3802      	subs	r0, #2
 80011ea:	443d      	add	r5, r7
 80011ec:	1aeb      	subs	r3, r5, r3
 80011ee:	ea40 4101 	orr.w	r1, r0, r1, lsl #16
 80011f2:	e778      	b.n	80010e6 <__udivmoddi4+0xbe>
 80011f4:	f1c1 0c20 	rsb	ip, r1, #32
 80011f8:	408b      	lsls	r3, r1
 80011fa:	fa22 f70c 	lsr.w	r7, r2, ip
 80011fe:	431f      	orrs	r7, r3
 8001200:	fa20 f40c 	lsr.w	r4, r0, ip
 8001204:	fa05 f301 	lsl.w	r3, r5, r1
 8001208:	ea4f 4e17 	mov.w	lr, r7, lsr #16
 800120c:	fa25 f50c 	lsr.w	r5, r5, ip
 8001210:	431c      	orrs	r4, r3
 8001212:	0c23      	lsrs	r3, r4, #16
 8001214:	fbb5 f9fe 	udiv	r9, r5, lr
 8001218:	fa1f f887 	uxth.w	r8, r7
 800121c:	fb0e 5519 	mls	r5, lr, r9, r5
 8001220:	ea43 4505 	orr.w	r5, r3, r5, lsl #16
 8001224:	fb09 fa08 	mul.w	sl, r9, r8
 8001228:	45aa      	cmp	sl, r5
 800122a:	fa02 f201 	lsl.w	r2, r2, r1
 800122e:	fa00 f301 	lsl.w	r3, r0, r1
 8001232:	d908      	bls.n	8001246 <__udivmoddi4+0x21e>
 8001234:	197d      	adds	r5, r7, r5
 8001236:	f109 30ff 	add.w	r0, r9, #4294967295	; 0xffffffff
 800123a:	d247      	bcs.n	80012cc <__udivmoddi4+0x2a4>
 800123c:	45aa      	cmp	sl, r5
 800123e:	d945      	bls.n	80012cc <__udivmoddi4+0x2a4>
 8001240:	f1a9 0902 	sub.w	r9, r9, #2
 8001244:	443d      	add	r5, r7
 8001246:	eba5 050a 	sub.w	r5, r5, sl
 800124a:	b2a4      	uxth	r4, r4
 800124c:	fbb5 f0fe 	udiv	r0, r5, lr
 8001250:	fb0e 5510 	mls	r5, lr, r0, r5
 8001254:	ea44 4405 	orr.w	r4, r4, r5, lsl #16
 8001258:	fb00 f808 	mul.w	r8, r0, r8
 800125c:	45a0      	cmp	r8, r4
 800125e:	d907      	bls.n	8001270 <__udivmoddi4+0x248>
 8001260:	193c      	adds	r4, r7, r4
 8001262:	f100 35ff 	add.w	r5, r0, #4294967295	; 0xffffffff
 8001266:	d22d      	bcs.n	80012c4 <__udivmoddi4+0x29c>
 8001268:	45a0      	cmp	r8, r4
 800126a:	d92b      	bls.n	80012c4 <__udivmoddi4+0x29c>
 800126c:	3802      	subs	r0, #2
 800126e:	443c      	add	r4, r7
 8001270:	ea40 4009 	orr.w	r0, r0, r9, lsl #16
 8001274:	eba4 0408 	sub.w	r4, r4, r8
 8001278:	fba0 8902 	umull	r8, r9, r0, r2
 800127c:	454c      	cmp	r4, r9
 800127e:	46c6      	mov	lr, r8
 8001280:	464d      	mov	r5, r9
 8001282:	d319      	bcc.n	80012b8 <__udivmoddi4+0x290>
 8001284:	d016      	beq.n	80012b4 <__udivmoddi4+0x28c>
 8001286:	b15e      	cbz	r6, 80012a0 <__udivmoddi4+0x278>
 8001288:	ebb3 020e 	subs.w	r2, r3, lr
 800128c:	eb64 0405 	sbc.w	r4, r4, r5
 8001290:	fa04 fc0c 	lsl.w	ip, r4, ip
 8001294:	40ca      	lsrs	r2, r1
 8001296:	ea4c 0202 	orr.w	r2, ip, r2
 800129a:	40cc      	lsrs	r4, r1
 800129c:	e9c6 2400 	strd	r2, r4, [r6]
 80012a0:	2100      	movs	r1, #0
 80012a2:	e8bd 87f0 	ldmia.w	sp!, {r4, r5, r6, r7, r8, r9, sl, pc}
 80012a6:	4631      	mov	r1, r6
 80012a8:	4630      	mov	r0, r6
 80012aa:	e70e      	b.n	80010ca <__udivmoddi4+0xa2>
 80012ac:	46ac      	mov	ip, r5
 80012ae:	e6ed      	b.n	800108c <__udivmoddi4+0x64>
 80012b0:	4618      	mov	r0, r3
 80012b2:	e701      	b.n	80010b8 <__udivmoddi4+0x90>
 80012b4:	4543      	cmp	r3, r8
 80012b6:	d2e6      	bcs.n	8001286 <__udivmoddi4+0x25e>
 80012b8:	ebb8 0e02 	subs.w	lr, r8, r2
 80012bc:	eb69 0507 	sbc.w	r5, r9, r7
 80012c0:	3801      	subs	r0, #1
 80012c2:	e7e0      	b.n	8001286 <__udivmoddi4+0x25e>
 80012c4:	4628      	mov	r0, r5
 80012c6:	e7d3      	b.n	8001270 <__udivmoddi4+0x248>
 80012c8:	4660      	mov	r0, ip
 80012ca:	e78f      	b.n	80011ec <__udivmoddi4+0x1c4>
 80012cc:	4681      	mov	r9, r0
 80012ce:	e7ba      	b.n	8001246 <__udivmoddi4+0x21e>
 80012d0:	4661      	mov	r1, ip
 80012d2:	e777      	b.n	80011c4 <__udivmoddi4+0x19c>
 80012d4:	4608      	mov	r0, r1
 80012d6:	e74b      	b.n	8001170 <__udivmoddi4+0x148>
 80012d8:	f1ac 0c02 	sub.w	ip, ip, #2
 80012dc:	443d      	add	r5, r7
 80012de:	e715      	b.n	800110c <__udivmoddi4+0xe4>
 80012e0:	3802      	subs	r0, #2
 80012e2:	443c      	add	r4, r7
 80012e4:	e726      	b.n	8001134 <__udivmoddi4+0x10c>
 80012e6:	bf00      	nop

080012e8 <__aeabi_idiv0>:
 80012e8:	4770      	bx	lr
 80012ea:	bf00      	nop
 80012ec:	0000      	movs	r0, r0
	...

080012f0 <sdObjectInit.constprop.0>:
 * @init
 */
#if !defined(SERIAL_ADVANCED_BUFFERING_SUPPORT) ||                          \
    (SERIAL_ADVANCED_BUFFERING_SUPPORT == FALSE) ||                         \
    defined(__DOXYGEN__)
void sdObjectInit(SerialDriver *sdp, qnotify_t inotify, qnotify_t onotify) {
 80012f0:	b4f0      	push	{r4, r5, r6, r7}

  sdp->vmt = &vmt;
 80012f2:	4603      	mov	r3, r0
 80012f4:	4a13      	ldr	r2, [pc, #76]	; (8001344 <sdObjectInit.constprop.0+0x54>)
 80012f6:	f843 2b04 	str.w	r2, [r3], #4
  osalEventObjectInit(&sdp->event);
  sdp->state = SD_STOP;
 80012fa:	2201      	movs	r2, #1
 */
void iqObjectInit(input_queue_t *iqp, uint8_t *bp, size_t size,
                  qnotify_t infy, void *link) {

  osalThreadQueueObjectInit(&iqp->q_waiting);
  iqp->q_counter = 0;
 80012fc:	2500      	movs	r5, #0
 */
void oqObjectInit(output_queue_t *oqp, uint8_t *bp, size_t size,
                  qnotify_t onfy, void *link) {

  osalThreadQueueObjectInit(&oqp->q_waiting);
  oqp->q_counter = size;
 80012fe:	f44f 7780 	mov.w	r7, #256	; 0x100
  oqp->q_buffer  = bp;
  oqp->q_rdptr   = bp;
  oqp->q_wrptr   = bp;
  oqp->q_top     = bp + size;
 8001302:	f500 7615 	add.w	r6, r0, #596	; 0x254
  iqObjectInit(&sdp->iqueue, sdp->ib, SERIAL_BUFFERS_SIZE, inotify, sdp);
 8001306:	f100 040c 	add.w	r4, r0, #12
 *
 * @init
 */
static inline void chEvtObjectInit(event_source_t *esp) {

  esp->next = (event_listener_t *)esp;
 800130a:	6043      	str	r3, [r0, #4]
  oqp->q_notify  = onfy;
 800130c:	64c1      	str	r1, [r0, #76]	; 0x4c
  iqp->q_top     = bp + size;
 800130e:	f500 73aa 	add.w	r3, r0, #340	; 0x154
  sdp->state = SD_STOP;
 8001312:	7202      	strb	r2, [r0, #8]
  oqObjectInit(&sdp->oqueue, sdp->ob, SERIAL_BUFFERS_SIZE, onotify, sdp);
 8001314:	f100 0130 	add.w	r1, r0, #48	; 0x30
  iqObjectInit(&sdp->iqueue, sdp->ib, SERIAL_BUFFERS_SIZE, inotify, sdp);
 8001318:	f100 0254 	add.w	r2, r0, #84	; 0x54
  iqp->q_counter = 0;
 800131c:	6145      	str	r5, [r0, #20]
 * @notapi
 */
static inline void queue_init(threads_queue_t *tqp) {

  tqp->next = (thread_t *)tqp;
  tqp->prev = (thread_t *)tqp;
 800131e:	e9c0 4403 	strd	r4, r4, [r0, #12]
  iqp->q_notify  = infy;
 8001322:	6285      	str	r5, [r0, #40]	; 0x28
  oqp->q_counter = size;
 8001324:	6387      	str	r7, [r0, #56]	; 0x38
  oqp->q_top     = bp + size;
 8001326:	6406      	str	r6, [r0, #64]	; 0x40
  iqp->q_wrptr   = bp;
 8001328:	e9c0 2208 	strd	r2, r2, [r0, #32]
}
 800132c:	bcf0      	pop	{r4, r5, r6, r7}
  oqp->q_wrptr   = bp;
 800132e:	e9c0 3311 	strd	r3, r3, [r0, #68]	; 0x44
 8001332:	e9c0 110c 	strd	r1, r1, [r0, #48]	; 0x30
  iqp->q_link    = link;
 8001336:	62c0      	str	r0, [r0, #44]	; 0x2c
  oqp->q_link    = link;
 8001338:	6500      	str	r0, [r0, #80]	; 0x50
  iqp->q_buffer  = bp;
 800133a:	6182      	str	r2, [r0, #24]
  iqp->q_top     = bp + size;
 800133c:	61c3      	str	r3, [r0, #28]
  oqp->q_buffer  = bp;
 800133e:	63c3      	str	r3, [r0, #60]	; 0x3c
 8001340:	4770      	bx	lr
 8001342:	bf00      	nop
 8001344:	08006c5c 	.word	0x08006c5c
	...

08001350 <icu_lld_enable_notifications.constprop.0>:
 * @param[in] icup      pointer to the @p ICUDriver object
 *
 * @notapi
 */
void icu_lld_enable_notifications(ICUDriver *icup) {
  uint32_t dier = icup->tim->DIER;
 8001350:	490e      	ldr	r1, [pc, #56]	; (800138c <icu_lld_enable_notifications.constprop.0+0x3c>)
 8001352:	68ca      	ldr	r2, [r1, #12]
 8001354:	68d3      	ldr	r3, [r2, #12]

  /* If interrupts were already enabled then the operation is skipped.
     This is done in order to avoid clearing the SR and risk losing
     pending interrupts.*/
  if ((dier & STM32_TIM_DIER_IRQ_MASK) == 0) {
 8001356:	f013 00ff 	ands.w	r0, r3, #255	; 0xff
 800135a:	d10c      	bne.n	8001376 <icu_lld_enable_notifications.constprop.0+0x26>
    /* Previously triggered IRQs are ignored, status cleared.*/
    icup->tim->SR = 0;

    if (icup->config->channel == ICU_CHANNEL_1) {
 800135c:	6849      	ldr	r1, [r1, #4]
    icup->tim->SR = 0;
 800135e:	6110      	str	r0, [r2, #16]
    if (icup->config->channel == ICU_CHANNEL_1) {
 8001360:	7d08      	ldrb	r0, [r1, #20]
 8001362:	b948      	cbnz	r0, 8001378 <icu_lld_enable_notifications.constprop.0+0x28>
      /* Enabling periodic callback on CC1.*/
      dier |= STM32_TIM_DIER_CC1IE;

      /* Optionally enabling width callback on CC2.*/
      if (icup->config->width_cb != NULL)
 8001364:	6888      	ldr	r0, [r1, #8]
 8001366:	b168      	cbz	r0, 8001384 <icu_lld_enable_notifications.constprop.0+0x34>
      /* Enabling periodic callback on CC2.*/
      dier |= STM32_TIM_DIER_CC2IE;

      /* Optionally enabling width callback on CC1.*/
      if (icup->config->width_cb != NULL)
        dier |= STM32_TIM_DIER_CC1IE;
 8001368:	f043 0306 	orr.w	r3, r3, #6
    }

    /* If an overflow callback is defined then also the overflow callback
       is enabled.*/
    if (icup->config->overflow_cb != NULL)
 800136c:	6909      	ldr	r1, [r1, #16]
 800136e:	b109      	cbz	r1, 8001374 <icu_lld_enable_notifications.constprop.0+0x24>
      dier |= STM32_TIM_DIER_UIE;
 8001370:	f043 0301 	orr.w	r3, r3, #1

    /* One single atomic write.*/
    icup->tim->DIER = dier;
 8001374:	60d3      	str	r3, [r2, #12]
  }
}
 8001376:	4770      	bx	lr
      if (icup->config->width_cb != NULL)
 8001378:	6888      	ldr	r0, [r1, #8]
 800137a:	2800      	cmp	r0, #0
 800137c:	d1f4      	bne.n	8001368 <icu_lld_enable_notifications.constprop.0+0x18>
      dier |= STM32_TIM_DIER_CC2IE;
 800137e:	f043 0304 	orr.w	r3, r3, #4
 8001382:	e7f3      	b.n	800136c <icu_lld_enable_notifications.constprop.0+0x1c>
      dier |= STM32_TIM_DIER_CC1IE;
 8001384:	f043 0302 	orr.w	r3, r3, #2
 8001388:	e7f0      	b.n	800136c <icu_lld_enable_notifications.constprop.0+0x1c>
 800138a:	bf00      	nop
 800138c:	20000c80 	.word	0x20000c80

08001390 <sdStart.constprop.0>:
 *                      If this parameter is set to @p NULL then a default
 *                      configuration is used.
 *
 * @api
 */
void sdStart(SerialDriver *sdp, const SerialConfig *config) {
 8001390:	b430      	push	{r4, r5}
  \details Assigns the given value to the Base Priority register.
  \param [in]    basePri  Base Priority value to set
 */
__STATIC_FORCEINLINE void __set_BASEPRI(uint32_t basePri)
{
  __ASM volatile ("MSR basepri, %0" : : "r" (basePri) : "memory");
 8001392:	2320      	movs	r3, #32
 8001394:	f383 8811 	msr	BASEPRI, r3
void sd_lld_start(SerialDriver *sdp, const SerialConfig *config) {

  if (config == NULL)
    config = &default_config;

  if (sdp->state == SD_STOP) {
 8001398:	7a02      	ldrb	r2, [r0, #8]
 800139a:	2a01      	cmp	r2, #1
 800139c:	d045      	beq.n	800142a <sdStart.constprop.0+0x9a>
  USART_TypeDef *u = sdp->usart;
 800139e:	f8d0 3254 	ldr.w	r3, [r0, #596]	; 0x254
  if ((sdp->usart == USART1) || (sdp->usart == USART6))
 80013a2:	4a42      	ldr	r2, [pc, #264]	; (80014ac <sdStart.constprop.0+0x11c>)
    fck = STM32_PCLK2 / config->speed;
 80013a4:	4942      	ldr	r1, [pc, #264]	; (80014b0 <sdStart.constprop.0+0x120>)
  if ((sdp->usart == USART1) || (sdp->usart == USART6))
 80013a6:	4293      	cmp	r3, r2
 80013a8:	d02f      	beq.n	800140a <sdStart.constprop.0+0x7a>
 80013aa:	f502 6280 	add.w	r2, r2, #1024	; 0x400
 80013ae:	4293      	cmp	r3, r2
 80013b0:	d02b      	beq.n	800140a <sdStart.constprop.0+0x7a>
  if (config->cr1 & USART_CR1_OVER8)
 80013b2:	f9b1 5004 	ldrsh.w	r5, [r1, #4]
    fck = STM32_PCLK1 / config->speed;
 80013b6:	680c      	ldr	r4, [r1, #0]
 80013b8:	4a3e      	ldr	r2, [pc, #248]	; (80014b4 <sdStart.constprop.0+0x124>)
 80013ba:	fbb2 f2f4 	udiv	r2, r2, r4
  if (config->cr1 & USART_CR1_OVER8)
 80013be:	2d00      	cmp	r5, #0
 80013c0:	888c      	ldrh	r4, [r1, #4]
 80013c2:	db2b      	blt.n	800141c <sdStart.constprop.0+0x8c>
  u->CR2 = config->cr2 | USART_CR2_LBDIE;
 80013c4:	88cd      	ldrh	r5, [r1, #6]
  u->CR3 = config->cr3 | USART_CR3_EIE;
 80013c6:	8909      	ldrh	r1, [r1, #8]
  u->BRR = fck;
 80013c8:	609a      	str	r2, [r3, #8]
                         USART_CR1_RXNEIE | USART_CR1_TE |
 80013ca:	f444 5204 	orr.w	r2, r4, #8448	; 0x2100
  if ((config->cr1 & (USART_CR1_M | USART_CR1_PCE)) == USART_CR1_PCE) {
 80013ce:	f404 54a0 	and.w	r4, r4, #5120	; 0x1400
  u->CR3 = config->cr3 | USART_CR3_EIE;
 80013d2:	f041 0101 	orr.w	r1, r1, #1
    sdp->rxmask = 0xFF;
 80013d6:	f5b4 6f80 	cmp.w	r4, #1024	; 0x400
  u->CR2 = config->cr2 | USART_CR2_LBDIE;
 80013da:	f045 0540 	orr.w	r5, r5, #64	; 0x40
                         USART_CR1_RXNEIE | USART_CR1_TE |
 80013de:	f042 022c 	orr.w	r2, r2, #44	; 0x2c
  u->SR = 0;
 80013e2:	f04f 0400 	mov.w	r4, #0
  u->CR2 = config->cr2 | USART_CR2_LBDIE;
 80013e6:	611d      	str	r5, [r3, #16]
  u->CR3 = config->cr3 | USART_CR3_EIE;
 80013e8:	6159      	str	r1, [r3, #20]
  u->CR1 = config->cr1 | USART_CR1_UE | USART_CR1_PEIE |
 80013ea:	60da      	str	r2, [r3, #12]
    sdp->rxmask = 0xFF;
 80013ec:	bf08      	it	eq
 80013ee:	217f      	moveq	r1, #127	; 0x7f
  u->SR = 0;
 80013f0:	601c      	str	r4, [r3, #0]
    sdp->rxmask = 0xFF;
 80013f2:	bf18      	it	ne
 80013f4:	21ff      	movne	r1, #255	; 0xff

  osalSysLock();
  osalDbgAssert((sdp->state == SD_STOP) || (sdp->state == SD_READY),
                "invalid state");
  sd_lld_start(sdp, config);
  sdp->state = SD_READY;
 80013f6:	2202      	movs	r2, #2
  (void)u->SR;  /* SR reset step 1.*/
 80013f8:	681d      	ldr	r5, [r3, #0]
  (void)u->DR;  /* SR reset step 2.*/
 80013fa:	685b      	ldr	r3, [r3, #4]
 80013fc:	f880 1258 	strb.w	r1, [r0, #600]	; 0x258
 8001400:	7202      	strb	r2, [r0, #8]
 8001402:	f384 8811 	msr	BASEPRI, r4
  osalSysUnlock();
}
 8001406:	bc30      	pop	{r4, r5}
 8001408:	4770      	bx	lr
  if (config->cr1 & USART_CR1_OVER8)
 800140a:	f9b1 5004 	ldrsh.w	r5, [r1, #4]
    fck = STM32_PCLK2 / config->speed;
 800140e:	680c      	ldr	r4, [r1, #0]
 8001410:	4a29      	ldr	r2, [pc, #164]	; (80014b8 <sdStart.constprop.0+0x128>)
 8001412:	fbb2 f2f4 	udiv	r2, r2, r4
  if (config->cr1 & USART_CR1_OVER8)
 8001416:	2d00      	cmp	r5, #0
 8001418:	888c      	ldrh	r4, [r1, #4]
 800141a:	dad3      	bge.n	80013c4 <sdStart.constprop.0+0x34>
    fck = ((fck & ~7) * 2) | (fck & 7);
 800141c:	f022 0507 	bic.w	r5, r2, #7
 8001420:	f002 0207 	and.w	r2, r2, #7
 8001424:	ea42 0245 	orr.w	r2, r2, r5, lsl #1
 8001428:	e7cc      	b.n	80013c4 <sdStart.constprop.0+0x34>
#if STM32_SERIAL_USE_USART1
    if (&SD1 == sdp) {
 800142a:	4a24      	ldr	r2, [pc, #144]	; (80014bc <sdStart.constprop.0+0x12c>)
 800142c:	4290      	cmp	r0, r2
 800142e:	d02b      	beq.n	8001488 <sdStart.constprop.0+0xf8>
      rccEnableUSART1(true);
      nvicEnableVector(STM32_USART1_NUMBER, STM32_SERIAL_USART1_PRIORITY);
    }
#endif
#if STM32_SERIAL_USE_USART2
    if (&SD2 == sdp) {
 8001430:	4b23      	ldr	r3, [pc, #140]	; (80014c0 <sdStart.constprop.0+0x130>)
 8001432:	4298      	cmp	r0, r3
 8001434:	d015      	beq.n	8001462 <sdStart.constprop.0+0xd2>
      rccEnableUART5(true);
      nvicEnableVector(STM32_UART5_NUMBER, STM32_SERIAL_UART5_PRIORITY);
    }
#endif
#if STM32_SERIAL_USE_USART6
    if (&SD6 == sdp) {
 8001436:	4b23      	ldr	r3, [pc, #140]	; (80014c4 <sdStart.constprop.0+0x134>)
 8001438:	4298      	cmp	r0, r3
 800143a:	d1b0      	bne.n	800139e <sdStart.constprop.0+0xe>
      rccEnableUSART6(true);
 800143c:	4b22      	ldr	r3, [pc, #136]	; (80014c8 <sdStart.constprop.0+0x138>)

#if defined(__CORE_CM0_H_GENERIC) || defined(__CORE_CM23_H_GENERIC)
  NVIC->__IPR[_IP_IDX(n)] = (NVIC->__IPR[_IP_IDX(n)] & ~(0xFFU << _BIT_SHIFT(n))) |
                            (NVIC_PRIORITY_MASK(prio) << _BIT_SHIFT(n));
#else
  NVIC->__IPR[n] = NVIC_PRIORITY_MASK(prio);
 800143e:	4a23      	ldr	r2, [pc, #140]	; (80014cc <sdStart.constprop.0+0x13c>)
 8001440:	6c59      	ldr	r1, [r3, #68]	; 0x44
 8001442:	f041 0120 	orr.w	r1, r1, #32
 8001446:	6459      	str	r1, [r3, #68]	; 0x44
 8001448:	6e59      	ldr	r1, [r3, #100]	; 0x64
 800144a:	f041 0120 	orr.w	r1, r1, #32
 800144e:	6659      	str	r1, [r3, #100]	; 0x64
 8001450:	24c0      	movs	r4, #192	; 0xc0
#endif
  NVIC->__ICPR[n >> 5U] = 1U << (n & 0x1FU);
 8001452:	2180      	movs	r1, #128	; 0x80
 8001454:	6e5b      	ldr	r3, [r3, #100]	; 0x64
  NVIC->__IPR[n] = NVIC_PRIORITY_MASK(prio);
 8001456:	f882 4347 	strb.w	r4, [r2, #839]	; 0x347
  NVIC->__ICPR[n >> 5U] = 1U << (n & 0x1FU);
 800145a:	f8c2 1188 	str.w	r1, [r2, #392]	; 0x188
  NVIC->__ISER[n >> 5U] = 1U << (n & 0x1FU);
 800145e:	6091      	str	r1, [r2, #8]
 8001460:	e79d      	b.n	800139e <sdStart.constprop.0+0xe>
      rccEnableUSART2(true);
 8001462:	4b19      	ldr	r3, [pc, #100]	; (80014c8 <sdStart.constprop.0+0x138>)
  NVIC->__IPR[n] = NVIC_PRIORITY_MASK(prio);
 8001464:	4a19      	ldr	r2, [pc, #100]	; (80014cc <sdStart.constprop.0+0x13c>)
 8001466:	6c19      	ldr	r1, [r3, #64]	; 0x40
 8001468:	f441 3100 	orr.w	r1, r1, #131072	; 0x20000
 800146c:	6419      	str	r1, [r3, #64]	; 0x40
 800146e:	6e19      	ldr	r1, [r3, #96]	; 0x60
 8001470:	f441 3100 	orr.w	r1, r1, #131072	; 0x20000
 8001474:	6619      	str	r1, [r3, #96]	; 0x60
 8001476:	24c0      	movs	r4, #192	; 0xc0
  NVIC->__ICPR[n >> 5U] = 1U << (n & 0x1FU);
 8001478:	2140      	movs	r1, #64	; 0x40
 800147a:	6e1b      	ldr	r3, [r3, #96]	; 0x60
  NVIC->__IPR[n] = NVIC_PRIORITY_MASK(prio);
 800147c:	f882 4326 	strb.w	r4, [r2, #806]	; 0x326
  NVIC->__ICPR[n >> 5U] = 1U << (n & 0x1FU);
 8001480:	f8c2 1184 	str.w	r1, [r2, #388]	; 0x184
  NVIC->__ISER[n >> 5U] = 1U << (n & 0x1FU);
 8001484:	6051      	str	r1, [r2, #4]
 8001486:	e78a      	b.n	800139e <sdStart.constprop.0+0xe>
      rccEnableUSART1(true);
 8001488:	4a0f      	ldr	r2, [pc, #60]	; (80014c8 <sdStart.constprop.0+0x138>)
  NVIC->__IPR[n] = NVIC_PRIORITY_MASK(prio);
 800148a:	4910      	ldr	r1, [pc, #64]	; (80014cc <sdStart.constprop.0+0x13c>)
 800148c:	6c54      	ldr	r4, [r2, #68]	; 0x44
 800148e:	f044 0410 	orr.w	r4, r4, #16
 8001492:	6454      	str	r4, [r2, #68]	; 0x44
 8001494:	6e54      	ldr	r4, [r2, #100]	; 0x64
 8001496:	f044 0410 	orr.w	r4, r4, #16
 800149a:	6654      	str	r4, [r2, #100]	; 0x64
 800149c:	24c0      	movs	r4, #192	; 0xc0
 800149e:	6e52      	ldr	r2, [r2, #100]	; 0x64
 80014a0:	f881 4325 	strb.w	r4, [r1, #805]	; 0x325
  NVIC->__ICPR[n >> 5U] = 1U << (n & 0x1FU);
 80014a4:	f8c1 3184 	str.w	r3, [r1, #388]	; 0x184
  NVIC->__ISER[n >> 5U] = 1U << (n & 0x1FU);
 80014a8:	604b      	str	r3, [r1, #4]
 80014aa:	e778      	b.n	800139e <sdStart.constprop.0+0xe>
 80014ac:	40011000 	.word	0x40011000
 80014b0:	2000082c 	.word	0x2000082c
 80014b4:	0280de80 	.word	0x0280de80
 80014b8:	0501bd00 	.word	0x0501bd00
 80014bc:	20000c98 	.word	0x20000c98
 80014c0:	20000ef4 	.word	0x20000ef4
 80014c4:	20001150 	.word	0x20001150
 80014c8:	40023800 	.word	0x40023800
 80014cc:	e000e100 	.word	0xe000e100

080014d0 <otg_txfifo_handler.constprop.0>:
  /* The TXFIFO is filled until there is space and data to be transmitted.*/
  while (true) {
    uint32_t n;

    /* Transaction end condition.*/
    if (usbp->epc[ep]->in_state->txcnt >= usbp->epc[ep]->in_state->txsize) {
 80014d0:	4a22      	ldr	r2, [pc, #136]	; (800155c <otg_txfifo_handler.constprop.0+0x8c>)
 80014d2:	eb02 0380 	add.w	r3, r2, r0, lsl #2
static bool otg_txfifo_handler(USBDriver *usbp, usbep_t ep) {
 80014d6:	e92d 43f0 	stmdb	sp!, {r4, r5, r6, r7, r8, r9, lr}
    if (usbp->epc[ep]->in_state->txcnt >= usbp->epc[ep]->in_state->txsize) {
 80014da:	68d9      	ldr	r1, [r3, #12]
 80014dc:	f8d2 9054 	ldr.w	r9, [r2, #84]	; 0x54
static bool otg_txfifo_handler(USBDriver *usbp, usbep_t ep) {
 80014e0:	4680      	mov	r8, r0
    if (usbp->epc[ep]->in_state->txcnt >= usbp->epc[ep]->in_state->txsize) {
 80014e2:	6948      	ldr	r0, [r1, #20]
 80014e4:	e9d0 3700 	ldrd	r3, r7, [r0]
 80014e8:	42bb      	cmp	r3, r7
 80014ea:	d928      	bls.n	800153e <otg_txfifo_handler.constprop.0+0x6e>
      return false;

#if STM32_USB_OTGFIFO_FILL_BASEPRI
    __set_BASEPRI(CORTEX_PRIO_MASK(STM32_USB_OTGFIFO_FILL_BASEPRI));
#endif
    otg_fifo_write_from_buffer(usbp->otg->FIFO[ep],
 80014ec:	f108 0401 	add.w	r4, r8, #1
    if (n > usbp->epc[ep]->in_maxsize)
 80014f0:	f8b1 e010 	ldrh.w	lr, [r1, #16]
    otg_fifo_write_from_buffer(usbp->otg->FIFO[ep],
 80014f4:	eb09 3404 	add.w	r4, r9, r4, lsl #12
    if (((usbp->otg->ie[ep].DTXFSTS & DTXFSTS_INEPTFSAV_MASK) * 4) < n)
 80014f8:	eb09 1c48 	add.w	ip, r9, r8, lsl #5
    n = usbp->epc[ep]->in_state->txsize - usbp->epc[ep]->in_state->txcnt;
 80014fc:	1bde      	subs	r6, r3, r7
    if (((usbp->otg->ie[ep].DTXFSTS & DTXFSTS_INEPTFSAV_MASK) * 4) < n)
 80014fe:	f8dc 2918 	ldr.w	r2, [ip, #2328]	; 0x918
 8001502:	4576      	cmp	r6, lr
 8001504:	bf28      	it	cs
 8001506:	4676      	movcs	r6, lr
 8001508:	b293      	uxth	r3, r2
 800150a:	ebb6 0f83 	cmp.w	r6, r3, lsl #2
 800150e:	d821      	bhi.n	8001554 <otg_txfifo_handler.constprop.0+0x84>
    otg_fifo_write_from_buffer(usbp->otg->FIFO[ep],
 8001510:	6885      	ldr	r5, [r0, #8]
    if (n <= 4) {
 8001512:	2e04      	cmp	r6, #4
    *fifop = *((uint32_t *)buf);
 8001514:	682b      	ldr	r3, [r5, #0]
 8001516:	6023      	str	r3, [r4, #0]
    if (n <= 4) {
 8001518:	d90a      	bls.n	8001530 <otg_txfifo_handler.constprop.0+0x60>
 800151a:	1f71      	subs	r1, r6, #5
 800151c:	f021 0103 	bic.w	r1, r1, #3
 8001520:	3104      	adds	r1, #4
 8001522:	4429      	add	r1, r5
 8001524:	462b      	mov	r3, r5
    *fifop = *((uint32_t *)buf);
 8001526:	f853 2f04 	ldr.w	r2, [r3, #4]!
 800152a:	6022      	str	r2, [r4, #0]
    if (n <= 4) {
 800152c:	4299      	cmp	r1, r3
 800152e:	d1fa      	bne.n	8001526 <otg_txfifo_handler.constprop.0+0x56>
    if (usbp->epc[ep]->in_state->txcnt >= usbp->epc[ep]->in_state->txsize) {
 8001530:	6803      	ldr	r3, [r0, #0]
                               usbp->epc[ep]->in_state->txbuf,
                               n);
    usbp->epc[ep]->in_state->txbuf += n;
    usbp->epc[ep]->in_state->txcnt += n;
 8001532:	4437      	add	r7, r6
    usbp->epc[ep]->in_state->txbuf += n;
 8001534:	4435      	add	r5, r6
    if (usbp->epc[ep]->in_state->txcnt >= usbp->epc[ep]->in_state->txsize) {
 8001536:	42bb      	cmp	r3, r7
    usbp->epc[ep]->in_state->txcnt += n;
 8001538:	e9c0 7501 	strd	r7, r5, [r0, #4]
    if (usbp->epc[ep]->in_state->txcnt >= usbp->epc[ep]->in_state->txsize) {
 800153c:	d8de      	bhi.n	80014fc <otg_txfifo_handler.constprop.0+0x2c>
      usbp->otg->DIEPEMPMSK &= ~DIEPEMPMSK_INEPTXFEM(ep);
 800153e:	f8d9 3834 	ldr.w	r3, [r9, #2100]	; 0x834
 8001542:	2001      	movs	r0, #1
 8001544:	fa00 f808 	lsl.w	r8, r0, r8
 8001548:	ea23 0308 	bic.w	r3, r3, r8
 800154c:	f8c9 3834 	str.w	r3, [r9, #2100]	; 0x834
#if STM32_USB_OTGFIFO_FILL_BASEPRI
  __set_BASEPRI(0);
#endif
  }
}
 8001550:	e8bd 83f0 	ldmia.w	sp!, {r4, r5, r6, r7, r8, r9, pc}
      return false;
 8001554:	2000      	movs	r0, #0
}
 8001556:	e8bd 83f0 	ldmia.w	sp!, {r4, r5, r6, r7, r8, r9, pc}
 800155a:	bf00      	nop
 800155c:	2000183c 	.word	0x2000183c

08001560 <chCoreAllocFromTop>:
 * @return              A pointer to the allocated memory block.
 * @retval NULL         allocation failed, core memory exhausted.
 *
 * @api
 */
void *chCoreAllocFromTop(size_t size, unsigned align, size_t offset) {
 8001560:	b430      	push	{r4, r5}
 8001562:	2320      	movs	r3, #32
 8001564:	f383 8811 	msr	BASEPRI, r3
  p = (uint8_t *)MEM_ALIGN_PREV(ch_memcore.topmem - size, align);
 8001568:	4c0b      	ldr	r4, [pc, #44]	; (8001598 <chCoreAllocFromTop+0x38>)
  if ((prev < ch_memcore.basemem) || (prev > ch_memcore.topmem)) {
 800156a:	e9d4 3500 	ldrd	r3, r5, [r4]
  p = (uint8_t *)MEM_ALIGN_PREV(ch_memcore.topmem - size, align);
 800156e:	4249      	negs	r1, r1
 8001570:	1a28      	subs	r0, r5, r0
 8001572:	4008      	ands	r0, r1
  prev = p - offset;
 8001574:	1a82      	subs	r2, r0, r2
  if ((prev < ch_memcore.basemem) || (prev > ch_memcore.topmem)) {
 8001576:	429a      	cmp	r2, r3
 8001578:	d307      	bcc.n	800158a <chCoreAllocFromTop+0x2a>
 800157a:	4295      	cmp	r5, r2
 800157c:	d305      	bcc.n	800158a <chCoreAllocFromTop+0x2a>
  ch_memcore.topmem = prev;
 800157e:	6062      	str	r2, [r4, #4]
 8001580:	2300      	movs	r3, #0
 8001582:	f383 8811 	msr	BASEPRI, r3
  chSysLock();
  p = chCoreAllocFromTopI(size, align, offset);
  chSysUnlock();

  return p;
}
 8001586:	bc30      	pop	{r4, r5}
 8001588:	4770      	bx	lr
    return NULL;
 800158a:	2000      	movs	r0, #0
 800158c:	2300      	movs	r3, #0
 800158e:	f383 8811 	msr	BASEPRI, r3
}
 8001592:	bc30      	pop	{r4, r5}
 8001594:	4770      	bx	lr
 8001596:	bf00      	nop
 8001598:	20001a30 	.word	0x20001a30
 800159c:	00000000 	.word	0x00000000

080015a0 <notify1>:
  USART1->CR1 |= USART_CR1_TXEIE | USART_CR1_TCIE;
 80015a0:	4a02      	ldr	r2, [pc, #8]	; (80015ac <notify1+0xc>)
 80015a2:	68d3      	ldr	r3, [r2, #12]
 80015a4:	f043 03c0 	orr.w	r3, r3, #192	; 0xc0
 80015a8:	60d3      	str	r3, [r2, #12]
}
 80015aa:	4770      	bx	lr
 80015ac:	40011000 	.word	0x40011000

080015b0 <notify2>:
  USART2->CR1 |= USART_CR1_TXEIE | USART_CR1_TCIE;
 80015b0:	4a02      	ldr	r2, [pc, #8]	; (80015bc <notify2+0xc>)
 80015b2:	68d3      	ldr	r3, [r2, #12]
 80015b4:	f043 03c0 	orr.w	r3, r3, #192	; 0xc0
 80015b8:	60d3      	str	r3, [r2, #12]
}
 80015ba:	4770      	bx	lr
 80015bc:	40004400 	.word	0x40004400

080015c0 <notify6>:
  USART6->CR1 |= USART_CR1_TXEIE | USART_CR1_TCIE;
 80015c0:	4a02      	ldr	r2, [pc, #8]	; (80015cc <notify6+0xc>)
 80015c2:	68d3      	ldr	r3, [r2, #12]
 80015c4:	f043 03c0 	orr.w	r3, r3, #192	; 0xc0
 80015c8:	60d3      	str	r3, [r2, #12]
}
 80015ca:	4770      	bx	lr
 80015cc:	40011400 	.word	0x40011400

080015d0 <icuperiodcb1>:
  //  smallest_pulse = last_width1;
}

static void icuperiodcb1(ICUDriver *icup) { // This gets called every rising edge.

  last_period1 = icuGetPeriodX(icup);
 80015d0:	6942      	ldr	r2, [r0, #20]
  palTogglePad(GPIOC, 15);
 80015d2:	4909      	ldr	r1, [pc, #36]	; (80015f8 <icuperiodcb1+0x28>)
  sp_temp = last_period1 - last_width1;
 80015d4:	4b09      	ldr	r3, [pc, #36]	; (80015fc <icuperiodcb1+0x2c>)
  if (sp_temp < smallest_pulse)
 80015d6:	480a      	ldr	r0, [pc, #40]	; (8001600 <icuperiodcb1+0x30>)
static void icuperiodcb1(ICUDriver *icup) { // This gets called every rising edge.
 80015d8:	b410      	push	{r4}
  last_period1 = icuGetPeriodX(icup);
 80015da:	6814      	ldr	r4, [r2, #0]
  palTogglePad(GPIOC, 15);
 80015dc:	694a      	ldr	r2, [r1, #20]
 80015de:	f482 4200 	eor.w	r2, r2, #32768	; 0x8000
 80015e2:	614a      	str	r2, [r1, #20]
  sp_temp = last_period1 - last_width1;
 80015e4:	681b      	ldr	r3, [r3, #0]
  if (sp_temp < smallest_pulse)
 80015e6:	6802      	ldr	r2, [r0, #0]
  sp_temp = last_period1 - last_width1;
 80015e8:	f1c3 0301 	rsb	r3, r3, #1
 80015ec:	4423      	add	r3, r4
  if (sp_temp < smallest_pulse)
 80015ee:	4293      	cmp	r3, r2
    smallest_pulse = sp_temp;
  //if ((last_period1 - last_width1) < smallest_pulse)
  //  smallest_pulse = (last_period1 - last_width1);
}
 80015f0:	bc10      	pop	{r4}
    smallest_pulse = sp_temp;
 80015f2:	bf38      	it	cc
 80015f4:	6003      	strcc	r3, [r0, #0]
}
 80015f6:	4770      	bx	lr
 80015f8:	40020800 	.word	0x40020800
 80015fc:	20001cb8 	.word	0x20001cb8
 8001600:	20000838 	.word	0x20000838
	...

08001610 <icuwidthcb1>:
  last_width1 = icuGetWidthX(icup);
 8001610:	6903      	ldr	r3, [r0, #16]
 8001612:	4905      	ldr	r1, [pc, #20]	; (8001628 <icuwidthcb1+0x18>)
 8001614:	681b      	ldr	r3, [r3, #0]
  palTogglePad(GPIOC, 14);
 8001616:	4a05      	ldr	r2, [pc, #20]	; (800162c <icuwidthcb1+0x1c>)
  last_width1 = icuGetWidthX(icup);
 8001618:	3301      	adds	r3, #1
 800161a:	600b      	str	r3, [r1, #0]
  palTogglePad(GPIOC, 14);
 800161c:	6953      	ldr	r3, [r2, #20]
 800161e:	f483 4380 	eor.w	r3, r3, #16384	; 0x4000
 8001622:	6153      	str	r3, [r2, #20]
}
 8001624:	4770      	bx	lr
 8001626:	bf00      	nop
 8001628:	20001cb8 	.word	0x20001cb8
 800162c:	40020800 	.word	0x40020800

08001630 <requests_hook>:
 * Handling messages not implemented in the default handler nor in the
 * SerialUSB handler.
 */
static bool requests_hook(USBDriver *usbp) {

  if (((usbp->setup[0] & USB_RTYPE_RECIPIENT_MASK) == USB_RTYPE_RECIPIENT_INTERFACE) &&
 8001630:	f890 2044 	ldrb.w	r2, [r0, #68]	; 0x44
static bool requests_hook(USBDriver *usbp) {
 8001634:	4603      	mov	r3, r0
  if (((usbp->setup[0] & USB_RTYPE_RECIPIENT_MASK) == USB_RTYPE_RECIPIENT_INTERFACE) &&
 8001636:	f002 001f 	and.w	r0, r2, #31
 800163a:	2801      	cmp	r0, #1
 800163c:	d103      	bne.n	8001646 <requests_hook+0x16>
 800163e:	f893 1045 	ldrb.w	r1, [r3, #69]	; 0x45
 8001642:	290b      	cmp	r1, #11
 8001644:	d01b      	beq.n	800167e <requests_hook+0x4e>
 * @retval true         Message handled internally.
 * @retval false        Message not handled.
 */
bool sduRequestsHook(USBDriver *usbp) {

  if ((usbp->setup[0] & USB_RTYPE_TYPE_MASK) == USB_RTYPE_TYPE_CLASS) {
 8001646:	f002 0260 	and.w	r2, r2, #96	; 0x60
 800164a:	2a20      	cmp	r2, #32
 800164c:	d001      	beq.n	8001652 <requests_hook+0x22>
      return true;
    default:
      return false;
    }
  }
  return false;
 800164e:	2000      	movs	r0, #0
      (usbp->setup[1] == USB_REQ_SET_INTERFACE)) {
    usbSetupTransfer(usbp, NULL, 0, NULL);
    return true;
  }
  return sduRequestsHook(usbp);
}
 8001650:	4770      	bx	lr
    switch (usbp->setup[1]) {
 8001652:	f893 2045 	ldrb.w	r2, [r3, #69]	; 0x45
 8001656:	2a21      	cmp	r2, #33	; 0x21
 8001658:	d809      	bhi.n	800166e <requests_hook+0x3e>
 800165a:	2a1f      	cmp	r2, #31
 800165c:	d9f7      	bls.n	800164e <requests_hook+0x1e>
      usbSetupTransfer(usbp, (uint8_t *)&linecoding, sizeof(linecoding), NULL);
 800165e:	4a0a      	ldr	r2, [pc, #40]	; (8001688 <requests_hook+0x58>)
 8001660:	639a      	str	r2, [r3, #56]	; 0x38
 8001662:	2107      	movs	r1, #7
 8001664:	2200      	movs	r2, #0
 8001666:	e9c3 120f 	strd	r1, r2, [r3, #60]	; 0x3c
      return true;
 800166a:	2001      	movs	r0, #1
 800166c:	4770      	bx	lr
    switch (usbp->setup[1]) {
 800166e:	2a22      	cmp	r2, #34	; 0x22
 8001670:	d1ed      	bne.n	800164e <requests_hook+0x1e>
      usbSetupTransfer(usbp, NULL, 0, NULL);
 8001672:	2200      	movs	r2, #0
 8001674:	e9c3 220e 	strd	r2, r2, [r3, #56]	; 0x38
 8001678:	641a      	str	r2, [r3, #64]	; 0x40
      return true;
 800167a:	2001      	movs	r0, #1
 800167c:	4770      	bx	lr
    usbSetupTransfer(usbp, NULL, 0, NULL);
 800167e:	2200      	movs	r2, #0
 8001680:	e9c3 220e 	strd	r2, r2, [r3, #56]	; 0x38
 8001684:	641a      	str	r2, [r3, #64]	; 0x40
    return true;
 8001686:	4770      	bx	lr
 8001688:	20000824 	.word	0x20000824
 800168c:	00000000 	.word	0x00000000

08001690 <get_descriptor>:
  switch (dtype) {
 8001690:	2902      	cmp	r1, #2
 8001692:	d006      	beq.n	80016a2 <get_descriptor+0x12>
 8001694:	2903      	cmp	r1, #3
 8001696:	d006      	beq.n	80016a6 <get_descriptor+0x16>
 8001698:	2901      	cmp	r1, #1
    return &vcom_device_descriptor;
 800169a:	4807      	ldr	r0, [pc, #28]	; (80016b8 <get_descriptor+0x28>)
 800169c:	bf18      	it	ne
 800169e:	2000      	movne	r0, #0
 80016a0:	4770      	bx	lr
  switch (dtype) {
 80016a2:	4806      	ldr	r0, [pc, #24]	; (80016bc <get_descriptor+0x2c>)
 80016a4:	4770      	bx	lr
    if (dindex < 4)
 80016a6:	2a03      	cmp	r2, #3
 80016a8:	d803      	bhi.n	80016b2 <get_descriptor+0x22>
      return &vcom_strings[dindex];
 80016aa:	4805      	ldr	r0, [pc, #20]	; (80016c0 <get_descriptor+0x30>)
 80016ac:	eb00 00c2 	add.w	r0, r0, r2, lsl #3
 80016b0:	4770      	bx	lr
  return NULL;
 80016b2:	2000      	movs	r0, #0
}
 80016b4:	4770      	bx	lr
 80016b6:	bf00      	nop
 80016b8:	08006bb4 	.word	0x08006bb4
 80016bc:	08006b60 	.word	0x08006b60
 80016c0:	08006c3c 	.word	0x08006c3c
	...

080016d0 <_port_irq_epilogue>:
 80016d0:	2320      	movs	r3, #32
 80016d2:	f383 8811 	msr	BASEPRI, r3
 * @brief   Exception exit redirection to _port_switch_from_isr().
 */
void _port_irq_epilogue(void) {

  port_lock_from_isr();
  if ((SCB->ICSR & SCB_ICSR_RETTOBASE_Msk) != 0U) {
 80016d6:	4b0d      	ldr	r3, [pc, #52]	; (800170c <_port_irq_epilogue+0x3c>)
 80016d8:	685b      	ldr	r3, [r3, #4]
 80016da:	f413 6300 	ands.w	r3, r3, #2048	; 0x800
 80016de:	d102      	bne.n	80016e6 <_port_irq_epilogue+0x16>
 80016e0:	f383 8811 	msr	BASEPRI, r3
    /* Note, returning without unlocking is intentional, this is done in
       order to keep the rest of the context switch atomic.*/
    return;
  }
  port_unlock_from_isr();
}
 80016e4:	4770      	bx	lr
  __ASM volatile ("MRS %0, psp"  : "=r" (result) );
 80016e6:	f3ef 8309 	mrs	r3, PSP
    s_psp -= sizeof (struct port_extctx);
 80016ea:	3b20      	subs	r3, #32
    ectxp->xpsr = 0x01000000U;
 80016ec:	f04f 7280 	mov.w	r2, #16777216	; 0x1000000
 80016f0:	61da      	str	r2, [r3, #28]
  __ASM volatile ("MSR psp, %0" : : "r" (topOfProcStack) : );
 80016f2:	f383 8809 	msr	PSP, r3
 * @retval false        if preemption is not required.
 *
 * @special
 */
bool chSchIsPreemptionRequired(void) {
  tprio_t p1 = firstprio(&ch.rlist.queue);
 80016f6:	4a06      	ldr	r2, [pc, #24]	; (8001710 <_port_irq_epilogue+0x40>)
 80016f8:	6811      	ldr	r1, [r2, #0]
  tprio_t p2 = currp->prio;
 80016fa:	6952      	ldr	r2, [r2, #20]
    if (chSchIsPreemptionRequired()) {
 80016fc:	6889      	ldr	r1, [r1, #8]
 80016fe:	6892      	ldr	r2, [r2, #8]
 8001700:	4291      	cmp	r1, r2
      ectxp->pc = (uint32_t)_port_switch_from_isr;
 8001702:	bf8c      	ite	hi
 8001704:	4a03      	ldrhi	r2, [pc, #12]	; (8001714 <_port_irq_epilogue+0x44>)
      ectxp->pc = (uint32_t)_port_exit_from_isr;
 8001706:	4a04      	ldrls	r2, [pc, #16]	; (8001718 <_port_irq_epilogue+0x48>)
 8001708:	619a      	str	r2, [r3, #24]
 800170a:	4770      	bx	lr
 800170c:	e000ed00 	.word	0xe000ed00
 8001710:	2000189c 	.word	0x2000189c
 8001714:	08000303 	.word	0x08000303
 8001718:	08000306 	.word	0x08000306
 800171c:	00000000 	.word	0x00000000

08001720 <chCoreAllocAlignedI>:
  p = (uint8_t *)MEM_ALIGN_PREV(ch_memcore.topmem - size, align);
 8001720:	4a08      	ldr	r2, [pc, #32]	; (8001744 <chCoreAllocAlignedI+0x24>)
 * @return              A pointer to the allocated memory block.
 * @retval NULL         allocation failed, core memory exhausted.
 *
 * @iclass
 */
static inline void *chCoreAllocAlignedI(size_t size, unsigned align) {
 8001722:	b410      	push	{r4}
  if ((prev < ch_memcore.basemem) || (prev > ch_memcore.topmem)) {
 8001724:	e9d2 3400 	ldrd	r3, r4, [r2]
  p = (uint8_t *)MEM_ALIGN_PREV(ch_memcore.topmem - size, align);
 8001728:	4249      	negs	r1, r1
 800172a:	1a20      	subs	r0, r4, r0
 800172c:	4008      	ands	r0, r1
  if ((prev < ch_memcore.basemem) || (prev > ch_memcore.topmem)) {
 800172e:	4298      	cmp	r0, r3
 8001730:	d304      	bcc.n	800173c <chCoreAllocAlignedI+0x1c>
 8001732:	4284      	cmp	r4, r0
 8001734:	d302      	bcc.n	800173c <chCoreAllocAlignedI+0x1c>

  return chCoreAllocAlignedWithOffsetI(size, align, 0U);
}
 8001736:	bc10      	pop	{r4}
  ch_memcore.topmem = prev;
 8001738:	6050      	str	r0, [r2, #4]
 800173a:	4770      	bx	lr
    return NULL;
 800173c:	2000      	movs	r0, #0
 800173e:	bc10      	pop	{r4}
 8001740:	4770      	bx	lr
 8001742:	bf00      	nop
 8001744:	20001a30 	.word	0x20001a30
	...

08001750 <chTMStopMeasurementX>:
 *
 * @return              The realtime counter value.
 */
__STATIC_FORCEINLINE rtcnt_t port_rt_get_counter_value(void) {

  return DWT->CYCCNT;
 8001750:	4a0e      	ldr	r2, [pc, #56]	; (800178c <chTMStopMeasurementX+0x3c>)
 *
 * @xclass
 */
NOINLINE void chTMStopMeasurementX(time_measurement_t *tmp) {

  tm_stop(tmp, chSysGetRealtimeCounterX(), ch.tm.offset);
 8001752:	4b0f      	ldr	r3, [pc, #60]	; (8001790 <chTMStopMeasurementX+0x40>)
 8001754:	6852      	ldr	r2, [r2, #4]
 8001756:	6f1b      	ldr	r3, [r3, #112]	; 0x70
  tmp->last = (now - tmp->last) - offset;
 8001758:	6881      	ldr	r1, [r0, #8]
NOINLINE void chTMStopMeasurementX(time_measurement_t *tmp) {
 800175a:	b430      	push	{r4, r5}
  tmp->last = (now - tmp->last) - offset;
 800175c:	1ad3      	subs	r3, r2, r3
  tmp->cumulative += (rttime_t)tmp->last;
 800175e:	e9d0 4504 	ldrd	r4, r5, [r0, #16]
  tmp->n++;
 8001762:	68c2      	ldr	r2, [r0, #12]
  tmp->last = (now - tmp->last) - offset;
 8001764:	1a5b      	subs	r3, r3, r1
  tmp->n++;
 8001766:	3201      	adds	r2, #1
  if (tmp->last > tmp->worst) {
 8001768:	6841      	ldr	r1, [r0, #4]
  tmp->n++;
 800176a:	60c2      	str	r2, [r0, #12]
  tmp->cumulative += (rttime_t)tmp->last;
 800176c:	18e4      	adds	r4, r4, r3
  if (tmp->last < tmp->best) {
 800176e:	6802      	ldr	r2, [r0, #0]
  tmp->last = (now - tmp->last) - offset;
 8001770:	6083      	str	r3, [r0, #8]
  tmp->cumulative += (rttime_t)tmp->last;
 8001772:	f145 0500 	adc.w	r5, r5, #0
  if (tmp->last > tmp->worst) {
 8001776:	428b      	cmp	r3, r1
    tmp->worst = tmp->last;
 8001778:	bf88      	it	hi
 800177a:	6043      	strhi	r3, [r0, #4]
  if (tmp->last < tmp->best) {
 800177c:	4293      	cmp	r3, r2
  tmp->cumulative += (rttime_t)tmp->last;
 800177e:	e9c0 4504 	strd	r4, r5, [r0, #16]
    tmp->best = tmp->last;
 8001782:	bf38      	it	cc
 8001784:	6003      	strcc	r3, [r0, #0]
}
 8001786:	bc30      	pop	{r4, r5}
 8001788:	4770      	bx	lr
 800178a:	bf00      	nop
 800178c:	e0001000 	.word	0xe0001000
 8001790:	2000189c 	.word	0x2000189c
	...

080017a0 <chTMStartMeasurementX>:
 80017a0:	4b01      	ldr	r3, [pc, #4]	; (80017a8 <chTMStartMeasurementX+0x8>)
 80017a2:	685b      	ldr	r3, [r3, #4]
  tmp->last = chSysGetRealtimeCounterX();
 80017a4:	6083      	str	r3, [r0, #8]
}
 80017a6:	4770      	bx	lr
 80017a8:	e0001000 	.word	0xe0001000
 80017ac:	00000000 	.word	0x00000000

080017b0 <chThdCreateSuspendedI>:
  chDbgCheck((tdp->prio <= HIGHPRIO) && (tdp->funcp != NULL));

  /* The thread structure is laid out in the upper part of the thread
     workspace. The thread position structure is aligned to the required
     stack alignment because it represents the stack top.*/
  tp = (thread_t *)((uint8_t *)tdp->wend -
 80017b0:	6883      	ldr	r3, [r0, #8]
                    MEM_ALIGN_NEXT(sizeof (thread_t), PORT_STACK_ALIGN));

#if (CH_DBG_ENABLE_STACK_CHECK == TRUE) || (CH_CFG_USE_DYNAMIC == TRUE)
  /* Stack boundary.*/
  tp->wabase = tdp->wbase;
 80017b2:	6841      	ldr	r1, [r0, #4]
  REG_INSERT(tp);
 80017b4:	4a1a      	ldr	r2, [pc, #104]	; (8001820 <chThdCreateSuspendedI+0x70>)
thread_t *chThdCreateSuspendedI(const thread_descriptor_t *tdp) {
 80017b6:	b4f0      	push	{r4, r5, r6, r7}
#endif

  /* Setting up the port-dependent part of the working area.*/
  PORT_SETUP_CONTEXT(tp, tdp->wbase, tp, tdp->funcp, tdp->arg);
 80017b8:	e9d0 7504 	ldrd	r7, r5, [r0, #16]
  tp->state     = CH_STATE_WTSTART;
 80017bc:	2602      	movs	r6, #2
  tp->wabase = tdp->wbase;
 80017be:	f843 1c2c 	str.w	r1, [r3, #-44]
  tp->refs      = (trefs_t)1;
 80017c2:	2401      	movs	r4, #1
  tp->flags     = CH_FLAG_MODE_STATIC;
 80017c4:	2100      	movs	r1, #0
  PORT_SETUP_CONTEXT(tp, tdp->wbase, tp, tdp->funcp, tdp->arg);
 80017c6:	e943 751b 	strd	r7, r5, [r3, #-108]	; 0x6c

  /* The driver object is initialized but not started.*/
  return _thread_init(tp, tdp->name, tdp->prio);
 80017ca:	6805      	ldr	r5, [r0, #0]
 80017cc:	68c0      	ldr	r0, [r0, #12]
  tp->flags     = CH_FLAG_MODE_STATIC;
 80017ce:	f803 1c27 	strb.w	r1, [r3, #-39]
  tp->state     = CH_STATE_WTSTART;
 80017d2:	f803 6c28 	strb.w	r6, [r3, #-40]
  tp->refs      = (trefs_t)1;
 80017d6:	f803 4c26 	strb.w	r4, [r3, #-38]
  REG_INSERT(tp);
 80017da:	f843 2c3c 	str.w	r2, [r3, #-60]
 80017de:	6914      	ldr	r4, [r2, #16]
  tp->prio      = prio;
 80017e0:	f843 0c40 	str.w	r0, [r3, #-64]
  tp->realprio  = prio;
 80017e4:	f843 0c0c 	str.w	r0, [r3, #-12]
  tp->name      = name;
 80017e8:	f843 5c30 	str.w	r5, [r3, #-48]
  PORT_SETUP_CONTEXT(tp, tdp->wbase, tp, tdp->funcp, tdp->arg);
 80017ec:	f1a3 006c 	sub.w	r0, r3, #108	; 0x6c
 80017f0:	4d0c      	ldr	r5, [pc, #48]	; (8001824 <chThdCreateSuspendedI+0x74>)
 80017f2:	f843 0c34 	str.w	r0, [r3, #-52]
  tp->epending  = (eventmask_t)0;
 80017f6:	e943 1105 	strd	r1, r1, [r3, #-20]
  tp = (thread_t *)((uint8_t *)tdp->wend -
 80017fa:	f1a3 0048 	sub.w	r0, r3, #72	; 0x48
  PORT_SETUP_CONTEXT(tp, tdp->wbase, tp, tdp->funcp, tdp->arg);
 80017fe:	f843 5c4c 	str.w	r5, [r3, #-76]
  queue_init(&tp->msgqueue);
 8001802:	f1a3 011c 	sub.w	r1, r3, #28
  list_init(&tp->waiting);
 8001806:	f1a3 0520 	sub.w	r5, r3, #32
  REG_INSERT(tp);
 800180a:	f843 4c38 	str.w	r4, [r3, #-56]
 800180e:	60e0      	str	r0, [r4, #12]
 8001810:	6110      	str	r0, [r2, #16]
  tqp->next = (thread_t *)tqp;
 8001812:	e943 5108 	strd	r5, r1, [r3, #-32]
  tqp->prev = (thread_t *)tqp;
 8001816:	f843 1c18 	str.w	r1, [r3, #-24]
}
 800181a:	bcf0      	pop	{r4, r5, r6, r7}
 800181c:	4770      	bx	lr
 800181e:	bf00      	nop
 8001820:	2000189c 	.word	0x2000189c
 8001824:	080002f1 	.word	0x080002f1
	...

08001830 <wakeup>:
  __ASM volatile ("MSR basepri, %0" : : "r" (basePri) : "memory");
 8001830:	2320      	movs	r3, #32
 8001832:	f383 8811 	msr	BASEPRI, r3
  switch (tp->state) {
 8001836:	f890 3020 	ldrb.w	r3, [r0, #32]
 800183a:	2b07      	cmp	r3, #7
 800183c:	d80d      	bhi.n	800185a <wakeup+0x2a>
 800183e:	e8df f003 	tbb	[pc, r3]
 8001842:	0c27      	.short	0x0c27
 8001844:	0408230c 	.word	0x0408230c
 8001848:	080c      	.short	0x080c
    chSemFastSignalI(tp->u.wtsemp);
 800184a:	6a42      	ldr	r2, [r0, #36]	; 0x24
 */
static inline void chSemFastSignalI(semaphore_t *sp) {

  chDbgCheckClassI();

  sp->cnt++;
 800184c:	6893      	ldr	r3, [r2, #8]
 800184e:	3301      	adds	r3, #1
 8001850:	6093      	str	r3, [r2, #8]
  return tp;
}

static inline thread_t *queue_dequeue(thread_t *tp) {

  tp->queue.prev->queue.next = tp->queue.next;
 8001852:	e9d0 3200 	ldrd	r3, r2, [r0]
 8001856:	6013      	str	r3, [r2, #0]
  tp->queue.next->queue.prev = tp->queue.prev;
 8001858:	605a      	str	r2, [r3, #4]
static void wakeup(void *p) {
 800185a:	b410      	push	{r4}
  tp->state = CH_STATE_READY;
 800185c:	2200      	movs	r2, #0
  tp->u.rdymsg = MSG_TIMEOUT;
 800185e:	f04f 34ff 	mov.w	r4, #4294967295	; 0xffffffff
  } while (cp->prio >= tp->prio);
 8001862:	6881      	ldr	r1, [r0, #8]
  cp = (thread_t *)&ch.rlist.queue;
 8001864:	4b0c      	ldr	r3, [pc, #48]	; (8001898 <wakeup+0x68>)
  tp->u.rdymsg = MSG_TIMEOUT;
 8001866:	6244      	str	r4, [r0, #36]	; 0x24
  tp->state = CH_STATE_READY;
 8001868:	f880 2020 	strb.w	r2, [r0, #32]
    cp = cp->queue.next;
 800186c:	681b      	ldr	r3, [r3, #0]
  } while (cp->prio >= tp->prio);
 800186e:	689a      	ldr	r2, [r3, #8]
 8001870:	428a      	cmp	r2, r1
 8001872:	d2fb      	bcs.n	800186c <wakeup+0x3c>
  tp->queue.prev             = cp->queue.prev;
 8001874:	685a      	ldr	r2, [r3, #4]
 8001876:	2100      	movs	r1, #0
 8001878:	e9c0 3200 	strd	r3, r2, [r0]
  tp->queue.prev->queue.next = tp;
 800187c:	6010      	str	r0, [r2, #0]
  cp->queue.prev             = tp;
 800187e:	6058      	str	r0, [r3, #4]
 8001880:	f381 8811 	msr	BASEPRI, r1
}
 8001884:	bc10      	pop	{r4}
 8001886:	4770      	bx	lr
    *tp->u.wttrp = NULL;
 8001888:	6a43      	ldr	r3, [r0, #36]	; 0x24
 800188a:	2200      	movs	r2, #0
 800188c:	601a      	str	r2, [r3, #0]
    break;
 800188e:	e7e4      	b.n	800185a <wakeup+0x2a>
 8001890:	2300      	movs	r3, #0
 8001892:	f383 8811 	msr	BASEPRI, r3
 8001896:	4770      	bx	lr
 8001898:	2000189c 	.word	0x2000189c
 800189c:	00000000 	.word	0x00000000

080018a0 <chSchReadyI>:
  tp->state = CH_STATE_READY;
 80018a0:	2200      	movs	r2, #0
  } while (cp->prio >= tp->prio);
 80018a2:	6881      	ldr	r1, [r0, #8]
  cp = (thread_t *)&ch.rlist.queue;
 80018a4:	4b06      	ldr	r3, [pc, #24]	; (80018c0 <chSchReadyI+0x20>)
  tp->state = CH_STATE_READY;
 80018a6:	f880 2020 	strb.w	r2, [r0, #32]
    cp = cp->queue.next;
 80018aa:	681b      	ldr	r3, [r3, #0]
  } while (cp->prio >= tp->prio);
 80018ac:	689a      	ldr	r2, [r3, #8]
 80018ae:	428a      	cmp	r2, r1
 80018b0:	d2fb      	bcs.n	80018aa <chSchReadyI+0xa>
  tp->queue.prev             = cp->queue.prev;
 80018b2:	685a      	ldr	r2, [r3, #4]
 80018b4:	e9c0 3200 	strd	r3, r2, [r0]
  tp->queue.prev->queue.next = tp;
 80018b8:	6010      	str	r0, [r2, #0]
  cp->queue.prev             = tp;
 80018ba:	6058      	str	r0, [r3, #4]
}
 80018bc:	4770      	bx	lr
 80018be:	bf00      	nop
 80018c0:	2000189c 	.word	0x2000189c
	...

080018d0 <chThdDequeueAllI.constprop.0>:
 * @param[in] tqp       pointer to the threads queue object
 * @param[in] msg       the message code
 *
 * @iclass
 */
void chThdDequeueAllI(threads_queue_t *tqp, msg_t msg) {
 80018d0:	b538      	push	{r3, r4, r5, lr}
 80018d2:	4604      	mov	r4, r0
  return (bool)(tqp->next != (const thread_t *)tqp);
 80018d4:	6800      	ldr	r0, [r0, #0]

  while (queue_notempty(tqp)) {
 80018d6:	4284      	cmp	r4, r0
 80018d8:	d00a      	beq.n	80018f0 <chThdDequeueAllI.constprop.0+0x20>

  tp = queue_fifo_remove(tqp);

  chDbgAssert(tp->state == CH_STATE_QUEUED, "invalid state");

  tp->u.rdymsg = msg;
 80018da:	f06f 0501 	mvn.w	r5, #1
  tqp->next             = tp->queue.next;
 80018de:	6803      	ldr	r3, [r0, #0]
 80018e0:	6023      	str	r3, [r4, #0]
  tqp->next->queue.prev = (thread_t *)tqp;
 80018e2:	605c      	str	r4, [r3, #4]
 80018e4:	6245      	str	r5, [r0, #36]	; 0x24
  (void) chSchReadyI(tp);
 80018e6:	f7ff ffdb 	bl	80018a0 <chSchReadyI>
  return (bool)(tqp->next != (const thread_t *)tqp);
 80018ea:	6820      	ldr	r0, [r4, #0]
 80018ec:	42a0      	cmp	r0, r4
 80018ee:	d1f6      	bne.n	80018de <chThdDequeueAllI.constprop.0+0xe>
    chThdDoDequeueNextI(tqp, msg);
  }
}
 80018f0:	bd38      	pop	{r3, r4, r5, pc}
 80018f2:	bf00      	nop
	...

08001900 <chThdDequeueNextI.constprop.0>:
void chThdDequeueNextI(threads_queue_t *tqp, msg_t msg) {
 8001900:	4603      	mov	r3, r0
 8001902:	6800      	ldr	r0, [r0, #0]
  if (queue_notempty(tqp)) {
 8001904:	4283      	cmp	r3, r0
 8001906:	d006      	beq.n	8001916 <chThdDequeueNextI.constprop.0+0x16>
  tqp->next             = tp->queue.next;
 8001908:	6802      	ldr	r2, [r0, #0]
 800190a:	601a      	str	r2, [r3, #0]
  tp->u.rdymsg = msg;
 800190c:	2100      	movs	r1, #0
  tqp->next->queue.prev = (thread_t *)tqp;
 800190e:	6053      	str	r3, [r2, #4]
 8001910:	6241      	str	r1, [r0, #36]	; 0x24
  (void) chSchReadyI(tp);
 8001912:	f7ff bfc5 	b.w	80018a0 <chSchReadyI>
}
 8001916:	4770      	bx	lr
	...

08001920 <chEvtBroadcastFlagsI>:
 * @param[in] esp       pointer to the @p event_source_t structure
 * @param[in] flags     the flags set to be added to the listener flags mask
 *
 * @iclass
 */
void chEvtBroadcastFlagsI(event_source_t *esp, eventflags_t flags) {
 8001920:	b5f8      	push	{r3, r4, r5, r6, r7, lr}
  event_listener_t *elp;

  chDbgCheckClassI();
  chDbgCheck(esp != NULL);

  elp = esp->next;
 8001922:	6804      	ldr	r4, [r0, #0]
  /*lint -save -e9087 -e740 [11.3, 1.3] Cast required by list handling.*/
  while (elp != (event_listener_t *)esp) {
 8001924:	42a0      	cmp	r0, r4
 8001926:	d021      	beq.n	800196c <chEvtBroadcastFlagsI+0x4c>
 8001928:	4607      	mov	r7, r0
 800192a:	460d      	mov	r5, r1
  /* Test on the AND/OR conditions wait states.*/
  if (((tp->state == CH_STATE_WTOREVT) &&
       ((tp->epending & tp->u.ewmask) != (eventmask_t)0)) ||
      ((tp->state == CH_STATE_WTANDEVT) &&
       ((tp->epending & tp->u.ewmask) == tp->u.ewmask))) {
    tp->u.rdymsg = MSG_OK;
 800192c:	2600      	movs	r6, #0
 800192e:	e004      	b.n	800193a <chEvtBroadcastFlagsI+0x1a>
       ((tp->epending & tp->u.ewmask) != (eventmask_t)0)) ||
 8001930:	2a0b      	cmp	r2, #11
 8001932:	d01c      	beq.n	800196e <chEvtBroadcastFlagsI+0x4e>
    elp = elp->next;
 8001934:	6824      	ldr	r4, [r4, #0]
  while (elp != (event_listener_t *)esp) {
 8001936:	42a7      	cmp	r7, r4
 8001938:	d018      	beq.n	800196c <chEvtBroadcastFlagsI+0x4c>
    elp->flags |= flags;
 800193a:	68e3      	ldr	r3, [r4, #12]
 800193c:	432b      	orrs	r3, r5
 800193e:	60e3      	str	r3, [r4, #12]
    if ((flags == (eventflags_t)0) ||
 8001940:	b115      	cbz	r5, 8001948 <chEvtBroadcastFlagsI+0x28>
        ((flags & elp->wflags) != (eventflags_t)0)) {
 8001942:	6923      	ldr	r3, [r4, #16]
    if ((flags == (eventflags_t)0) ||
 8001944:	421d      	tst	r5, r3
 8001946:	d0f5      	beq.n	8001934 <chEvtBroadcastFlagsI+0x14>
  tp->epending |= events;
 8001948:	e9d4 0301 	ldrd	r0, r3, [r4, #4]
 800194c:	6b41      	ldr	r1, [r0, #52]	; 0x34
  if (((tp->state == CH_STATE_WTOREVT) &&
 800194e:	f890 2020 	ldrb.w	r2, [r0, #32]
  tp->epending |= events;
 8001952:	430b      	orrs	r3, r1
  if (((tp->state == CH_STATE_WTOREVT) &&
 8001954:	2a0a      	cmp	r2, #10
  tp->epending |= events;
 8001956:	6343      	str	r3, [r0, #52]	; 0x34
  if (((tp->state == CH_STATE_WTOREVT) &&
 8001958:	d1ea      	bne.n	8001930 <chEvtBroadcastFlagsI+0x10>
       ((tp->epending & tp->u.ewmask) != (eventmask_t)0)) ||
 800195a:	6a42      	ldr	r2, [r0, #36]	; 0x24
  if (((tp->state == CH_STATE_WTOREVT) &&
 800195c:	4213      	tst	r3, r2
 800195e:	d0e9      	beq.n	8001934 <chEvtBroadcastFlagsI+0x14>
    tp->u.rdymsg = MSG_OK;
 8001960:	6246      	str	r6, [r0, #36]	; 0x24
    (void) chSchReadyI(tp);
 8001962:	f7ff ff9d 	bl	80018a0 <chSchReadyI>
    elp = elp->next;
 8001966:	6824      	ldr	r4, [r4, #0]
  while (elp != (event_listener_t *)esp) {
 8001968:	42a7      	cmp	r7, r4
 800196a:	d1e6      	bne.n	800193a <chEvtBroadcastFlagsI+0x1a>
}
 800196c:	bdf8      	pop	{r3, r4, r5, r6, r7, pc}
       ((tp->epending & tp->u.ewmask) == tp->u.ewmask))) {
 800196e:	6a42      	ldr	r2, [r0, #36]	; 0x24
      ((tp->state == CH_STATE_WTANDEVT) &&
 8001970:	ea32 0303 	bics.w	r3, r2, r3
 8001974:	d1de      	bne.n	8001934 <chEvtBroadcastFlagsI+0x14>
 8001976:	e7f3      	b.n	8001960 <chEvtBroadcastFlagsI+0x40>
	...

08001980 <chSysPolledDelayX>:
 8001980:	4a03      	ldr	r2, [pc, #12]	; (8001990 <chSysPolledDelayX+0x10>)
 8001982:	6851      	ldr	r1, [r2, #4]
 8001984:	6853      	ldr	r3, [r2, #4]
 *
 * @xclass
 */
bool chSysIsCounterWithinX(rtcnt_t cnt, rtcnt_t start, rtcnt_t end) {

  return (bool)(((rtcnt_t)cnt - (rtcnt_t)start) <
 8001986:	1a5b      	subs	r3, r3, r1
 */
void chSysPolledDelayX(rtcnt_t cycles) {
  rtcnt_t start = chSysGetRealtimeCounterX();
  rtcnt_t end  = start + cycles;

  while (chSysIsCounterWithinX(chSysGetRealtimeCounterX(), start, end)) {
 8001988:	4298      	cmp	r0, r3
 800198a:	d8fb      	bhi.n	8001984 <chSysPolledDelayX+0x4>
  }
}
 800198c:	4770      	bx	lr
 800198e:	bf00      	nop
 8001990:	e0001000 	.word	0xe0001000
	...

080019a0 <_idle_thread>:
}
 80019a0:	e7fe      	b.n	80019a0 <_idle_thread>
 80019a2:	bf00      	nop
	...

080019b0 <serve_interrupt>:
static void serve_interrupt(SerialDriver *sdp) {
 80019b0:	e92d 47f0 	stmdb	sp!, {r4, r5, r6, r7, r8, r9, sl, lr}
  USART_TypeDef *u = sdp->usart;
 80019b4:	f8d0 6254 	ldr.w	r6, [r0, #596]	; 0x254
  uint16_t cr1 = u->CR1;
 80019b8:	f8d6 900c 	ldr.w	r9, [r6, #12]
  uint16_t sr = u->SR;
 80019bc:	6833      	ldr	r3, [r6, #0]
  if (sr & USART_SR_LBD) {
 80019be:	05da      	lsls	r2, r3, #23
static void serve_interrupt(SerialDriver *sdp) {
 80019c0:	4605      	mov	r5, r0
  uint16_t sr = u->SR;
 80019c2:	b29c      	uxth	r4, r3
  if (sr & USART_SR_LBD) {
 80019c4:	d475      	bmi.n	8001ab2 <serve_interrupt+0x102>
 80019c6:	2320      	movs	r3, #32
 80019c8:	f383 8811 	msr	BASEPRI, r3
  while (sr & (USART_SR_RXNE | USART_SR_ORE | USART_SR_NE | USART_SR_FE |
 80019cc:	f014 0f2f 	tst.w	r4, #47	; 0x2f
 80019d0:	d045      	beq.n	8001a5e <serve_interrupt+0xae>
  chnAddFlagsI(sdp, sts);
 80019d2:	1d2f      	adds	r7, r5, #4
  osalDbgCheckClassI();
  osalDbgCheck(sdp != NULL);

  if (iqIsEmptyI(&sdp->iqueue))
    chnAddFlagsI(sdp, CHN_INPUT_AVAILABLE);
  if (iqPutI(&sdp->iqueue, b) < MSG_OK)
 80019d4:	f105 080c 	add.w	r8, r5, #12
 80019d8:	e008      	b.n	80019ec <serve_interrupt+0x3c>
    if (sr & USART_SR_RXNE)
 80019da:	06a0      	lsls	r0, r4, #26
    b = (uint8_t)u->DR & sdp->rxmask;
 80019dc:	f8d6 a004 	ldr.w	sl, [r6, #4]
    if (sr & USART_SR_RXNE)
 80019e0:	d41e      	bmi.n	8001a20 <serve_interrupt+0x70>
    sr = u->SR;
 80019e2:	6833      	ldr	r3, [r6, #0]
  while (sr & (USART_SR_RXNE | USART_SR_ORE | USART_SR_NE | USART_SR_FE |
 80019e4:	f013 0f2f 	tst.w	r3, #47	; 0x2f
    sr = u->SR;
 80019e8:	b29c      	uxth	r4, r3
  while (sr & (USART_SR_RXNE | USART_SR_ORE | USART_SR_NE | USART_SR_FE |
 80019ea:	d038      	beq.n	8001a5e <serve_interrupt+0xae>
    if (sr & (USART_SR_ORE | USART_SR_NE | USART_SR_FE  | USART_SR_PE))
 80019ec:	0723      	lsls	r3, r4, #28
 80019ee:	d0f4      	beq.n	80019da <serve_interrupt+0x2a>
    sts |= SD_OVERRUN_ERROR;
 80019f0:	f014 0f08 	tst.w	r4, #8
 80019f4:	bf0c      	ite	eq
 80019f6:	2100      	moveq	r1, #0
 80019f8:	2180      	movne	r1, #128	; 0x80
  if (sr & USART_SR_PE)
 80019fa:	07e0      	lsls	r0, r4, #31
    sts |= SD_PARITY_ERROR;
 80019fc:	bf48      	it	mi
 80019fe:	f041 0120 	orrmi.w	r1, r1, #32
  if (sr & USART_SR_FE)
 8001a02:	07a2      	lsls	r2, r4, #30
    sts |= SD_FRAMING_ERROR;
 8001a04:	bf48      	it	mi
 8001a06:	f041 0140 	orrmi.w	r1, r1, #64	; 0x40
  if (sr & USART_SR_NE)
 8001a0a:	0763      	lsls	r3, r4, #29
    sts |= SD_NOISE_ERROR;
 8001a0c:	bf48      	it	mi
 8001a0e:	f441 7180 	orrmi.w	r1, r1, #256	; 0x100
 * @iclass
 */
static inline void osalEventBroadcastFlagsI(event_source_t *esp,
                                            eventflags_t flags) {

  chEvtBroadcastFlagsI(esp, flags);
 8001a12:	4638      	mov	r0, r7
 8001a14:	f7ff ff84 	bl	8001920 <chEvtBroadcastFlagsI>
    if (sr & USART_SR_RXNE)
 8001a18:	06a0      	lsls	r0, r4, #26
    b = (uint8_t)u->DR & sdp->rxmask;
 8001a1a:	f8d6 a004 	ldr.w	sl, [r6, #4]
    if (sr & USART_SR_RXNE)
 8001a1e:	d5e0      	bpl.n	80019e2 <serve_interrupt+0x32>
  if (iqIsEmptyI(&sdp->iqueue))
 8001a20:	696b      	ldr	r3, [r5, #20]
    b = (uint8_t)u->DR & sdp->rxmask;
 8001a22:	f895 4258 	ldrb.w	r4, [r5, #600]	; 0x258
 8001a26:	b39b      	cbz	r3, 8001a90 <serve_interrupt+0xe0>
  if (!iqIsFullI(iqp)) {
 8001a28:	e9d5 3208 	ldrd	r3, r2, [r5, #32]
 8001a2c:	4293      	cmp	r3, r2
 8001a2e:	d037      	beq.n	8001aa0 <serve_interrupt+0xf0>
    iqp->q_counter++;
 8001a30:	696a      	ldr	r2, [r5, #20]
    *iqp->q_wrptr++ = b;
 8001a32:	1c59      	adds	r1, r3, #1
    iqp->q_counter++;
 8001a34:	3201      	adds	r2, #1
 8001a36:	ea04 0a0a 	and.w	sl, r4, sl
 8001a3a:	616a      	str	r2, [r5, #20]
    *iqp->q_wrptr++ = b;
 8001a3c:	6229      	str	r1, [r5, #32]
 8001a3e:	f883 a000 	strb.w	sl, [r3]
    if (iqp->q_wrptr >= iqp->q_top) {
 8001a42:	e9d5 3207 	ldrd	r3, r2, [r5, #28]
 8001a46:	429a      	cmp	r2, r3
 8001a48:	d301      	bcc.n	8001a4e <serve_interrupt+0x9e>
      iqp->q_wrptr = iqp->q_buffer;
 8001a4a:	69ab      	ldr	r3, [r5, #24]
 8001a4c:	622b      	str	r3, [r5, #32]
  chThdDequeueNextI(tqp, msg);
 8001a4e:	4640      	mov	r0, r8
 8001a50:	f7ff ff56 	bl	8001900 <chThdDequeueNextI.constprop.0>
    sr = u->SR;
 8001a54:	6833      	ldr	r3, [r6, #0]
  while (sr & (USART_SR_RXNE | USART_SR_ORE | USART_SR_NE | USART_SR_FE |
 8001a56:	f013 0f2f 	tst.w	r3, #47	; 0x2f
    sr = u->SR;
 8001a5a:	b29c      	uxth	r4, r3
  while (sr & (USART_SR_RXNE | USART_SR_ORE | USART_SR_NE | USART_SR_FE |
 8001a5c:	d1c6      	bne.n	80019ec <serve_interrupt+0x3c>
 8001a5e:	2300      	movs	r3, #0
 8001a60:	f383 8811 	msr	BASEPRI, r3
  if ((cr1 & USART_CR1_TXEIE) && (sr & USART_SR_TXE)) {
 8001a64:	f019 0f80 	tst.w	r9, #128	; 0x80
 8001a68:	d001      	beq.n	8001a6e <serve_interrupt+0xbe>
 8001a6a:	0622      	lsls	r2, r4, #24
 8001a6c:	d430      	bmi.n	8001ad0 <serve_interrupt+0x120>
  if ((cr1 & USART_CR1_TCIE) && (sr & USART_SR_TC)) {
 8001a6e:	f019 0f40 	tst.w	r9, #64	; 0x40
 8001a72:	d00b      	beq.n	8001a8c <serve_interrupt+0xdc>
 8001a74:	0663      	lsls	r3, r4, #25
 8001a76:	d509      	bpl.n	8001a8c <serve_interrupt+0xdc>
 8001a78:	2320      	movs	r3, #32
 8001a7a:	f383 8811 	msr	BASEPRI, r3
    if (oqIsEmptyI(&sdp->oqueue)) {
 8001a7e:	e9d5 2311 	ldrd	r2, r3, [r5, #68]	; 0x44
 8001a82:	429a      	cmp	r2, r3
 8001a84:	d03f      	beq.n	8001b06 <serve_interrupt+0x156>
 8001a86:	2300      	movs	r3, #0
 8001a88:	f383 8811 	msr	BASEPRI, r3
}
 8001a8c:	e8bd 87f0 	ldmia.w	sp!, {r4, r5, r6, r7, r8, r9, sl, pc}
  chEvtBroadcastFlagsI(esp, flags);
 8001a90:	2104      	movs	r1, #4
 8001a92:	4638      	mov	r0, r7
 8001a94:	f7ff ff44 	bl	8001920 <chEvtBroadcastFlagsI>
  if (!iqIsFullI(iqp)) {
 8001a98:	e9d5 3208 	ldrd	r3, r2, [r5, #32]
 8001a9c:	4293      	cmp	r3, r2
 8001a9e:	d1c7      	bne.n	8001a30 <serve_interrupt+0x80>
 8001aa0:	696a      	ldr	r2, [r5, #20]
 8001aa2:	2a00      	cmp	r2, #0
 8001aa4:	d0c4      	beq.n	8001a30 <serve_interrupt+0x80>
 8001aa6:	f44f 6180 	mov.w	r1, #1024	; 0x400
 8001aaa:	4638      	mov	r0, r7
 8001aac:	f7ff ff38 	bl	8001920 <chEvtBroadcastFlagsI>
 8001ab0:	e797      	b.n	80019e2 <serve_interrupt+0x32>
 8001ab2:	2320      	movs	r3, #32
 8001ab4:	f383 8811 	msr	BASEPRI, r3
 8001ab8:	f44f 7100 	mov.w	r1, #512	; 0x200
 8001abc:	3004      	adds	r0, #4
 8001abe:	f7ff ff2f 	bl	8001920 <chEvtBroadcastFlagsI>
    u->SR = ~USART_SR_LBD;
 8001ac2:	f46f 7380 	mvn.w	r3, #256	; 0x100
 8001ac6:	6033      	str	r3, [r6, #0]
 8001ac8:	2300      	movs	r3, #0
 8001aca:	f383 8811 	msr	BASEPRI, r3
 8001ace:	e77a      	b.n	80019c6 <serve_interrupt+0x16>
 8001ad0:	2320      	movs	r3, #32
 8001ad2:	f383 8811 	msr	BASEPRI, r3
msg_t oqGetI(output_queue_t *oqp) {

  osalDbgCheckClassI();

  /* Queue data check.*/
  if (!oqIsEmptyI(oqp)) {
 8001ad6:	e9d5 2311 	ldrd	r2, r3, [r5, #68]	; 0x44
 8001ada:	429a      	cmp	r2, r3
 8001adc:	d020      	beq.n	8001b20 <serve_interrupt+0x170>
    uint8_t b;

    oqp->q_counter++;
 8001ade:	6baa      	ldr	r2, [r5, #56]	; 0x38
    b = *oqp->q_rdptr++;
    if (oqp->q_rdptr >= oqp->q_top) {
 8001ae0:	6c29      	ldr	r1, [r5, #64]	; 0x40
    b = *oqp->q_rdptr++;
 8001ae2:	1c58      	adds	r0, r3, #1
    oqp->q_counter++;
 8001ae4:	3201      	adds	r2, #1
 8001ae6:	63aa      	str	r2, [r5, #56]	; 0x38
    b = *oqp->q_rdptr++;
 8001ae8:	64a8      	str	r0, [r5, #72]	; 0x48
    if (oqp->q_rdptr >= oqp->q_top) {
 8001aea:	4288      	cmp	r0, r1
    b = *oqp->q_rdptr++;
 8001aec:	781f      	ldrb	r7, [r3, #0]
    if (oqp->q_rdptr >= oqp->q_top) {
 8001aee:	d301      	bcc.n	8001af4 <serve_interrupt+0x144>
      oqp->q_rdptr = oqp->q_buffer;
 8001af0:	6beb      	ldr	r3, [r5, #60]	; 0x3c
 8001af2:	64ab      	str	r3, [r5, #72]	; 0x48
  chThdDequeueNextI(tqp, msg);
 8001af4:	f105 0030 	add.w	r0, r5, #48	; 0x30
 8001af8:	f7ff ff02 	bl	8001900 <chThdDequeueNextI.constprop.0>
      u->DR = b;
 8001afc:	6077      	str	r7, [r6, #4]
 8001afe:	2300      	movs	r3, #0
 8001b00:	f383 8811 	msr	BASEPRI, r3
 8001b04:	e7b3      	b.n	8001a6e <serve_interrupt+0xbe>
    if (oqIsEmptyI(&sdp->oqueue)) {
 8001b06:	6bab      	ldr	r3, [r5, #56]	; 0x38
 8001b08:	2b00      	cmp	r3, #0
 8001b0a:	d0bc      	beq.n	8001a86 <serve_interrupt+0xd6>
  chEvtBroadcastFlagsI(esp, flags);
 8001b0c:	1d28      	adds	r0, r5, #4
 8001b0e:	2110      	movs	r1, #16
 8001b10:	f7ff ff06 	bl	8001920 <chEvtBroadcastFlagsI>
      u->CR1 = cr1 & ~USART_CR1_TCIE;
 8001b14:	f64f 73bf 	movw	r3, #65471	; 0xffbf
 8001b18:	ea09 0303 	and.w	r3, r9, r3
 8001b1c:	60f3      	str	r3, [r6, #12]
 8001b1e:	e7b2      	b.n	8001a86 <serve_interrupt+0xd6>
  if (!oqIsEmptyI(oqp)) {
 8001b20:	6baa      	ldr	r2, [r5, #56]	; 0x38
 8001b22:	2a00      	cmp	r2, #0
 8001b24:	d0db      	beq.n	8001ade <serve_interrupt+0x12e>
 8001b26:	2108      	movs	r1, #8
 8001b28:	1d28      	adds	r0, r5, #4
 8001b2a:	f7ff fef9 	bl	8001920 <chEvtBroadcastFlagsI>
      u->CR1 = cr1 & ~USART_CR1_TXEIE;
 8001b2e:	f64f 737f 	movw	r3, #65407	; 0xff7f
 8001b32:	ea09 0303 	and.w	r3, r9, r3
 8001b36:	60f3      	str	r3, [r6, #12]
 8001b38:	e7e1      	b.n	8001afe <serve_interrupt+0x14e>
 8001b3a:	bf00      	nop
 8001b3c:	0000      	movs	r0, r0
	...

08001b40 <icu_lld_serve_interrupt>:
 *
 * @param[in] icup      pointer to the @p ICUDriver object
 *
 * @notapi
 */
void icu_lld_serve_interrupt(ICUDriver *icup) {
 8001b40:	b538      	push	{r3, r4, r5, lr}
  uint32_t sr;

  sr  = icup->tim->SR;
 8001b42:	68c3      	ldr	r3, [r0, #12]
  sr &= icup->tim->DIER & STM32_TIM_DIER_IRQ_MASK;
  icup->tim->SR = ~sr;
  if (icup->config->channel == ICU_CHANNEL_1) {
 8001b44:	6841      	ldr	r1, [r0, #4]
  sr  = icup->tim->SR;
 8001b46:	691a      	ldr	r2, [r3, #16]
  sr &= icup->tim->DIER & STM32_TIM_DIER_IRQ_MASK;
 8001b48:	68dd      	ldr	r5, [r3, #12]
 8001b4a:	4015      	ands	r5, r2
 8001b4c:	b2ea      	uxtb	r2, r5
  icup->tim->SR = ~sr;
 8001b4e:	43d2      	mvns	r2, r2
 8001b50:	611a      	str	r2, [r3, #16]
  if (icup->config->channel == ICU_CHANNEL_1) {
 8001b52:	7d0b      	ldrb	r3, [r1, #20]
void icu_lld_serve_interrupt(ICUDriver *icup) {
 8001b54:	4604      	mov	r4, r0
  if (icup->config->channel == ICU_CHANNEL_1) {
 8001b56:	b97b      	cbnz	r3, 8001b78 <icu_lld_serve_interrupt+0x38>
    if ((sr & STM32_TIM_SR_CC2IF) != 0)
 8001b58:	076b      	lsls	r3, r5, #29
 8001b5a:	d52b      	bpl.n	8001bb4 <icu_lld_serve_interrupt+0x74>
      _icu_isr_invoke_width_cb(icup);
 8001b5c:	7803      	ldrb	r3, [r0, #0]
 8001b5e:	2b04      	cmp	r3, #4
 8001b60:	d025      	beq.n	8001bae <icu_lld_serve_interrupt+0x6e>
    if ((sr & STM32_TIM_SR_CC1IF) != 0)
 8001b62:	07a9      	lsls	r1, r5, #30
 8001b64:	d40f      	bmi.n	8001b86 <icu_lld_serve_interrupt+0x46>
    if ((sr & STM32_TIM_SR_CC1IF) != 0)
      _icu_isr_invoke_width_cb(icup);
    if ((sr & STM32_TIM_SR_CC2IF) != 0)
      _icu_isr_invoke_period_cb(icup);
  }
  if ((sr & STM32_TIM_SR_UIF) != 0)
 8001b66:	07ed      	lsls	r5, r5, #31
 8001b68:	d505      	bpl.n	8001b76 <icu_lld_serve_interrupt+0x36>
    _icu_isr_invoke_overflow_cb(icup);
 8001b6a:	6863      	ldr	r3, [r4, #4]
 8001b6c:	4620      	mov	r0, r4
 8001b6e:	691b      	ldr	r3, [r3, #16]
 8001b70:	4798      	blx	r3
 8001b72:	2303      	movs	r3, #3
 8001b74:	7023      	strb	r3, [r4, #0]
}
 8001b76:	bd38      	pop	{r3, r4, r5, pc}
    if ((sr & STM32_TIM_SR_CC1IF) != 0)
 8001b78:	07aa      	lsls	r2, r5, #30
 8001b7a:	d50a      	bpl.n	8001b92 <icu_lld_serve_interrupt+0x52>
      _icu_isr_invoke_width_cb(icup);
 8001b7c:	7803      	ldrb	r3, [r0, #0]
 8001b7e:	2b04      	cmp	r3, #4
 8001b80:	d004      	beq.n	8001b8c <icu_lld_serve_interrupt+0x4c>
    if ((sr & STM32_TIM_SR_CC2IF) != 0)
 8001b82:	076b      	lsls	r3, r5, #29
 8001b84:	d5ef      	bpl.n	8001b66 <icu_lld_serve_interrupt+0x26>
      _icu_isr_invoke_period_cb(icup);
 8001b86:	2304      	movs	r3, #4
 8001b88:	7023      	strb	r3, [r4, #0]
 8001b8a:	e7ec      	b.n	8001b66 <icu_lld_serve_interrupt+0x26>
      _icu_isr_invoke_width_cb(icup);
 8001b8c:	688b      	ldr	r3, [r1, #8]
 8001b8e:	b1d3      	cbz	r3, 8001bc6 <icu_lld_serve_interrupt+0x86>
 8001b90:	4798      	blx	r3
    if ((sr & STM32_TIM_SR_CC2IF) != 0)
 8001b92:	076b      	lsls	r3, r5, #29
 8001b94:	d5e7      	bpl.n	8001b66 <icu_lld_serve_interrupt+0x26>
      _icu_isr_invoke_period_cb(icup);
 8001b96:	7823      	ldrb	r3, [r4, #0]
 8001b98:	2b04      	cmp	r3, #4
 8001b9a:	d1f4      	bne.n	8001b86 <icu_lld_serve_interrupt+0x46>
 8001b9c:	6861      	ldr	r1, [r4, #4]
 8001b9e:	68cb      	ldr	r3, [r1, #12]
 8001ba0:	2b00      	cmp	r3, #0
 8001ba2:	d0f0      	beq.n	8001b86 <icu_lld_serve_interrupt+0x46>
 8001ba4:	4620      	mov	r0, r4
 8001ba6:	4798      	blx	r3
 8001ba8:	2304      	movs	r3, #4
 8001baa:	7023      	strb	r3, [r4, #0]
 8001bac:	e7db      	b.n	8001b66 <icu_lld_serve_interrupt+0x26>
      _icu_isr_invoke_width_cb(icup);
 8001bae:	688b      	ldr	r3, [r1, #8]
 8001bb0:	b133      	cbz	r3, 8001bc0 <icu_lld_serve_interrupt+0x80>
 8001bb2:	4798      	blx	r3
    if ((sr & STM32_TIM_SR_CC1IF) != 0)
 8001bb4:	07a9      	lsls	r1, r5, #30
 8001bb6:	d5d6      	bpl.n	8001b66 <icu_lld_serve_interrupt+0x26>
      _icu_isr_invoke_period_cb(icup);
 8001bb8:	7823      	ldrb	r3, [r4, #0]
 8001bba:	2b04      	cmp	r3, #4
 8001bbc:	d1e3      	bne.n	8001b86 <icu_lld_serve_interrupt+0x46>
 8001bbe:	e7ed      	b.n	8001b9c <icu_lld_serve_interrupt+0x5c>
    if ((sr & STM32_TIM_SR_CC1IF) != 0)
 8001bc0:	07a8      	lsls	r0, r5, #30
 8001bc2:	d4ec      	bmi.n	8001b9e <icu_lld_serve_interrupt+0x5e>
 8001bc4:	e7cf      	b.n	8001b66 <icu_lld_serve_interrupt+0x26>
    if ((sr & STM32_TIM_SR_CC2IF) != 0)
 8001bc6:	076a      	lsls	r2, r5, #29
 8001bc8:	d4e9      	bmi.n	8001b9e <icu_lld_serve_interrupt+0x5e>
 8001bca:	e7cc      	b.n	8001b66 <icu_lld_serve_interrupt+0x26>
 8001bcc:	0000      	movs	r0, r0
	...

08001bd0 <usb_lld_start_in>:
 * @param[in] ep        endpoint number
 *
 * @notapi
 */
void usb_lld_start_in(USBDriver *usbp, usbep_t ep) {
  USBInEndpointState *isp = usbp->epc[ep]->in_state;
 8001bd0:	eb00 0381 	add.w	r3, r0, r1, lsl #2
void usb_lld_start_in(USBDriver *usbp, usbep_t ep) {
 8001bd4:	b430      	push	{r4, r5}
  USBInEndpointState *isp = usbp->epc[ep]->in_state;
 8001bd6:	68dc      	ldr	r4, [r3, #12]
 8001bd8:	6962      	ldr	r2, [r4, #20]

  /* Transfer initialization.*/
  isp->totsize = isp->txsize;
 8001bda:	6813      	ldr	r3, [r2, #0]
 8001bdc:	60d3      	str	r3, [r2, #12]
  if (isp->txsize == 0) {
 8001bde:	b9f3      	cbnz	r3, 8001c1e <usb_lld_start_in+0x4e>
    /* Special case, sending zero size packet.*/
    usbp->otg->ie[ep].DIEPTSIZ = DIEPTSIZ_PKTCNT(1) | DIEPTSIZ_XFRSIZ(0);
 8001be0:	6d42      	ldr	r2, [r0, #84]	; 0x54
 8001be2:	eb02 1341 	add.w	r3, r2, r1, lsl #5
 8001be6:	f44f 2000 	mov.w	r0, #524288	; 0x80000
 8001bea:	f8c3 0910 	str.w	r0, [r3, #2320]	; 0x910
    usbp->otg->ie[ep].DIEPTSIZ = DIEPTSIZ_MCNT(1) | DIEPTSIZ_PKTCNT(pcnt) |
                                 DIEPTSIZ_XFRSIZ(isp->txsize);
  }

  /* Special case of isochronous endpoint.*/
  if ((usbp->epc[ep]->ep_mode & USB_EP_MODE_TYPE) == USB_EP_MODE_TYPE_ISOC) {
 8001bee:	6823      	ldr	r3, [r4, #0]
 8001bf0:	f003 0303 	and.w	r3, r3, #3
 8001bf4:	2b01      	cmp	r3, #1
 8001bf6:	d02a      	beq.n	8001c4e <usb_lld_start_in+0x7e>
 8001bf8:	b208      	sxth	r0, r1
    else
      usbp->otg->ie[ep].DIEPCTL |= DIEPCTL_SODDFRM;
  }

  /* Starting operation.*/
  usbp->otg->ie[ep].DIEPCTL |= DIEPCTL_EPENA | DIEPCTL_CNAK;
 8001bfa:	eb02 1040 	add.w	r0, r2, r0, lsl #5
  usbp->otg->DIEPEMPMSK |= DIEPEMPMSK_INEPTXFEM(ep);
 8001bfe:	2301      	movs	r3, #1
  usbp->otg->ie[ep].DIEPCTL |= DIEPCTL_EPENA | DIEPCTL_CNAK;
 8001c00:	f8d0 4900 	ldr.w	r4, [r0, #2304]	; 0x900
 8001c04:	f044 4404 	orr.w	r4, r4, #2214592512	; 0x84000000
 8001c08:	f8c0 4900 	str.w	r4, [r0, #2304]	; 0x900
  usbp->otg->DIEPEMPMSK |= DIEPEMPMSK_INEPTXFEM(ep);
 8001c0c:	f8d2 0834 	ldr.w	r0, [r2, #2100]	; 0x834
 8001c10:	fa03 f101 	lsl.w	r1, r3, r1
 8001c14:	4301      	orrs	r1, r0
}
 8001c16:	bc30      	pop	{r4, r5}
  usbp->otg->DIEPEMPMSK |= DIEPEMPMSK_INEPTXFEM(ep);
 8001c18:	f8c2 1834 	str.w	r1, [r2, #2100]	; 0x834
}
 8001c1c:	4770      	bx	lr
    if ((ep == 0) && (isp->txsize > EP0_MAX_INSIZE))
 8001c1e:	b919      	cbnz	r1, 8001c28 <usb_lld_start_in+0x58>
 8001c20:	2b40      	cmp	r3, #64	; 0x40
      isp->txsize = EP0_MAX_INSIZE;
 8001c22:	bf84      	itt	hi
 8001c24:	2340      	movhi	r3, #64	; 0x40
 8001c26:	6013      	strhi	r3, [r2, #0]
    uint32_t pcnt = (isp->txsize + usbp->epc[ep]->in_maxsize - 1) /
 8001c28:	8a25      	ldrh	r5, [r4, #16]
    usbp->otg->ie[ep].DIEPTSIZ = DIEPTSIZ_MCNT(1) | DIEPTSIZ_PKTCNT(pcnt) |
 8001c2a:	6d42      	ldr	r2, [r0, #84]	; 0x54
    uint32_t pcnt = (isp->txsize + usbp->epc[ep]->in_maxsize - 1) /
 8001c2c:	1e68      	subs	r0, r5, #1
 8001c2e:	4418      	add	r0, r3
 8001c30:	fbb0 f0f5 	udiv	r0, r0, r5
    usbp->otg->ie[ep].DIEPTSIZ = DIEPTSIZ_MCNT(1) | DIEPTSIZ_PKTCNT(pcnt) |
 8001c34:	eb02 1541 	add.w	r5, r2, r1, lsl #5
 8001c38:	ea43 43c0 	orr.w	r3, r3, r0, lsl #19
 8001c3c:	f043 5300 	orr.w	r3, r3, #536870912	; 0x20000000
 8001c40:	f8c5 3910 	str.w	r3, [r5, #2320]	; 0x910
  if ((usbp->epc[ep]->ep_mode & USB_EP_MODE_TYPE) == USB_EP_MODE_TYPE_ISOC) {
 8001c44:	6823      	ldr	r3, [r4, #0]
 8001c46:	f003 0303 	and.w	r3, r3, #3
 8001c4a:	2b01      	cmp	r3, #1
 8001c4c:	d1d4      	bne.n	8001bf8 <usb_lld_start_in+0x28>
    if (usbp->otg->DSTS & DSTS_FNSOF_ODD)
 8001c4e:	f8d2 3808 	ldr.w	r3, [r2, #2056]	; 0x808
 8001c52:	f413 7f80 	tst.w	r3, #256	; 0x100
 8001c56:	eb02 1341 	add.w	r3, r2, r1, lsl #5
 8001c5a:	b208      	sxth	r0, r1
      usbp->otg->ie[ep].DIEPCTL |= DIEPCTL_SEVNFRM;
 8001c5c:	f8d3 4900 	ldr.w	r4, [r3, #2304]	; 0x900
 8001c60:	bf14      	ite	ne
 8001c62:	f044 5480 	orrne.w	r4, r4, #268435456	; 0x10000000
      usbp->otg->ie[ep].DIEPCTL |= DIEPCTL_SODDFRM;
 8001c66:	f044 5400 	orreq.w	r4, r4, #536870912	; 0x20000000
 8001c6a:	f8c3 4900 	str.w	r4, [r3, #2304]	; 0x900
 8001c6e:	e7c4      	b.n	8001bfa <usb_lld_start_in+0x2a>

08001c70 <otg_epin_handler.constprop.0>:
  stm32_otg_t *otgp = usbp->otg;
 8001c70:	4a20      	ldr	r2, [pc, #128]	; (8001cf4 <otg_epin_handler.constprop.0+0x84>)
static void otg_epin_handler(USBDriver *usbp, usbep_t ep) {
 8001c72:	b5f8      	push	{r3, r4, r5, r6, r7, lr}
  stm32_otg_t *otgp = usbp->otg;
 8001c74:	6d56      	ldr	r6, [r2, #84]	; 0x54
  uint32_t epint = otgp->ie[ep].DIEPINT;
 8001c76:	eb06 1340 	add.w	r3, r6, r0, lsl #5
static void otg_epin_handler(USBDriver *usbp, usbep_t ep) {
 8001c7a:	4604      	mov	r4, r0
  uint32_t epint = otgp->ie[ep].DIEPINT;
 8001c7c:	f8d3 5908 	ldr.w	r5, [r3, #2312]	; 0x908
  otgp->ie[ep].DIEPINT = epint;
 8001c80:	f8c3 5908 	str.w	r5, [r3, #2312]	; 0x908
  if ((epint & DIEPINT_XFRC) && (otgp->DIEPMSK & DIEPMSK_XFRCM)) {
 8001c84:	07e8      	lsls	r0, r5, #31
 8001c86:	d503      	bpl.n	8001c90 <otg_epin_handler.constprop.0+0x20>
 8001c88:	f8d6 3810 	ldr.w	r3, [r6, #2064]	; 0x810
 8001c8c:	07d9      	lsls	r1, r3, #31
 8001c8e:	d408      	bmi.n	8001ca2 <otg_epin_handler.constprop.0+0x32>
  if ((epint & DIEPINT_TXFE) &&
 8001c90:	062b      	lsls	r3, r5, #24
 8001c92:	d505      	bpl.n	8001ca0 <otg_epin_handler.constprop.0+0x30>
      (otgp->DIEPEMPMSK & DIEPEMPMSK_INEPTXFEM(ep))) {
 8001c94:	f8d6 2834 	ldr.w	r2, [r6, #2100]	; 0x834
 8001c98:	2301      	movs	r3, #1
 8001c9a:	40a3      	lsls	r3, r4
  if ((epint & DIEPINT_TXFE) &&
 8001c9c:	4213      	tst	r3, r2
 8001c9e:	d115      	bne.n	8001ccc <otg_epin_handler.constprop.0+0x5c>
}
 8001ca0:	bdf8      	pop	{r3, r4, r5, r6, r7, pc}
    USBInEndpointState *isp = usbp->epc[ep]->in_state;
 8001ca2:	eb02 0384 	add.w	r3, r2, r4, lsl #2
 8001ca6:	68d8      	ldr	r0, [r3, #12]
 8001ca8:	6943      	ldr	r3, [r0, #20]
    if (isp->txsize < isp->totsize) {
 8001caa:	681f      	ldr	r7, [r3, #0]
 8001cac:	68d9      	ldr	r1, [r3, #12]
 8001cae:	428f      	cmp	r7, r1
 8001cb0:	d311      	bcc.n	8001cd6 <otg_epin_handler.constprop.0+0x66>
      _usb_isr_invoke_in_cb(usbp, ep);
 8001cb2:	8913      	ldrh	r3, [r2, #8]
 8001cb4:	6887      	ldr	r7, [r0, #8]
 8001cb6:	2101      	movs	r1, #1
 8001cb8:	40a1      	lsls	r1, r4
 8001cba:	ea23 0301 	bic.w	r3, r3, r1
 8001cbe:	8113      	strh	r3, [r2, #8]
 8001cc0:	2f00      	cmp	r7, #0
 8001cc2:	d0e5      	beq.n	8001c90 <otg_epin_handler.constprop.0+0x20>
 8001cc4:	4610      	mov	r0, r2
 8001cc6:	4621      	mov	r1, r4
 8001cc8:	47b8      	blx	r7
 8001cca:	e7e1      	b.n	8001c90 <otg_epin_handler.constprop.0+0x20>
    otg_txfifo_handler(usbp, ep);
 8001ccc:	4620      	mov	r0, r4
}
 8001cce:	e8bd 40f8 	ldmia.w	sp!, {r3, r4, r5, r6, r7, lr}
    otg_txfifo_handler(usbp, ep);
 8001cd2:	f7ff bbfd 	b.w	80014d0 <otg_txfifo_handler.constprop.0>
      isp->txsize = isp->totsize - isp->txsize;
 8001cd6:	1bc9      	subs	r1, r1, r7
      isp->txcnt  = 0;
 8001cd8:	2700      	movs	r7, #0
 8001cda:	e9c3 1700 	strd	r1, r7, [r3]
 8001cde:	2320      	movs	r3, #32
 8001ce0:	f383 8811 	msr	BASEPRI, r3
      usb_lld_start_in(usbp, ep);
 8001ce4:	4610      	mov	r0, r2
 8001ce6:	4621      	mov	r1, r4
 8001ce8:	f7ff ff72 	bl	8001bd0 <usb_lld_start_in>
 8001cec:	f387 8811 	msr	BASEPRI, r7
 8001cf0:	e7ce      	b.n	8001c90 <otg_epin_handler.constprop.0+0x20>
 8001cf2:	bf00      	nop
 8001cf4:	2000183c 	.word	0x2000183c
	...

08001d00 <usb_lld_start_out>:
  USBOutEndpointState *osp = usbp->epc[ep]->out_state;
 8001d00:	eb00 0381 	add.w	r3, r0, r1, lsl #2
void usb_lld_start_out(USBDriver *usbp, usbep_t ep) {
 8001d04:	b430      	push	{r4, r5}
  USBOutEndpointState *osp = usbp->epc[ep]->out_state;
 8001d06:	68dd      	ldr	r5, [r3, #12]
 8001d08:	69ab      	ldr	r3, [r5, #24]
  osp->totsize = osp->rxsize;
 8001d0a:	681c      	ldr	r4, [r3, #0]
 8001d0c:	60dc      	str	r4, [r3, #12]
  if ((ep == 0) && (osp->rxsize > EP0_MAX_OUTSIZE))
 8001d0e:	b919      	cbnz	r1, 8001d18 <usb_lld_start_out+0x18>
 8001d10:	2c40      	cmp	r4, #64	; 0x40
      osp->rxsize = EP0_MAX_OUTSIZE;
 8001d12:	bf84      	itt	hi
 8001d14:	2440      	movhi	r4, #64	; 0x40
 8001d16:	601c      	strhi	r4, [r3, #0]
  pcnt   = (osp->rxsize + usbp->epc[ep]->out_maxsize - 1U) /
 8001d18:	8a6b      	ldrh	r3, [r5, #18]
  usbp->otg->oe[ep].DOEPTSIZ = DOEPTSIZ_STUPCNT(3) | DOEPTSIZ_PKTCNT(pcnt) |
 8001d1a:	6d40      	ldr	r0, [r0, #84]	; 0x54
  if ((usbp->epc[ep]->ep_mode & USB_EP_MODE_TYPE) == USB_EP_MODE_TYPE_ISOC) {
 8001d1c:	682d      	ldr	r5, [r5, #0]
  pcnt   = (osp->rxsize + usbp->epc[ep]->out_maxsize - 1U) /
 8001d1e:	1e5a      	subs	r2, r3, #1
 8001d20:	4422      	add	r2, r4
 8001d22:	fbb2 f2f3 	udiv	r2, r2, r3
  rxsize = (pcnt * usbp->epc[ep]->out_maxsize + 3U) & 0xFFFFFFFCU;
 8001d26:	fb02 f303 	mul.w	r3, r2, r3
 8001d2a:	3303      	adds	r3, #3
 8001d2c:	f023 0303 	bic.w	r3, r3, #3
  usbp->otg->oe[ep].DOEPTSIZ = DOEPTSIZ_STUPCNT(3) | DOEPTSIZ_PKTCNT(pcnt) |
 8001d30:	ea43 43c2 	orr.w	r3, r3, r2, lsl #19
 8001d34:	eb00 1441 	add.w	r4, r0, r1, lsl #5
  if ((usbp->epc[ep]->ep_mode & USB_EP_MODE_TYPE) == USB_EP_MODE_TYPE_ISOC) {
 8001d38:	f005 0203 	and.w	r2, r5, #3
  usbp->otg->oe[ep].DOEPTSIZ = DOEPTSIZ_STUPCNT(3) | DOEPTSIZ_PKTCNT(pcnt) |
 8001d3c:	f043 43c0 	orr.w	r3, r3, #1610612736	; 0x60000000
  if ((usbp->epc[ep]->ep_mode & USB_EP_MODE_TYPE) == USB_EP_MODE_TYPE_ISOC) {
 8001d40:	2a01      	cmp	r2, #1
  usbp->otg->oe[ep].DOEPTSIZ = DOEPTSIZ_STUPCNT(3) | DOEPTSIZ_PKTCNT(pcnt) |
 8001d42:	f8c4 3b10 	str.w	r3, [r4, #2832]	; 0xb10
  if ((usbp->epc[ep]->ep_mode & USB_EP_MODE_TYPE) == USB_EP_MODE_TYPE_ISOC) {
 8001d46:	d00a      	beq.n	8001d5e <usb_lld_start_out+0x5e>
 8001d48:	b209      	sxth	r1, r1
  usbp->otg->oe[ep].DOEPCTL |= DOEPCTL_EPENA | DOEPCTL_CNAK;
 8001d4a:	eb00 1141 	add.w	r1, r0, r1, lsl #5
}
 8001d4e:	bc30      	pop	{r4, r5}
  usbp->otg->oe[ep].DOEPCTL |= DOEPCTL_EPENA | DOEPCTL_CNAK;
 8001d50:	f8d1 3b00 	ldr.w	r3, [r1, #2816]	; 0xb00
 8001d54:	f043 4304 	orr.w	r3, r3, #2214592512	; 0x84000000
 8001d58:	f8c1 3b00 	str.w	r3, [r1, #2816]	; 0xb00
}
 8001d5c:	4770      	bx	lr
    if (usbp->otg->DSTS & DSTS_FNSOF_ODD)
 8001d5e:	f8d0 3808 	ldr.w	r3, [r0, #2056]	; 0x808
 8001d62:	eb00 1241 	add.w	r2, r0, r1, lsl #5
 8001d66:	f413 7f80 	tst.w	r3, #256	; 0x100
      usbp->otg->oe[ep].DOEPCTL |= DOEPCTL_SEVNFRM;
 8001d6a:	f8d2 3b00 	ldr.w	r3, [r2, #2816]	; 0xb00
 8001d6e:	bf14      	ite	ne
 8001d70:	f043 5380 	orrne.w	r3, r3, #268435456	; 0x10000000
      usbp->otg->oe[ep].DOEPCTL |= DOEPCTL_SODDFRM;
 8001d74:	f043 5300 	orreq.w	r3, r3, #536870912	; 0x20000000
 8001d78:	b209      	sxth	r1, r1
 8001d7a:	f8c2 3b00 	str.w	r3, [r2, #2816]	; 0xb00
 8001d7e:	e7e4      	b.n	8001d4a <usb_lld_start_out+0x4a>

08001d80 <otg_epout_handler.constprop.0>:
static void otg_epout_handler(USBDriver *usbp, usbep_t ep) {
 8001d80:	e92d 41f0 	stmdb	sp!, {r4, r5, r6, r7, r8, lr}
  stm32_otg_t *otgp = usbp->otg;
 8001d84:	4f24      	ldr	r7, [pc, #144]	; (8001e18 <otg_epout_handler.constprop.0+0x98>)
 8001d86:	6d7e      	ldr	r6, [r7, #84]	; 0x54
  uint32_t epint = otgp->oe[ep].DOEPINT;
 8001d88:	eb06 1340 	add.w	r3, r6, r0, lsl #5
static void otg_epout_handler(USBDriver *usbp, usbep_t ep) {
 8001d8c:	4604      	mov	r4, r0
  uint32_t epint = otgp->oe[ep].DOEPINT;
 8001d8e:	f8d3 5b08 	ldr.w	r5, [r3, #2824]	; 0xb08
  otgp->oe[ep].DOEPINT = epint;
 8001d92:	f8c3 5b08 	str.w	r5, [r3, #2824]	; 0xb08
  if ((epint & DOEPINT_STUP) && (otgp->DOEPMSK & DOEPMSK_STUPM)) {
 8001d96:	0728      	lsls	r0, r5, #28
 8001d98:	d503      	bpl.n	8001da2 <otg_epout_handler.constprop.0+0x22>
 8001d9a:	f8d6 3814 	ldr.w	r3, [r6, #2068]	; 0x814
 8001d9e:	0719      	lsls	r1, r3, #28
 8001da0:	d431      	bmi.n	8001e06 <otg_epout_handler.constprop.0+0x86>
  if ((epint & DOEPINT_XFRC) && (otgp->DOEPMSK & DOEPMSK_XFRCM)) {
 8001da2:	07ea      	lsls	r2, r5, #31
 8001da4:	d52d      	bpl.n	8001e02 <otg_epout_handler.constprop.0+0x82>
 8001da6:	f8d6 3814 	ldr.w	r3, [r6, #2068]	; 0x814
 8001daa:	07db      	lsls	r3, r3, #31
 8001dac:	d529      	bpl.n	8001e02 <otg_epout_handler.constprop.0+0x82>
    osp = usbp->epc[ep]->out_state;
 8001dae:	eb07 0384 	add.w	r3, r7, r4, lsl #2
 8001db2:	68d9      	ldr	r1, [r3, #12]
    if (ep == 0) {
 8001db4:	b95c      	cbnz	r4, 8001dce <otg_epout_handler.constprop.0+0x4e>
    osp = usbp->epc[ep]->out_state;
 8001db6:	698a      	ldr	r2, [r1, #24]
      if (((osp->rxcnt % usbp->epc[ep]->out_maxsize) == 0) &&
 8001db8:	8a48      	ldrh	r0, [r1, #18]
 8001dba:	6855      	ldr	r5, [r2, #4]
 8001dbc:	fbb5 f3f0 	udiv	r3, r5, r0
 8001dc0:	fb00 5313 	mls	r3, r0, r3, r5
 8001dc4:	b91b      	cbnz	r3, 8001dce <otg_epout_handler.constprop.0+0x4e>
          (osp->rxsize < osp->totsize)) {
 8001dc6:	6810      	ldr	r0, [r2, #0]
 8001dc8:	68d3      	ldr	r3, [r2, #12]
      if (((osp->rxcnt % usbp->epc[ep]->out_maxsize) == 0) &&
 8001dca:	4298      	cmp	r0, r3
 8001dcc:	d30d      	bcc.n	8001dea <otg_epout_handler.constprop.0+0x6a>
    _usb_isr_invoke_out_cb(usbp, ep);
 8001dce:	897b      	ldrh	r3, [r7, #10]
 8001dd0:	68cd      	ldr	r5, [r1, #12]
 8001dd2:	2201      	movs	r2, #1
 8001dd4:	40a2      	lsls	r2, r4
 8001dd6:	ea23 0302 	bic.w	r3, r3, r2
 8001dda:	817b      	strh	r3, [r7, #10]
 8001ddc:	b18d      	cbz	r5, 8001e02 <otg_epout_handler.constprop.0+0x82>
 8001dde:	4621      	mov	r1, r4
 8001de0:	462b      	mov	r3, r5
 8001de2:	480d      	ldr	r0, [pc, #52]	; (8001e18 <otg_epout_handler.constprop.0+0x98>)
}
 8001de4:	e8bd 41f0 	ldmia.w	sp!, {r4, r5, r6, r7, r8, lr}
    _usb_isr_invoke_out_cb(usbp, ep);
 8001de8:	4718      	bx	r3
        osp->rxsize = osp->totsize - osp->rxsize;
 8001dea:	1a1b      	subs	r3, r3, r0
        osp->rxcnt  = 0;
 8001dec:	e9c2 3400 	strd	r3, r4, [r2]
 8001df0:	2320      	movs	r3, #32
 8001df2:	f383 8811 	msr	BASEPRI, r3
        usb_lld_start_out(usbp, ep);
 8001df6:	4808      	ldr	r0, [pc, #32]	; (8001e18 <otg_epout_handler.constprop.0+0x98>)
 8001df8:	4621      	mov	r1, r4
 8001dfa:	f7ff ff81 	bl	8001d00 <usb_lld_start_out>
 8001dfe:	f384 8811 	msr	BASEPRI, r4
}
 8001e02:	e8bd 81f0 	ldmia.w	sp!, {r4, r5, r6, r7, r8, pc}
    _usb_isr_invoke_setup_cb(usbp, ep);
 8001e06:	eb07 0384 	add.w	r3, r7, r4, lsl #2
 8001e0a:	4621      	mov	r1, r4
 8001e0c:	68db      	ldr	r3, [r3, #12]
 8001e0e:	4638      	mov	r0, r7
 8001e10:	685b      	ldr	r3, [r3, #4]
 8001e12:	4798      	blx	r3
 8001e14:	e7c5      	b.n	8001da2 <otg_epout_handler.constprop.0+0x22>
 8001e16:	bf00      	nop
 8001e18:	2000183c 	.word	0x2000183c
 8001e1c:	00000000 	.word	0x00000000

08001e20 <_pal_lld_setgroupmode>:
 *
 * @notapi
 */
void _pal_lld_setgroupmode(ioportid_t port,
                           ioportmask_t mask,
                           iomode_t mode) {
 8001e20:	e92d 4ff0 	stmdb	sp!, {r4, r5, r6, r7, r8, r9, sl, fp, lr}
 8001e24:	b083      	sub	sp, #12

  uint32_t moder   = (mode & PAL_STM32_MODE_MASK) >> 0;
 8001e26:	f002 0c03 	and.w	ip, r2, #3
                           iomode_t mode) {
 8001e2a:	9201      	str	r2, [sp, #4]
  uint32_t moder   = (mode & PAL_STM32_MODE_MASK) >> 0;
 8001e2c:	4666      	mov	r6, ip
  uint32_t otyper  = (mode & PAL_STM32_OTYPE_MASK) >> 2;
  uint32_t ospeedr = (mode & PAL_STM32_OSPEED_MASK) >> 3;
  uint32_t pupdr   = (mode & PAL_STM32_PUPDR_MASK) >> 5;
 8001e2e:	f3c2 1541 	ubfx	r5, r2, #5, #2
  uint32_t altr    = (mode & PAL_STM32_ALTERNATE_MASK) >> 7;
 8001e32:	09d7      	lsrs	r7, r2, #7
  uint32_t bit     = 0;
 8001e34:	2400      	movs	r4, #0
      uint32_t altrmask, m1, m2, m4;

      altrmask = altr << ((bit & 7) * 4);
      m1 = 1 << bit;
      m2 = 3 << (bit * 2);
      m4 = 15 << ((bit & 7) * 4);
 8001e36:	f04f 090f 	mov.w	r9, #15
      m1 = 1 << bit;
 8001e3a:	f04f 0801 	mov.w	r8, #1
      m2 = 3 << (bit * 2);
 8001e3e:	f04f 0e03 	mov.w	lr, #3
 8001e42:	e012      	b.n	8001e6a <_pal_lld_setgroupmode+0x4a>
        port->MODER   = (port->MODER & ~m2) | moder;
      }
      else {
        /* If going into a non-alternate mode then the mode is switched
           before setting the alternate mode in order to avoid glitches.*/
        port->MODER   = (port->MODER & ~m2) | moder;
 8001e44:	f8d0 b000 	ldr.w	fp, [r0]
 8001e48:	ea03 030b 	and.w	r3, r3, fp
 8001e4c:	4333      	orrs	r3, r6
        if (bit < 8)
 8001e4e:	2c07      	cmp	r4, #7
        port->MODER   = (port->MODER & ~m2) | moder;
 8001e50:	6003      	str	r3, [r0, #0]
        if (bit < 8)
 8001e52:	d83d      	bhi.n	8001ed0 <_pal_lld_setgroupmode+0xb0>
          port->AFRL = (port->AFRL & ~m4) | altrmask;
 8001e54:	6a03      	ldr	r3, [r0, #32]
 8001e56:	ea23 0a0a 	bic.w	sl, r3, sl
 8001e5a:	ea4a 0202 	orr.w	r2, sl, r2
 8001e5e:	6202      	str	r2, [r0, #32]
        else
          port->AFRH = (port->AFRH & ~m4) | altrmask;
      }
    }
    mask >>= 1;
    if (!mask)
 8001e60:	0849      	lsrs	r1, r1, #1
 8001e62:	d032      	beq.n	8001eca <_pal_lld_setgroupmode+0xaa>
      return;
    otyper <<= 1;
    ospeedr <<= 2;
    pupdr <<= 2;
 8001e64:	00ad      	lsls	r5, r5, #2
    moder <<= 2;
 8001e66:	00b6      	lsls	r6, r6, #2
    bit++;
 8001e68:	3401      	adds	r4, #1
    if ((mask & 1) != 0) {
 8001e6a:	07cb      	lsls	r3, r1, #31
 8001e6c:	d5f8      	bpl.n	8001e60 <_pal_lld_setgroupmode+0x40>
      port->OTYPER  = (port->OTYPER & ~m1) | otyper;
 8001e6e:	6843      	ldr	r3, [r0, #4]
      m1 = 1 << bit;
 8001e70:	fa08 f204 	lsl.w	r2, r8, r4
      port->OTYPER  = (port->OTYPER & ~m1) | otyper;
 8001e74:	ea23 0302 	bic.w	r3, r3, r2
 8001e78:	6043      	str	r3, [r0, #4]
      port->OSPEEDR = (port->OSPEEDR & ~m2) | ospeedr;
 8001e7a:	6882      	ldr	r2, [r0, #8]
      m2 = 3 << (bit * 2);
 8001e7c:	0063      	lsls	r3, r4, #1
 8001e7e:	fa0e f303 	lsl.w	r3, lr, r3
      port->OSPEEDR = (port->OSPEEDR & ~m2) | ospeedr;
 8001e82:	ea22 0203 	bic.w	r2, r2, r3
 8001e86:	6082      	str	r2, [r0, #8]
      port->PUPDR   = (port->PUPDR & ~m2) | pupdr;
 8001e88:	68c2      	ldr	r2, [r0, #12]
      altrmask = altr << ((bit & 7) * 4);
 8001e8a:	f004 0a07 	and.w	sl, r4, #7
      port->PUPDR   = (port->PUPDR & ~m2) | pupdr;
 8001e8e:	ea22 0203 	bic.w	r2, r2, r3
 8001e92:	432a      	orrs	r2, r5
      altrmask = altr << ((bit & 7) * 4);
 8001e94:	ea4f 0a8a 	mov.w	sl, sl, lsl #2
      if ((mode & PAL_STM32_MODE_MASK) == PAL_STM32_MODE_ALTERNATE) {
 8001e98:	f1bc 0f02 	cmp.w	ip, #2
      port->PUPDR   = (port->PUPDR & ~m2) | pupdr;
 8001e9c:	60c2      	str	r2, [r0, #12]
      port->OSPEEDR = (port->OSPEEDR & ~m2) | ospeedr;
 8001e9e:	ea6f 0303 	mvn.w	r3, r3
      altrmask = altr << ((bit & 7) * 4);
 8001ea2:	fa07 f20a 	lsl.w	r2, r7, sl
      m4 = 15 << ((bit & 7) * 4);
 8001ea6:	fa09 fa0a 	lsl.w	sl, r9, sl
      if ((mode & PAL_STM32_MODE_MASK) == PAL_STM32_MODE_ALTERNATE) {
 8001eaa:	d1cb      	bne.n	8001e44 <_pal_lld_setgroupmode+0x24>
        if (bit < 8)
 8001eac:	2c07      	cmp	r4, #7
 8001eae:	d816      	bhi.n	8001ede <_pal_lld_setgroupmode+0xbe>
          port->AFRL = (port->AFRL & ~m4) | altrmask;
 8001eb0:	f8d0 b020 	ldr.w	fp, [r0, #32]
 8001eb4:	ea2b 0a0a 	bic.w	sl, fp, sl
 8001eb8:	ea4a 0202 	orr.w	r2, sl, r2
 8001ebc:	6202      	str	r2, [r0, #32]
        port->MODER   = (port->MODER & ~m2) | moder;
 8001ebe:	6802      	ldr	r2, [r0, #0]
 8001ec0:	4013      	ands	r3, r2
 8001ec2:	4333      	orrs	r3, r6
    if (!mask)
 8001ec4:	0849      	lsrs	r1, r1, #1
        port->MODER   = (port->MODER & ~m2) | moder;
 8001ec6:	6003      	str	r3, [r0, #0]
    if (!mask)
 8001ec8:	d1cc      	bne.n	8001e64 <_pal_lld_setgroupmode+0x44>
  }
}
 8001eca:	b003      	add	sp, #12
 8001ecc:	e8bd 8ff0 	ldmia.w	sp!, {r4, r5, r6, r7, r8, r9, sl, fp, pc}
          port->AFRH = (port->AFRH & ~m4) | altrmask;
 8001ed0:	6a43      	ldr	r3, [r0, #36]	; 0x24
 8001ed2:	ea23 0a0a 	bic.w	sl, r3, sl
 8001ed6:	ea4a 0202 	orr.w	r2, sl, r2
 8001eda:	6242      	str	r2, [r0, #36]	; 0x24
 8001edc:	e7c0      	b.n	8001e60 <_pal_lld_setgroupmode+0x40>
          port->AFRH = (port->AFRH & ~m4) | altrmask;
 8001ede:	f8d0 b024 	ldr.w	fp, [r0, #36]	; 0x24
 8001ee2:	ea2b 0a0a 	bic.w	sl, fp, sl
 8001ee6:	ea4a 0202 	orr.w	r2, sl, r2
 8001eea:	6242      	str	r2, [r0, #36]	; 0x24
 8001eec:	e7e7      	b.n	8001ebe <_pal_lld_setgroupmode+0x9e>
 8001eee:	bf00      	nop

08001ef0 <_usb_ep0out>:
 * @param[in] usbp      pointer to the @p USBDriver object
 * @param[in] ep        endpoint number, always zero
 *
 * @notapi
 */
void _usb_ep0out(USBDriver *usbp, usbep_t ep) {
 8001ef0:	b538      	push	{r3, r4, r5, lr}
 8001ef2:	f890 3034 	ldrb.w	r3, [r0, #52]	; 0x34
 8001ef6:	4604      	mov	r4, r0
 8001ef8:	2b15      	cmp	r3, #21
 8001efa:	d816      	bhi.n	8001f2a <_usb_ep0out+0x3a>
 8001efc:	e8df f003 	tbb	[pc, r3]
 8001f00:	15151516 	.word	0x15151516
 8001f04:	15161515 	.word	0x15161515
 8001f08:	16161615 	.word	0x16161615
 8001f0c:	15151515 	.word	0x15151515
 8001f10:	15151515 	.word	0x15151515
 8001f14:	2c0b      	.short	0x2c0b
    return;
  case USB_EP0_OUT_WAITING_STS:
    /* Status packet received, it must be zero sized, invoking the callback
       if defined.*/
#if (USB_EP0_STATUS_STAGE == USB_EP0_STATUS_STAGE_SW)
    if (usbGetReceiveTransactionSizeX(usbp, 0) != 0U) {
 8001f16:	68c3      	ldr	r3, [r0, #12]
 8001f18:	699b      	ldr	r3, [r3, #24]
 8001f1a:	685b      	ldr	r3, [r3, #4]
 8001f1c:	b92b      	cbnz	r3, 8001f2a <_usb_ep0out+0x3a>
      break;
    }
#endif
    if (usbp->ep0endcb != NULL) {
 8001f1e:	6c03      	ldr	r3, [r0, #64]	; 0x40
 8001f20:	b103      	cbz	r3, 8001f24 <_usb_ep0out+0x34>
      usbp->ep0endcb(usbp);
 8001f22:	4798      	blx	r3
    }
    usbp->ep0state = USB_EP0_STP_WAITING;
 8001f24:	2300      	movs	r3, #0
 8001f26:	f884 3034 	strb.w	r3, [r4, #52]	; 0x34
    usbp->ep0state = USB_EP0_ERROR;
    return;
  default:
    osalDbgAssert(false, "EP0 state machine invalid state");
  }
}
 8001f2a:	bd38      	pop	{r3, r4, r5, pc}
 *
 * @notapi
 */
void usb_lld_stall_in(USBDriver *usbp, usbep_t ep) {

  usbp->otg->ie[ep].DIEPCTL |= DIEPCTL_STALL;
 8001f2c:	6d43      	ldr	r3, [r0, #84]	; 0x54
    _usb_isr_invoke_event_cb(usbp, USB_EVENT_STALLED);
 8001f2e:	6841      	ldr	r1, [r0, #4]
 8001f30:	f8d3 2900 	ldr.w	r2, [r3, #2304]	; 0x900
 8001f34:	680d      	ldr	r5, [r1, #0]
 8001f36:	f442 1200 	orr.w	r2, r2, #2097152	; 0x200000
 8001f3a:	f8c3 2900 	str.w	r2, [r3, #2304]	; 0x900
  usbp->otg->oe[ep].DOEPCTL |= DOEPCTL_STALL;
 8001f3e:	f8d3 2b00 	ldr.w	r2, [r3, #2816]	; 0xb00
 8001f42:	f442 1200 	orr.w	r2, r2, #2097152	; 0x200000
 8001f46:	f8c3 2b00 	str.w	r2, [r3, #2816]	; 0xb00
 8001f4a:	b10d      	cbz	r5, 8001f50 <_usb_ep0out+0x60>
 8001f4c:	2106      	movs	r1, #6
 8001f4e:	47a8      	blx	r5
    usbp->ep0state = USB_EP0_ERROR;
 8001f50:	2306      	movs	r3, #6
 8001f52:	f884 3034 	strb.w	r3, [r4, #52]	; 0x34
}
 8001f56:	bd38      	pop	{r3, r4, r5, pc}
    usbp->ep0state = USB_EP0_IN_SENDING_STS;
 8001f58:	230b      	movs	r3, #11
 8001f5a:	f880 3034 	strb.w	r3, [r0, #52]	; 0x34
 8001f5e:	2320      	movs	r3, #32
 8001f60:	f383 8811 	msr	BASEPRI, r3
  isp = usbp->epc[ep]->in_state;
 8001f64:	68c3      	ldr	r3, [r0, #12]
  usbp->transmitting |= (uint16_t)((unsigned)1U << (unsigned)ep);
 8001f66:	8902      	ldrh	r2, [r0, #8]
  isp = usbp->epc[ep]->in_state;
 8001f68:	695b      	ldr	r3, [r3, #20]
  isp->txbuf  = buf;
 8001f6a:	2500      	movs	r5, #0
  usbp->transmitting |= (uint16_t)((unsigned)1U << (unsigned)ep);
 8001f6c:	f042 0201 	orr.w	r2, r2, #1
 8001f70:	8102      	strh	r2, [r0, #8]
  usb_lld_start_in(usbp, ep);
 8001f72:	4629      	mov	r1, r5
  isp->txcnt  = 0;
 8001f74:	e9c3 5500 	strd	r5, r5, [r3]
  isp->txbuf  = buf;
 8001f78:	609d      	str	r5, [r3, #8]
  usb_lld_start_in(usbp, ep);
 8001f7a:	f7ff fe29 	bl	8001bd0 <usb_lld_start_in>
 8001f7e:	f385 8811 	msr	BASEPRI, r5
}
 8001f82:	bd38      	pop	{r3, r4, r5, pc}
	...

08001f90 <_usb_ep0in>:
void _usb_ep0in(USBDriver *usbp, usbep_t ep) {
 8001f90:	b538      	push	{r3, r4, r5, lr}
 8001f92:	f890 3034 	ldrb.w	r3, [r0, #52]	; 0x34
 8001f96:	4604      	mov	r4, r0
 8001f98:	2b15      	cmp	r3, #21
 8001f9a:	d821      	bhi.n	8001fe0 <_usb_ep0in+0x50>
 8001f9c:	e8df f003 	tbb	[pc, r3]
 8001fa0:	2020200b 	.word	0x2020200b
 8001fa4:	200b2020 	.word	0x200b2020
 8001fa8:	48312120 	.word	0x48312120
 8001fac:	20202020 	.word	0x20202020
 8001fb0:	20202020 	.word	0x20202020
 8001fb4:	0b0b      	.short	0x0b0b
  usbp->otg->ie[ep].DIEPCTL |= DIEPCTL_STALL;
 8001fb6:	6d43      	ldr	r3, [r0, #84]	; 0x54
    _usb_isr_invoke_event_cb(usbp, USB_EVENT_STALLED);
 8001fb8:	6841      	ldr	r1, [r0, #4]
 8001fba:	f8d3 2900 	ldr.w	r2, [r3, #2304]	; 0x900
 8001fbe:	680d      	ldr	r5, [r1, #0]
 8001fc0:	f442 1200 	orr.w	r2, r2, #2097152	; 0x200000
 8001fc4:	f8c3 2900 	str.w	r2, [r3, #2304]	; 0x900
  usbp->otg->oe[ep].DOEPCTL |= DOEPCTL_STALL;
 8001fc8:	f8d3 2b00 	ldr.w	r2, [r3, #2816]	; 0xb00
 8001fcc:	f442 1200 	orr.w	r2, r2, #2097152	; 0x200000
 8001fd0:	f8c3 2b00 	str.w	r2, [r3, #2816]	; 0xb00
 8001fd4:	b10d      	cbz	r5, 8001fda <_usb_ep0in+0x4a>
 8001fd6:	2106      	movs	r1, #6
 8001fd8:	47a8      	blx	r5
    usbp->ep0state = USB_EP0_ERROR;
 8001fda:	2306      	movs	r3, #6
 8001fdc:	f884 3034 	strb.w	r3, [r4, #52]	; 0x34
}
 8001fe0:	bd38      	pop	{r3, r4, r5, pc}
  hw |= (uint16_t)*p << 8U;
 8001fe2:	f890 204b 	ldrb.w	r2, [r0, #75]	; 0x4b
 8001fe6:	f890 304a 	ldrb.w	r3, [r0, #74]	; 0x4a
    if ((usbp->ep0n < max) &&
 8001fea:	6bc1      	ldr	r1, [r0, #60]	; 0x3c
    max = (size_t)get_hword(&usbp->setup[6]);
 8001fec:	ea43 2302 	orr.w	r3, r3, r2, lsl #8
    if ((usbp->ep0n < max) &&
 8001ff0:	4299      	cmp	r1, r3
 8001ff2:	d206      	bcs.n	8002002 <_usb_ep0in+0x72>
        ((usbp->ep0n % usbp->epc[0]->in_maxsize) == 0U)) {
 8001ff4:	68c3      	ldr	r3, [r0, #12]
 8001ff6:	8a1b      	ldrh	r3, [r3, #16]
 8001ff8:	fbb1 f5f3 	udiv	r5, r1, r3
 8001ffc:	fb03 1515 	mls	r5, r3, r5, r1
    if ((usbp->ep0n < max) &&
 8002000:	b1ed      	cbz	r5, 800203e <_usb_ep0in+0xae>
    usbp->ep0state = USB_EP0_OUT_WAITING_STS;
 8002002:	2314      	movs	r3, #20
 8002004:	f884 3034 	strb.w	r3, [r4, #52]	; 0x34
 8002008:	2320      	movs	r3, #32
 800200a:	f383 8811 	msr	BASEPRI, r3
  osp = usbp->epc[ep]->out_state;
 800200e:	68e3      	ldr	r3, [r4, #12]
  usbp->receiving |= (uint16_t)((unsigned)1U << (unsigned)ep);
 8002010:	8962      	ldrh	r2, [r4, #10]
  osp = usbp->epc[ep]->out_state;
 8002012:	699b      	ldr	r3, [r3, #24]
  osp->rxbuf  = buf;
 8002014:	2500      	movs	r5, #0
  usbp->receiving |= (uint16_t)((unsigned)1U << (unsigned)ep);
 8002016:	f042 0201 	orr.w	r2, r2, #1
 800201a:	8162      	strh	r2, [r4, #10]
  usb_lld_start_out(usbp, ep);
 800201c:	4620      	mov	r0, r4
  osp->rxcnt  = 0;
 800201e:	e9c3 5500 	strd	r5, r5, [r3]
  osp->rxbuf  = buf;
 8002022:	609d      	str	r5, [r3, #8]
  usb_lld_start_out(usbp, ep);
 8002024:	4629      	mov	r1, r5
 8002026:	f7ff fe6b 	bl	8001d00 <usb_lld_start_out>
 800202a:	f385 8811 	msr	BASEPRI, r5
}
 800202e:	bd38      	pop	{r3, r4, r5, pc}
    if (usbp->ep0endcb != NULL) {
 8002030:	6c03      	ldr	r3, [r0, #64]	; 0x40
 8002032:	b103      	cbz	r3, 8002036 <_usb_ep0in+0xa6>
      usbp->ep0endcb(usbp);
 8002034:	4798      	blx	r3
    usbp->ep0state = USB_EP0_STP_WAITING;
 8002036:	2300      	movs	r3, #0
 8002038:	f884 3034 	strb.w	r3, [r4, #52]	; 0x34
}
 800203c:	bd38      	pop	{r3, r4, r5, pc}
 800203e:	2320      	movs	r3, #32
 8002040:	f383 8811 	msr	BASEPRI, r3
  isp = usbp->epc[ep]->in_state;
 8002044:	68c3      	ldr	r3, [r0, #12]
  usbp->transmitting |= (uint16_t)((unsigned)1U << (unsigned)ep);
 8002046:	8902      	ldrh	r2, [r0, #8]
  isp = usbp->epc[ep]->in_state;
 8002048:	695b      	ldr	r3, [r3, #20]
  usbp->transmitting |= (uint16_t)((unsigned)1U << (unsigned)ep);
 800204a:	f042 0201 	orr.w	r2, r2, #1
 800204e:	8102      	strh	r2, [r0, #8]
  usb_lld_start_in(usbp, ep);
 8002050:	4629      	mov	r1, r5
  isp->txcnt  = 0;
 8002052:	e9c3 5500 	strd	r5, r5, [r3]
  isp->txbuf  = buf;
 8002056:	609d      	str	r5, [r3, #8]
  usb_lld_start_in(usbp, ep);
 8002058:	f7ff fdba 	bl	8001bd0 <usb_lld_start_in>
 800205c:	f385 8811 	msr	BASEPRI, r5
      usbp->ep0state = USB_EP0_IN_WAITING_TX0;
 8002060:	230a      	movs	r3, #10
 8002062:	f884 3034 	strb.w	r3, [r4, #52]	; 0x34
}
 8002066:	bd38      	pop	{r3, r4, r5, pc}
	...

08002070 <usbStartTransmitI>:
                       const uint8_t *buf, size_t n) {
 8002070:	b4f0      	push	{r4, r5, r6, r7}
  isp = usbp->epc[ep]->in_state;
 8002072:	eb00 0581 	add.w	r5, r0, r1, lsl #2
  usbp->transmitting |= (uint16_t)((unsigned)1U << (unsigned)ep);
 8002076:	8907      	ldrh	r7, [r0, #8]
  isp = usbp->epc[ep]->in_state;
 8002078:	f8d5 c00c 	ldr.w	ip, [r5, #12]
  usbp->transmitting |= (uint16_t)((unsigned)1U << (unsigned)ep);
 800207c:	2501      	movs	r5, #1
  isp = usbp->epc[ep]->in_state;
 800207e:	f8dc 6014 	ldr.w	r6, [ip, #20]
  usbp->transmitting |= (uint16_t)((unsigned)1U << (unsigned)ep);
 8002082:	408d      	lsls	r5, r1
 8002084:	433d      	orrs	r5, r7
  isp->txcnt  = 0;
 8002086:	2700      	movs	r7, #0
  usbp->transmitting |= (uint16_t)((unsigned)1U << (unsigned)ep);
 8002088:	8105      	strh	r5, [r0, #8]
  isp->txcnt  = 0;
 800208a:	e9c6 3700 	strd	r3, r7, [r6]
  isp->txbuf  = buf;
 800208e:	60b2      	str	r2, [r6, #8]
}
 8002090:	bcf0      	pop	{r4, r5, r6, r7}
  usb_lld_start_in(usbp, ep);
 8002092:	f7ff bd9d 	b.w	8001bd0 <usb_lld_start_in>
 8002096:	bf00      	nop
	...

080020a0 <usbDisableEndpointsI>:
  otg_ram_reset(usbp);
 80020a0:	6d81      	ldr	r1, [r0, #88]	; 0x58
  usbp->transmitting &= 1U;
 80020a2:	6883      	ldr	r3, [r0, #8]
void usbDisableEndpointsI(USBDriver *usbp) {
 80020a4:	b4f0      	push	{r4, r5, r6, r7}
  usbp->pmnext = usbp->otgparams->rx_fifo_size;
 80020a6:	680c      	ldr	r4, [r1, #0]
 80020a8:	65c4      	str	r4, [r0, #92]	; 0x5c
    usbp->epc[i] = NULL;
 80020aa:	2200      	movs	r2, #0
  usbp->transmitting &= 1U;
 80020ac:	f003 1301 	and.w	r3, r3, #65537	; 0x10001
  for (i = 0; i <= usbp->otgparams->num_endpoints; i++) {
 80020b0:	688f      	ldr	r7, [r1, #8]
  otg_disable_ep(usbp);
 80020b2:	6d44      	ldr	r4, [r0, #84]	; 0x54
 80020b4:	6083      	str	r3, [r0, #8]
    usbp->epc[i] = NULL;
 80020b6:	e9c0 2204 	strd	r2, r2, [r0, #16]
 80020ba:	6182      	str	r2, [r0, #24]
    otgp->ie[i].DIEPINT = 0xFFFFFFFF;
 80020bc:	f04f 35ff 	mov.w	r5, #4294967295	; 0xffffffff
 80020c0:	e000      	b.n	80020c4 <usbDisableEndpointsI+0x24>
  for (i = 0; i <= usbp->otgparams->num_endpoints; i++) {
 80020c2:	4632      	mov	r2, r6
    otgp->ie[i].DIEPINT = 0xFFFFFFFF;
 80020c4:	eb04 1142 	add.w	r1, r4, r2, lsl #5
 80020c8:	460b      	mov	r3, r1
    if ((otgp->ie[i].DIEPCTL & DIEPCTL_EPENA) != 0U) {
 80020ca:	f8d1 0900 	ldr.w	r0, [r1, #2304]	; 0x900
 80020ce:	2800      	cmp	r0, #0
  for (i = 0; i <= usbp->otgparams->num_endpoints; i++) {
 80020d0:	f102 0601 	add.w	r6, r2, #1
    if ((otgp->ie[i].DIEPCTL & DIEPCTL_EPENA) != 0U) {
 80020d4:	da05      	bge.n	80020e2 <usbDisableEndpointsI+0x42>
      otgp->ie[i].DIEPCTL |= DIEPCTL_EPDIS;
 80020d6:	f8d1 0900 	ldr.w	r0, [r1, #2304]	; 0x900
 80020da:	f040 4080 	orr.w	r0, r0, #1073741824	; 0x40000000
 80020de:	f8c1 0900 	str.w	r0, [r1, #2304]	; 0x900
    if ((otgp->oe[i].DOEPCTL & DIEPCTL_EPENA) != 0U) {
 80020e2:	f8d1 0b00 	ldr.w	r0, [r1, #2816]	; 0xb00
 80020e6:	2800      	cmp	r0, #0
 80020e8:	da05      	bge.n	80020f6 <usbDisableEndpointsI+0x56>
      otgp->oe[i].DOEPCTL |= DIEPCTL_EPDIS;
 80020ea:	f8d1 0b00 	ldr.w	r0, [r1, #2816]	; 0xb00
 80020ee:	f040 4080 	orr.w	r0, r0, #1073741824	; 0x40000000
 80020f2:	f8c1 0b00 	str.w	r0, [r1, #2816]	; 0xb00
  for (i = 0; i <= usbp->otgparams->num_endpoints; i++) {
 80020f6:	42ba      	cmp	r2, r7
    otgp->ie[i].DIEPINT = 0xFFFFFFFF;
 80020f8:	f8c3 5908 	str.w	r5, [r3, #2312]	; 0x908
    otgp->oe[i].DOEPINT = 0xFFFFFFFF;
 80020fc:	f8c3 5b08 	str.w	r5, [r3, #2824]	; 0xb08
  for (i = 0; i <= usbp->otgparams->num_endpoints; i++) {
 8002100:	d1df      	bne.n	80020c2 <usbDisableEndpointsI+0x22>
  otgp->DAINTMSK = DAINTMSK_OEPM(0) | DAINTMSK_IEPM(0);
 8002102:	f04f 1301 	mov.w	r3, #65537	; 0x10001
 8002106:	f8c4 381c 	str.w	r3, [r4, #2076]	; 0x81c
}
 800210a:	bcf0      	pop	{r4, r5, r6, r7}
 800210c:	4770      	bx	lr
 800210e:	bf00      	nop

08002110 <sduInterruptTransmitted>:
 */
void sduInterruptTransmitted(USBDriver *usbp, usbep_t ep) {

  (void)usbp;
  (void)ep;
}
 8002110:	4770      	bx	lr
 8002112:	bf00      	nop
	...

08002120 <_ctl.lto_priv.0>:
}
 8002120:	2000      	movs	r0, #0
 8002122:	4770      	bx	lr
	...

08002130 <_ctl.lto_priv.1>:
 8002130:	2000      	movs	r0, #0
 8002132:	4770      	bx	lr
	...

08002140 <sdu_start_receive>:
static bool sdu_start_receive(SerialUSBDriver *sdup) {
 8002140:	b5f8      	push	{r3, r4, r5, r6, r7, lr}
  if ((usbGetDriverStateI(sdup->config->usbp) != USB_ACTIVE) ||
 8002142:	f8d0 148c 	ldr.w	r1, [r0, #1164]	; 0x48c
 8002146:	680a      	ldr	r2, [r1, #0]
 8002148:	7813      	ldrb	r3, [r2, #0]
 800214a:	2b04      	cmp	r3, #4
 800214c:	d102      	bne.n	8002154 <sdu_start_receive+0x14>
 800214e:	7a03      	ldrb	r3, [r0, #8]
 8002150:	2b02      	cmp	r3, #2
 8002152:	d001      	beq.n	8002158 <sdu_start_receive+0x18>
    return true;
 8002154:	2001      	movs	r0, #1
}
 8002156:	bdf8      	pop	{r3, r4, r5, r6, r7, pc}
  if (usbGetReceiveStatusI(sdup->config->usbp, sdup->config->bulk_in)) {
 8002158:	790c      	ldrb	r4, [r1, #4]
 800215a:	8955      	ldrh	r5, [r2, #10]
 800215c:	2301      	movs	r3, #1
 800215e:	fa03 f404 	lsl.w	r4, r3, r4
 8002162:	4225      	tst	r5, r4
 8002164:	d1f6      	bne.n	8002154 <sdu_start_receive+0x14>
 */
uint8_t *ibqGetEmptyBufferI(input_buffers_queue_t *ibqp) {

  osalDbgCheckClassI();

  if (ibqIsFullI(ibqp)) {
 8002166:	e9d0 4607 	ldrd	r4, r6, [r0, #28]
 800216a:	42b4      	cmp	r4, r6
 800216c:	d014      	beq.n	8002198 <sdu_start_receive+0x58>
  usbStartReceiveI(sdup->config->usbp, sdup->config->bulk_out,
 800216e:	7949      	ldrb	r1, [r1, #5]
  osp = usbp->epc[ep]->out_state;
 8002170:	eb02 0381 	add.w	r3, r2, r1, lsl #2
  usbp->receiving |= (uint16_t)((unsigned)1U << (unsigned)ep);
 8002174:	2001      	movs	r0, #1
  osp = usbp->epc[ep]->out_state;
 8002176:	68db      	ldr	r3, [r3, #12]
  usbp->receiving |= (uint16_t)((unsigned)1U << (unsigned)ep);
 8002178:	4088      	lsls	r0, r1
  osp = usbp->epc[ep]->out_state;
 800217a:	699e      	ldr	r6, [r3, #24]
  usbp->receiving |= (uint16_t)((unsigned)1U << (unsigned)ep);
 800217c:	4305      	orrs	r5, r0
    return NULL;
  }

  return ibqp->bwrptr + sizeof (size_t);
 800217e:	1d23      	adds	r3, r4, #4
  osp->rxsize = n;
 8002180:	f44f 7780 	mov.w	r7, #256	; 0x100
  osp->rxcnt  = 0;
 8002184:	2400      	movs	r4, #0
  usbp->receiving |= (uint16_t)((unsigned)1U << (unsigned)ep);
 8002186:	8155      	strh	r5, [r2, #10]
  usb_lld_start_out(usbp, ep);
 8002188:	4610      	mov	r0, r2
  osp->rxcnt  = 0;
 800218a:	e9c6 7400 	strd	r7, r4, [r6]
  osp->rxbuf  = buf;
 800218e:	60b3      	str	r3, [r6, #8]
  usb_lld_start_out(usbp, ep);
 8002190:	f7ff fdb6 	bl	8001d00 <usb_lld_start_out>
  return false;
 8002194:	4620      	mov	r0, r4
}
 8002196:	bdf8      	pop	{r3, r4, r5, r6, r7, pc}
  if (ibqIsFullI(ibqp)) {
 8002198:	6980      	ldr	r0, [r0, #24]
 800219a:	2800      	cmp	r0, #0
 800219c:	d0e7      	beq.n	800216e <sdu_start_receive+0x2e>
 800219e:	e7d9      	b.n	8002154 <sdu_start_receive+0x14>

080021a0 <ibnotify>:
  (void) sdu_start_receive(sdup);
 80021a0:	6b40      	ldr	r0, [r0, #52]	; 0x34
 80021a2:	f7ff bfcd 	b.w	8002140 <sdu_start_receive>
 80021a6:	bf00      	nop
	...

080021b0 <sduDataReceived>:
  SerialUSBDriver *sdup = usbp->out_params[ep - 1U];
 80021b0:	3109      	adds	r1, #9
void sduDataReceived(USBDriver *usbp, usbep_t ep) {
 80021b2:	b538      	push	{r3, r4, r5, lr}
  SerialUSBDriver *sdup = usbp->out_params[ep - 1U];
 80021b4:	f850 4021 	ldr.w	r4, [r0, r1, lsl #2]
  if (sdup == NULL) {
 80021b8:	b194      	cbz	r4, 80021e0 <sduDataReceived+0x30>
 80021ba:	2320      	movs	r3, #32
 80021bc:	f383 8811 	msr	BASEPRI, r3
  size = usbGetReceiveTransactionSizeX(sdup->config->usbp,
 80021c0:	f8d4 248c 	ldr.w	r2, [r4, #1164]	; 0x48c
 80021c4:	6813      	ldr	r3, [r2, #0]
 80021c6:	7952      	ldrb	r2, [r2, #5]
 80021c8:	eb03 0382 	add.w	r3, r3, r2, lsl #2
 80021cc:	68db      	ldr	r3, [r3, #12]
 80021ce:	699b      	ldr	r3, [r3, #24]
 80021d0:	685d      	ldr	r5, [r3, #4]
  if (size > (size_t)0) {
 80021d2:	b935      	cbnz	r5, 80021e2 <sduDataReceived+0x32>
  (void) sdu_start_receive(sdup);
 80021d4:	4620      	mov	r0, r4
 80021d6:	f7ff ffb3 	bl	8002140 <sdu_start_receive>
 80021da:	2300      	movs	r3, #0
 80021dc:	f383 8811 	msr	BASEPRI, r3
}
 80021e0:	bd38      	pop	{r3, r4, r5, pc}
 80021e2:	2104      	movs	r1, #4
 80021e4:	1860      	adds	r0, r4, r1
 80021e6:	f7ff fb9b 	bl	8001920 <chEvtBroadcastFlagsI>

  osalDbgCheck((size > 0U) && (size <= (ibqp->bsize - sizeof (size_t))));
  osalDbgAssert(!ibqIsFullI(ibqp), "buffers queue full");

  /* Writing size field in the buffer.*/
  *((size_t *)ibqp->bwrptr) = size;
 80021ea:	69e3      	ldr	r3, [r4, #28]

  /* Posting the buffer in the queue.*/
  ibqp->bcounter++;
  ibqp->bwrptr += ibqp->bsize;
  if (ibqp->bwrptr >= ibqp->btop) {
 80021ec:	6a61      	ldr	r1, [r4, #36]	; 0x24
  *((size_t *)ibqp->bwrptr) = size;
 80021ee:	601d      	str	r5, [r3, #0]
  ibqp->bwrptr += ibqp->bsize;
 80021f0:	6aa0      	ldr	r0, [r4, #40]	; 0x28
  ibqp->bcounter++;
 80021f2:	69a2      	ldr	r2, [r4, #24]
  ibqp->bwrptr += ibqp->bsize;
 80021f4:	4403      	add	r3, r0
  if (ibqp->bwrptr >= ibqp->btop) {
 80021f6:	428b      	cmp	r3, r1
  ibqp->bwrptr += ibqp->bsize;
 80021f8:	61e3      	str	r3, [r4, #28]
  ibqp->bcounter++;
 80021fa:	f102 0201 	add.w	r2, r2, #1
    ibqp->bwrptr = ibqp->buffers;
 80021fe:	bf28      	it	cs
 8002200:	6b23      	ldrcs	r3, [r4, #48]	; 0x30
  ibqp->bcounter++;
 8002202:	61a2      	str	r2, [r4, #24]
    ibqPostFullBufferI(&sdup->ibqueue, size);
 8002204:	f104 000c 	add.w	r0, r4, #12
    ibqp->bwrptr = ibqp->buffers;
 8002208:	bf28      	it	cs
 800220a:	61e3      	strcs	r3, [r4, #28]
  chThdDequeueNextI(tqp, msg);
 800220c:	f7ff fb78 	bl	8001900 <chThdDequeueNextI.constprop.0>
 8002210:	e7e0      	b.n	80021d4 <sduDataReceived+0x24>
 8002212:	bf00      	nop
	...

08002220 <oqResetI>:
  oqp->q_counter = qSizeX(oqp);
 8002220:	e9d0 1203 	ldrd	r1, r2, [r0, #12]
 8002224:	1a52      	subs	r2, r2, r1
  oqp->q_rdptr = oqp->q_buffer;
 8002226:	6181      	str	r1, [r0, #24]
  oqp->q_wrptr = oqp->q_buffer;
 8002228:	6141      	str	r1, [r0, #20]
  oqp->q_counter = qSizeX(oqp);
 800222a:	6082      	str	r2, [r0, #8]
  chThdDequeueAllI(tqp, msg);
 800222c:	f7ff bb50 	b.w	80018d0 <chThdDequeueAllI.constprop.0>

08002230 <obqGetFullBufferI>:
 * @retval NULL         if the queue is empty.
 *
 * @iclass
 */
uint8_t *obqGetFullBufferI(output_buffers_queue_t *obqp,
                           size_t *sizep) {
 8002230:	4603      	mov	r3, r0

  osalDbgCheckClassI();

  if (obqIsEmptyI(obqp)) {
 8002232:	e9d0 2004 	ldrd	r2, r0, [r0, #16]
 8002236:	4282      	cmp	r2, r0
 8002238:	d003      	beq.n	8002242 <obqGetFullBufferI+0x12>
    return NULL;
  }

  /* Buffer size.*/
  *sizep = *((size_t *)obqp->brdptr);
 800223a:	f850 3b04 	ldr.w	r3, [r0], #4
 800223e:	600b      	str	r3, [r1, #0]

  return obqp->brdptr + sizeof (size_t);
}
 8002240:	4770      	bx	lr
  if (obqIsEmptyI(obqp)) {
 8002242:	68db      	ldr	r3, [r3, #12]
 8002244:	2b00      	cmp	r3, #0
 8002246:	d0f8      	beq.n	800223a <obqGetFullBufferI+0xa>
    return NULL;
 8002248:	2000      	movs	r0, #0
 800224a:	4770      	bx	lr
 800224c:	0000      	movs	r0, r0
	...

08002250 <obnotify>:
static void obnotify(io_buffers_queue_t *bqp) {
 8002250:	b510      	push	{r4, lr}
  SerialUSBDriver *sdup = bqGetLinkX(bqp);
 8002252:	6b44      	ldr	r4, [r0, #52]	; 0x34
  if ((usbGetDriverStateI(sdup->config->usbp) != USB_ACTIVE) ||
 8002254:	f8d4 248c 	ldr.w	r2, [r4, #1164]	; 0x48c
 8002258:	6813      	ldr	r3, [r2, #0]
 800225a:	7819      	ldrb	r1, [r3, #0]
 800225c:	2904      	cmp	r1, #4
static void obnotify(io_buffers_queue_t *bqp) {
 800225e:	b082      	sub	sp, #8
  if ((usbGetDriverStateI(sdup->config->usbp) != USB_ACTIVE) ||
 8002260:	d102      	bne.n	8002268 <obnotify+0x18>
 8002262:	7a21      	ldrb	r1, [r4, #8]
 8002264:	2902      	cmp	r1, #2
 8002266:	d001      	beq.n	800226c <obnotify+0x1c>
}
 8002268:	b002      	add	sp, #8
 800226a:	bd10      	pop	{r4, pc}
  if (!usbGetTransmitStatusI(sdup->config->usbp, sdup->config->bulk_in)) {
 800226c:	7911      	ldrb	r1, [r2, #4]
 800226e:	891a      	ldrh	r2, [r3, #8]
 8002270:	2301      	movs	r3, #1
 8002272:	408b      	lsls	r3, r1
 8002274:	4213      	tst	r3, r2
 8002276:	d1f7      	bne.n	8002268 <obnotify+0x18>
    uint8_t *buf = obqGetFullBufferI(&sdup->obqueue, &n);
 8002278:	a901      	add	r1, sp, #4
 800227a:	f104 0044 	add.w	r0, r4, #68	; 0x44
 800227e:	f7ff ffd7 	bl	8002230 <obqGetFullBufferI>
 8002282:	4602      	mov	r2, r0
    usbStartTransmitI(sdup->config->usbp, sdup->config->bulk_in, buf, n);
 8002284:	f8d4 048c 	ldr.w	r0, [r4, #1164]	; 0x48c
 8002288:	9b01      	ldr	r3, [sp, #4]
 800228a:	7901      	ldrb	r1, [r0, #4]
 800228c:	6800      	ldr	r0, [r0, #0]
 800228e:	f7ff feef 	bl	8002070 <usbStartTransmitI>
 8002292:	e7e9      	b.n	8002268 <obnotify+0x18>
	...

080022a0 <sof_handler>:

/*
 * Handles the USB driver global events.
 */
static void sof_handler(USBDriver *usbp) {
 80022a0:	b510      	push	{r4, lr}
 80022a2:	2320      	movs	r3, #32
 80022a4:	b082      	sub	sp, #8
 80022a6:	f383 8811 	msr	BASEPRI, r3
  if ((usbGetDriverStateI(sdup->config->usbp) != USB_ACTIVE) ||
 80022aa:	4c1e      	ldr	r4, [pc, #120]	; (8002324 <sof_handler+0x84>)
 80022ac:	f8d4 248c 	ldr.w	r2, [r4, #1164]	; 0x48c
 80022b0:	6813      	ldr	r3, [r2, #0]
 80022b2:	7819      	ldrb	r1, [r3, #0]
 80022b4:	2904      	cmp	r1, #4
 80022b6:	d102      	bne.n	80022be <sof_handler+0x1e>
 80022b8:	7a21      	ldrb	r1, [r4, #8]
 80022ba:	2902      	cmp	r1, #2
 80022bc:	d004      	beq.n	80022c8 <sof_handler+0x28>
 80022be:	2300      	movs	r3, #0
 80022c0:	f383 8811 	msr	BASEPRI, r3
  (void)usbp;

  osalSysLockFromISR();
  sduSOFHookI(&PORTAB_SDU1);
  osalSysUnlockFromISR();
}
 80022c4:	b002      	add	sp, #8
 80022c6:	bd10      	pop	{r4, pc}
  if (usbGetTransmitStatusI(sdup->config->usbp, sdup->config->bulk_in)) {
 80022c8:	7911      	ldrb	r1, [r2, #4]
 80022ca:	891a      	ldrh	r2, [r3, #8]
 80022cc:	2301      	movs	r3, #1
 80022ce:	408b      	lsls	r3, r1
 80022d0:	4213      	tst	r3, r2
 80022d2:	d1f4      	bne.n	80022be <sof_handler+0x1e>

  osalDbgCheckClassI();

  /* If queue is empty and there is a buffer partially filled and
     it is not being written.*/
  if (obqIsEmptyI(obqp) && (obqp->ptr != NULL)) {
 80022d4:	e9d4 3215 	ldrd	r3, r2, [r4, #84]	; 0x54
 80022d8:	4293      	cmp	r3, r2
 80022da:	d1f0      	bne.n	80022be <sof_handler+0x1e>
 80022dc:	6d22      	ldr	r2, [r4, #80]	; 0x50
 80022de:	2a00      	cmp	r2, #0
 80022e0:	d0ed      	beq.n	80022be <sof_handler+0x1e>
 80022e2:	6ee2      	ldr	r2, [r4, #108]	; 0x6c
 80022e4:	2a00      	cmp	r2, #0
 80022e6:	d0ea      	beq.n	80022be <sof_handler+0x1e>
    size_t size = (size_t)obqp->ptr - ((size_t)obqp->bwrptr + sizeof (size_t));
 80022e8:	3a04      	subs	r2, #4

    if (size > 0U) {
 80022ea:	1ad2      	subs	r2, r2, r3
 80022ec:	d0e7      	beq.n	80022be <sof_handler+0x1e>

      /* Writing size field in the buffer.*/
      *((size_t *)obqp->bwrptr) = size;
 80022ee:	601a      	str	r2, [r3, #0]

      /* Posting the buffer in the queue.*/
      obqp->bcounter--;
      obqp->bwrptr += obqp->bsize;
      if (obqp->bwrptr >= obqp->btop) {
 80022f0:	e9d4 1017 	ldrd	r1, r0, [r4, #92]	; 0x5c
      obqp->bwrptr += obqp->bsize;
 80022f4:	4403      	add	r3, r0
      if (obqp->bwrptr >= obqp->btop) {
 80022f6:	428b      	cmp	r3, r1
      obqp->bcounter--;
 80022f8:	6d22      	ldr	r2, [r4, #80]	; 0x50
      obqp->bwrptr += obqp->bsize;
 80022fa:	6563      	str	r3, [r4, #84]	; 0x54
        obqp->bwrptr = obqp->buffers;
 80022fc:	bf24      	itt	cs
 80022fe:	6ea3      	ldrcs	r3, [r4, #104]	; 0x68
 8002300:	6563      	strcs	r3, [r4, #84]	; 0x54
      obqp->bcounter--;
 8002302:	3a01      	subs	r2, #1
      }

      /* No "current" buffer.*/
      obqp->ptr = NULL;
 8002304:	2300      	movs	r3, #0
    uint8_t *buf = obqGetFullBufferI(&sdup->obqueue, &n);
 8002306:	a901      	add	r1, sp, #4
 8002308:	4807      	ldr	r0, [pc, #28]	; (8002328 <sof_handler+0x88>)
      obqp->bcounter--;
 800230a:	6522      	str	r2, [r4, #80]	; 0x50
      obqp->ptr = NULL;
 800230c:	66e3      	str	r3, [r4, #108]	; 0x6c
 800230e:	f7ff ff8f 	bl	8002230 <obqGetFullBufferI>
 8002312:	4602      	mov	r2, r0
    usbStartTransmitI(sdup->config->usbp, sdup->config->bulk_in, buf, n);
 8002314:	f8d4 048c 	ldr.w	r0, [r4, #1164]	; 0x48c
 8002318:	9b01      	ldr	r3, [sp, #4]
 800231a:	7901      	ldrb	r1, [r0, #4]
 800231c:	6800      	ldr	r0, [r0, #0]
 800231e:	f7ff fea7 	bl	8002070 <usbStartTransmitI>
 8002322:	e7cc      	b.n	80022be <sof_handler+0x1e>
 8002324:	200013ac 	.word	0x200013ac
 8002328:	200013f0 	.word	0x200013f0
 800232c:	00000000 	.word	0x00000000

08002330 <sduDataTransmitted>:
void sduDataTransmitted(USBDriver *usbp, usbep_t ep) {
 8002330:	e92d 41f0 	stmdb	sp!, {r4, r5, r6, r7, r8, lr}
  SerialUSBDriver *sdup = usbp->in_params[ep - 1U];
 8002334:	eb00 0381 	add.w	r3, r0, r1, lsl #2
void sduDataTransmitted(USBDriver *usbp, usbep_t ep) {
 8002338:	b082      	sub	sp, #8
  SerialUSBDriver *sdup = usbp->in_params[ep - 1U];
 800233a:	699e      	ldr	r6, [r3, #24]
  if (sdup == NULL) {
 800233c:	b1f6      	cbz	r6, 800237c <sduDataTransmitted+0x4c>
 800233e:	4604      	mov	r4, r0
 8002340:	460d      	mov	r5, r1
 8002342:	2320      	movs	r3, #32
 8002344:	f383 8811 	msr	BASEPRI, r3
  chEvtBroadcastFlagsI(esp, flags);
 8002348:	eb00 0781 	add.w	r7, r0, r1, lsl #2
 800234c:	1d30      	adds	r0, r6, #4
 800234e:	2108      	movs	r1, #8
 8002350:	f7ff fae6 	bl	8001920 <chEvtBroadcastFlagsI>
  if (usbp->epc[ep]->in_state->txsize > 0U) {
 8002354:	68fb      	ldr	r3, [r7, #12]
 8002356:	695b      	ldr	r3, [r3, #20]
 8002358:	681b      	ldr	r3, [r3, #0]
 800235a:	b993      	cbnz	r3, 8002382 <sduDataTransmitted+0x52>
  buf = obqGetFullBufferI(&sdup->obqueue, &n);
 800235c:	f106 0844 	add.w	r8, r6, #68	; 0x44
 8002360:	4640      	mov	r0, r8
 8002362:	a901      	add	r1, sp, #4
 8002364:	f7ff ff64 	bl	8002230 <obqGetFullBufferI>
  if (buf != NULL) {
 8002368:	4602      	mov	r2, r0
 800236a:	b320      	cbz	r0, 80023b6 <sduDataTransmitted+0x86>
    usbStartTransmitI(usbp, ep, buf, n);
 800236c:	9b01      	ldr	r3, [sp, #4]
 800236e:	4629      	mov	r1, r5
 8002370:	4620      	mov	r0, r4
 8002372:	f7ff fe7d 	bl	8002070 <usbStartTransmitI>
 8002376:	2300      	movs	r3, #0
 8002378:	f383 8811 	msr	BASEPRI, r3
}
 800237c:	b002      	add	sp, #8
 800237e:	e8bd 81f0 	ldmia.w	sp!, {r4, r5, r6, r7, r8, pc}
  if (obqp->brdptr >= obqp->btop) {
 8002382:	e9d6 2017 	ldrd	r2, r0, [r6, #92]	; 0x5c
  obqp->brdptr += obqp->bsize;
 8002386:	6db3      	ldr	r3, [r6, #88]	; 0x58
  obqp->bcounter++;
 8002388:	6d31      	ldr	r1, [r6, #80]	; 0x50
  obqp->brdptr += obqp->bsize;
 800238a:	4403      	add	r3, r0
  if (obqp->brdptr >= obqp->btop) {
 800238c:	4293      	cmp	r3, r2
  obqp->brdptr += obqp->bsize;
 800238e:	65b3      	str	r3, [r6, #88]	; 0x58
  obqp->bcounter++;
 8002390:	f101 0101 	add.w	r1, r1, #1
    obqp->brdptr = obqp->buffers;
 8002394:	bf28      	it	cs
 8002396:	6eb3      	ldrcs	r3, [r6, #104]	; 0x68
  obqp->bcounter++;
 8002398:	6531      	str	r1, [r6, #80]	; 0x50
    obqReleaseEmptyBufferI(&sdup->obqueue);
 800239a:	f106 0844 	add.w	r8, r6, #68	; 0x44
    obqp->brdptr = obqp->buffers;
 800239e:	bf28      	it	cs
 80023a0:	65b3      	strcs	r3, [r6, #88]	; 0x58
  chThdDequeueNextI(tqp, msg);
 80023a2:	4640      	mov	r0, r8
 80023a4:	f7ff faac 	bl	8001900 <chThdDequeueNextI.constprop.0>
  buf = obqGetFullBufferI(&sdup->obqueue, &n);
 80023a8:	4640      	mov	r0, r8
 80023aa:	a901      	add	r1, sp, #4
 80023ac:	f7ff ff40 	bl	8002230 <obqGetFullBufferI>
  if (buf != NULL) {
 80023b0:	4602      	mov	r2, r0
 80023b2:	2800      	cmp	r0, #0
 80023b4:	d1da      	bne.n	800236c <sduDataTransmitted+0x3c>
  else if ((usbp->epc[ep]->in_state->txsize > 0U) &&
 80023b6:	68fb      	ldr	r3, [r7, #12]
 80023b8:	695a      	ldr	r2, [r3, #20]
 80023ba:	6812      	ldr	r2, [r2, #0]
 80023bc:	2a00      	cmp	r2, #0
 80023be:	d0da      	beq.n	8002376 <sduDataTransmitted+0x46>
            ((size_t)usbp->epc[ep]->in_maxsize - 1U)) == 0U)) {
 80023c0:	8a1b      	ldrh	r3, [r3, #16]
 80023c2:	3b01      	subs	r3, #1
  else if ((usbp->epc[ep]->in_state->txsize > 0U) &&
 80023c4:	4013      	ands	r3, r2
 80023c6:	d1d6      	bne.n	8002376 <sduDataTransmitted+0x46>
    usbStartTransmitI(usbp, ep, usbp->setup, 0);
 80023c8:	4629      	mov	r1, r5
 80023ca:	f104 0244 	add.w	r2, r4, #68	; 0x44
 80023ce:	4620      	mov	r0, r4
 80023d0:	f7ff fe4e 	bl	8002070 <usbStartTransmitI>
 80023d4:	e7cf      	b.n	8002376 <sduDataTransmitted+0x46>
 80023d6:	bf00      	nop
	...

080023e0 <icu_lld_start.constprop.0>:
void icu_lld_start(ICUDriver *icup) {
 80023e0:	b470      	push	{r4, r5, r6}
  if (icup->state == ICU_STOP) {
 80023e2:	4934      	ldr	r1, [pc, #208]	; (80024b4 <icu_lld_start.constprop.0+0xd4>)
 80023e4:	780b      	ldrb	r3, [r1, #0]
 80023e6:	2b01      	cmp	r3, #1
 80023e8:	d043      	beq.n	8002472 <icu_lld_start.constprop.0+0x92>
 80023ea:	e9d1 2302 	ldrd	r2, r3, [r1, #8]
    icup->tim->CR1    = 0;                  /* Timer disabled.              */
 80023ee:	2000      	movs	r0, #0
 80023f0:	6018      	str	r0, [r3, #0]
    icup->tim->CCR[0] = 0;                  /* Comparator 1 disabled.       */
 80023f2:	6358      	str	r0, [r3, #52]	; 0x34
    icup->tim->CCR[1] = 0;                  /* Comparator 2 disabled.       */
 80023f4:	6398      	str	r0, [r3, #56]	; 0x38
    icup->tim->CNT    = 0;                  /* Counter reset to zero.       */
 80023f6:	6258      	str	r0, [r3, #36]	; 0x24
  icup->tim->DIER = icup->config->dier &    /* DMA-related DIER settings.   */
 80023f8:	6848      	ldr	r0, [r1, #4]
  if (icup->config->arr == 0U) {
 80023fa:	e9d0 4506 	ldrd	r4, r5, [r0, #24]
  psc = (icup->clock / icup->config->frequency) - 1;
 80023fe:	6846      	ldr	r6, [r0, #4]
 8002400:	fbb2 f2f6 	udiv	r2, r2, r6
  icup->tim->DIER = icup->config->dier &    /* DMA-related DIER settings.   */
 8002404:	f024 04ff 	bic.w	r4, r4, #255	; 0xff
  icup->tim->SR   = 0;                      /* Clear eventual pending IRQs. */
 8002408:	2600      	movs	r6, #0
  psc = (icup->clock / icup->config->frequency) - 1;
 800240a:	3a01      	subs	r2, #1
  icup->tim->SR   = 0;                      /* Clear eventual pending IRQs. */
 800240c:	611e      	str	r6, [r3, #16]
  icup->tim->DIER = icup->config->dier &    /* DMA-related DIER settings.   */
 800240e:	60dc      	str	r4, [r3, #12]
  icup->tim->PSC = psc;
 8002410:	629a      	str	r2, [r3, #40]	; 0x28
  if (icup->config->arr == 0U) {
 8002412:	b9a5      	cbnz	r5, 800243e <icu_lld_start.constprop.0+0x5e>
    icup->tim->ARR = 0xFFFFFFFFU;
 8002414:	f04f 32ff 	mov.w	r2, #4294967295	; 0xffffffff
 8002418:	62da      	str	r2, [r3, #44]	; 0x2c
  if (icup->config->channel == ICU_CHANNEL_1) {
 800241a:	7d02      	ldrb	r2, [r0, #20]
 800241c:	b99a      	cbnz	r2, 8002446 <icu_lld_start.constprop.0+0x66>
    icup->tim->SMCR  = STM32_TIM_SMCR_TS(5) | STM32_TIM_SMCR_SMS(4);
 800241e:	2254      	movs	r2, #84	; 0x54
    icup->tim->CCMR1 = STM32_TIM_CCMR1_CC1S(1) | STM32_TIM_CCMR1_CC2S(2);
 8002420:	f240 2401 	movw	r4, #513	; 0x201
 8002424:	619c      	str	r4, [r3, #24]
    icup->tim->SMCR  = STM32_TIM_SMCR_TS(5) | STM32_TIM_SMCR_SMS(4);
 8002426:	609a      	str	r2, [r3, #8]
    if (icup->config->mode == ICU_INPUT_ACTIVE_HIGH)
 8002428:	7802      	ldrb	r2, [r0, #0]
 800242a:	b1fa      	cbz	r2, 800246c <icu_lld_start.constprop.0+0x8c>
      icup->tim->CCER = STM32_TIM_CCER_CC1E | STM32_TIM_CCER_CC1P |
 800242c:	2213      	movs	r2, #19
 800242e:	621a      	str	r2, [r3, #32]
    icup->wccrp = &icup->tim->CCR[1];
 8002430:	f103 0238 	add.w	r2, r3, #56	; 0x38
    icup->pccrp = &icup->tim->CCR[0];
 8002434:	3334      	adds	r3, #52	; 0x34
}
 8002436:	bc70      	pop	{r4, r5, r6}
    icup->pccrp = &icup->tim->CCR[0];
 8002438:	e9c1 2304 	strd	r2, r3, [r1, #16]
}
 800243c:	4770      	bx	lr
    icup->tim->ARR = icup->config->arr;
 800243e:	62dd      	str	r5, [r3, #44]	; 0x2c
  if (icup->config->channel == ICU_CHANNEL_1) {
 8002440:	7d02      	ldrb	r2, [r0, #20]
 8002442:	2a00      	cmp	r2, #0
 8002444:	d0eb      	beq.n	800241e <icu_lld_start.constprop.0+0x3e>
    icup->tim->SMCR  = STM32_TIM_SMCR_TS(6) | STM32_TIM_SMCR_SMS(4);
 8002446:	2264      	movs	r2, #100	; 0x64
    icup->tim->CCMR1 = STM32_TIM_CCMR1_CC1S(2) | STM32_TIM_CCMR1_CC2S(1);
 8002448:	f44f 7481 	mov.w	r4, #258	; 0x102
 800244c:	619c      	str	r4, [r3, #24]
    icup->tim->SMCR  = STM32_TIM_SMCR_TS(6) | STM32_TIM_SMCR_SMS(4);
 800244e:	609a      	str	r2, [r3, #8]
    if (icup->config->mode == ICU_INPUT_ACTIVE_HIGH)
 8002450:	7802      	ldrb	r2, [r0, #0]
 8002452:	b142      	cbz	r2, 8002466 <icu_lld_start.constprop.0+0x86>
      icup->tim->CCER = STM32_TIM_CCER_CC1E |
 8002454:	2231      	movs	r2, #49	; 0x31
 8002456:	621a      	str	r2, [r3, #32]
    icup->wccrp = &icup->tim->CCR[0];
 8002458:	f103 0234 	add.w	r2, r3, #52	; 0x34
    icup->pccrp = &icup->tim->CCR[1];
 800245c:	3338      	adds	r3, #56	; 0x38
}
 800245e:	bc70      	pop	{r4, r5, r6}
    icup->pccrp = &icup->tim->CCR[1];
 8002460:	e9c1 2304 	strd	r2, r3, [r1, #16]
}
 8002464:	4770      	bx	lr
      icup->tim->CCER = STM32_TIM_CCER_CC1E | STM32_TIM_CCER_CC1P |
 8002466:	2213      	movs	r2, #19
 8002468:	621a      	str	r2, [r3, #32]
 800246a:	e7f5      	b.n	8002458 <icu_lld_start.constprop.0+0x78>
      icup->tim->CCER = STM32_TIM_CCER_CC1E |
 800246c:	2231      	movs	r2, #49	; 0x31
 800246e:	621a      	str	r2, [r3, #32]
 8002470:	e7de      	b.n	8002430 <icu_lld_start.constprop.0+0x50>
      rccEnableTIM2(true);
 8002472:	4811      	ldr	r0, [pc, #68]	; (80024b8 <icu_lld_start.constprop.0+0xd8>)
      icup->clock = STM32_TIMCLK1;
 8002474:	4a11      	ldr	r2, [pc, #68]	; (80024bc <icu_lld_start.constprop.0+0xdc>)
      rccEnableTIM2(true);
 8002476:	6c03      	ldr	r3, [r0, #64]	; 0x40
      icup->clock = STM32_TIMCLK1;
 8002478:	608a      	str	r2, [r1, #8]
      rccEnableTIM2(true);
 800247a:	f043 0301 	orr.w	r3, r3, #1
 800247e:	6403      	str	r3, [r0, #64]	; 0x40
 8002480:	6e05      	ldr	r5, [r0, #96]	; 0x60
 8002482:	68cb      	ldr	r3, [r1, #12]
  NVIC->__IPR[n] = NVIC_PRIORITY_MASK(prio);
 8002484:	4c0e      	ldr	r4, [pc, #56]	; (80024c0 <icu_lld_start.constprop.0+0xe0>)
 8002486:	f045 0501 	orr.w	r5, r5, #1
 800248a:	6605      	str	r5, [r0, #96]	; 0x60
 800248c:	6e05      	ldr	r5, [r0, #96]	; 0x60
      rccResetTIM2();
 800248e:	6a05      	ldr	r5, [r0, #32]
 8002490:	f045 0501 	orr.w	r5, r5, #1
 8002494:	6205      	str	r5, [r0, #32]
 8002496:	6a05      	ldr	r5, [r0, #32]
 8002498:	f025 0501 	bic.w	r5, r5, #1
 800249c:	6205      	str	r5, [r0, #32]
 800249e:	6a00      	ldr	r0, [r0, #32]
 80024a0:	2570      	movs	r5, #112	; 0x70
  NVIC->__ICPR[n >> 5U] = 1U << (n & 0x1FU);
 80024a2:	f04f 5080 	mov.w	r0, #268435456	; 0x10000000
  NVIC->__IPR[n] = NVIC_PRIORITY_MASK(prio);
 80024a6:	f884 531c 	strb.w	r5, [r4, #796]	; 0x31c
  NVIC->__ICPR[n >> 5U] = 1U << (n & 0x1FU);
 80024aa:	f8c4 0180 	str.w	r0, [r4, #384]	; 0x180
  NVIC->__ISER[n >> 5U] = 1U << (n & 0x1FU);
 80024ae:	6020      	str	r0, [r4, #0]
 80024b0:	e7a2      	b.n	80023f8 <icu_lld_start.constprop.0+0x18>
 80024b2:	bf00      	nop
 80024b4:	20000c80 	.word	0x20000c80
 80024b8:	40023800 	.word	0x40023800
 80024bc:	0501bd00 	.word	0x0501bd00
 80024c0:	e000e100 	.word	0xe000e100
	...

080024d0 <chSchWakeupS.constprop.0>:
  thread_t *otp = currp;
 80024d0:	4b14      	ldr	r3, [pc, #80]	; (8002524 <chSchWakeupS.constprop.0+0x54>)
 80024d2:	6959      	ldr	r1, [r3, #20]
void chSchWakeupS(thread_t *ntp, msg_t msg) {
 80024d4:	b430      	push	{r4, r5}
  if (ntp->prio <= otp->prio) {
 80024d6:	688d      	ldr	r5, [r1, #8]
 80024d8:	6884      	ldr	r4, [r0, #8]
  ntp->u.rdymsg = msg;
 80024da:	2200      	movs	r2, #0
  if (ntp->prio <= otp->prio) {
 80024dc:	42ac      	cmp	r4, r5
  ntp->u.rdymsg = msg;
 80024de:	6242      	str	r2, [r0, #36]	; 0x24
  if (ntp->prio <= otp->prio) {
 80024e0:	d80c      	bhi.n	80024fc <chSchWakeupS.constprop.0+0x2c>
  tp->state = CH_STATE_READY;
 80024e2:	f880 2020 	strb.w	r2, [r0, #32]
    cp = cp->queue.next;
 80024e6:	681b      	ldr	r3, [r3, #0]
  } while (cp->prio >= tp->prio);
 80024e8:	689a      	ldr	r2, [r3, #8]
 80024ea:	4294      	cmp	r4, r2
 80024ec:	d9fb      	bls.n	80024e6 <chSchWakeupS.constprop.0+0x16>
  tp->queue.prev             = cp->queue.prev;
 80024ee:	685a      	ldr	r2, [r3, #4]
}
 80024f0:	bc30      	pop	{r4, r5}
  tp->queue.prev             = cp->queue.prev;
 80024f2:	e9c0 3200 	strd	r3, r2, [r0]
  tp->queue.prev->queue.next = tp;
 80024f6:	6010      	str	r0, [r2, #0]
  cp->queue.prev             = tp;
 80024f8:	6058      	str	r0, [r3, #4]
}
 80024fa:	4770      	bx	lr
  tp->state = CH_STATE_READY;
 80024fc:	f881 2020 	strb.w	r2, [r1, #32]
  cp = (thread_t *)&ch.rlist.queue;
 8002500:	461a      	mov	r2, r3
    cp = cp->queue.next;
 8002502:	6812      	ldr	r2, [r2, #0]
  } while (cp->prio > tp->prio);
 8002504:	6894      	ldr	r4, [r2, #8]
 8002506:	42a5      	cmp	r5, r4
 8002508:	d3fb      	bcc.n	8002502 <chSchWakeupS.constprop.0+0x32>
  tp->queue.prev             = cp->queue.prev;
 800250a:	6854      	ldr	r4, [r2, #4]
 800250c:	604c      	str	r4, [r1, #4]
    ntp->state = CH_STATE_CURRENT;
 800250e:	2501      	movs	r5, #1
  tp->queue.next             = cp;
 8002510:	600a      	str	r2, [r1, #0]
  tp->queue.prev->queue.next = tp;
 8002512:	6021      	str	r1, [r4, #0]
  cp->queue.prev             = tp;
 8002514:	6051      	str	r1, [r2, #4]
    ntp->state = CH_STATE_CURRENT;
 8002516:	f880 5020 	strb.w	r5, [r0, #32]
}
 800251a:	bc30      	pop	{r4, r5}
    currp = ntp;
 800251c:	6158      	str	r0, [r3, #20]
    chSysSwitch(ntp, otp);
 800251e:	f7fd bedf 	b.w	80002e0 <_port_switch>
 8002522:	bf00      	nop
 8002524:	2000189c 	.word	0x2000189c
	...

08002530 <chThdCreateStatic.constprop.0>:
thread_t *chThdCreateStatic(void *wsp, size_t size,
 8002530:	b5f8      	push	{r3, r4, r5, r6, r7, lr}
 8002532:	2320      	movs	r3, #32
 8002534:	f383 8811 	msr	BASEPRI, r3
  tp = (thread_t *)((uint8_t *)wsp + size -
 8002538:	3948      	subs	r1, #72	; 0x48
 800253a:	1844      	adds	r4, r0, r1
  REG_INSERT(tp);
 800253c:	4b15      	ldr	r3, [pc, #84]	; (8002594 <chThdCreateStatic.constprop.0+0x64>)
 800253e:	60e3      	str	r3, [r4, #12]
 8002540:	6919      	ldr	r1, [r3, #16]
  tp->wabase = (stkalign_t *)wsp;
 8002542:	61e0      	str	r0, [r4, #28]
  PORT_SETUP_CONTEXT(tp, wsp, tp, pf, arg);
 8002544:	f844 2c24 	str.w	r2, [r4, #-36]
 8002548:	f1a4 0624 	sub.w	r6, r4, #36	; 0x24
 800254c:	4d12      	ldr	r5, [pc, #72]	; (8002598 <chThdCreateStatic.constprop.0+0x68>)
 800254e:	f844 5c04 	str.w	r5, [r4, #-4]
  tp->state     = CH_STATE_WTSTART;
 8002552:	2002      	movs	r0, #2
  tp->refs      = (trefs_t)1;
 8002554:	2201      	movs	r2, #1
  PORT_SETUP_CONTEXT(tp, wsp, tp, pf, arg);
 8002556:	6166      	str	r6, [r4, #20]
  tp->state     = CH_STATE_WTSTART;
 8002558:	8420      	strh	r0, [r4, #32]
  tp->refs      = (trefs_t)1;
 800255a:	f884 2022 	strb.w	r2, [r4, #34]	; 0x22
  PORT_SETUP_CONTEXT(tp, wsp, tp, pf, arg);
 800255e:	2500      	movs	r5, #0
  queue_init(&tp->msgqueue);
 8002560:	f104 022c 	add.w	r2, r4, #44	; 0x2c
  tp->prio      = prio;
 8002564:	2080      	movs	r0, #128	; 0x80
  tp->name      = name;
 8002566:	4f0d      	ldr	r7, [pc, #52]	; (800259c <chThdCreateStatic.constprop.0+0x6c>)
  tp->prio      = prio;
 8002568:	60a0      	str	r0, [r4, #8]
  list_init(&tp->waiting);
 800256a:	f104 0628 	add.w	r6, r4, #40	; 0x28
  REG_INSERT(tp);
 800256e:	6121      	str	r1, [r4, #16]
  PORT_SETUP_CONTEXT(tp, wsp, tp, pf, arg);
 8002570:	f844 5c20 	str.w	r5, [r4, #-32]
  tp->realprio  = prio;
 8002574:	63e0      	str	r0, [r4, #60]	; 0x3c
  tp->epending  = (eventmask_t)0;
 8002576:	e9c4 550d 	strd	r5, r5, [r4, #52]	; 0x34
  tp->name      = name;
 800257a:	61a7      	str	r7, [r4, #24]
  chSchWakeupS(tp, MSG_OK);
 800257c:	4620      	mov	r0, r4
  REG_INSERT(tp);
 800257e:	60cc      	str	r4, [r1, #12]
  tqp->next = (thread_t *)tqp;
 8002580:	e9c4 620a 	strd	r6, r2, [r4, #40]	; 0x28
  tqp->prev = (thread_t *)tqp;
 8002584:	6322      	str	r2, [r4, #48]	; 0x30
 8002586:	611c      	str	r4, [r3, #16]
  chSchWakeupS(tp, MSG_OK);
 8002588:	f7ff ffa2 	bl	80024d0 <chSchWakeupS.constprop.0>
 800258c:	f385 8811 	msr	BASEPRI, r5
}
 8002590:	4620      	mov	r0, r4
 8002592:	bdf8      	pop	{r3, r4, r5, r6, r7, pc}
 8002594:	2000189c 	.word	0x2000189c
 8002598:	080002f1 	.word	0x080002f1
 800259c:	08006510 	.word	0x08006510

080025a0 <chSchGoSleepS>:
  thread_t *otp = currp;
 80025a0:	4b08      	ldr	r3, [pc, #32]	; (80025c4 <chSchGoSleepS+0x24>)
 80025a2:	6959      	ldr	r1, [r3, #20]
  thread_t *tp = tqp->next;
 80025a4:	681a      	ldr	r2, [r3, #0]
void chSchGoSleepS(tstate_t newstate) {
 80025a6:	b410      	push	{r4}
  otp->state = newstate;
 80025a8:	f881 0020 	strb.w	r0, [r1, #32]
  tqp->next             = tp->queue.next;
 80025ac:	6810      	ldr	r0, [r2, #0]
 80025ae:	6018      	str	r0, [r3, #0]
  currp->state = CH_STATE_CURRENT;
 80025b0:	2401      	movs	r4, #1
  tqp->next->queue.prev = (thread_t *)tqp;
 80025b2:	6043      	str	r3, [r0, #4]
 80025b4:	f882 4020 	strb.w	r4, [r2, #32]
}
 80025b8:	bc10      	pop	{r4}
  currp = queue_fifo_remove(&ch.rlist.queue);
 80025ba:	615a      	str	r2, [r3, #20]
  chSysSwitch(currp, otp);
 80025bc:	4610      	mov	r0, r2
 80025be:	f7fd be8f 	b.w	80002e0 <_port_switch>
 80025c2:	bf00      	nop
 80025c4:	2000189c 	.word	0x2000189c
	...

080025d0 <chMtxLockS>:
 *
 * @param[in] mp        pointer to the @p mutex_t structure
 *
 * @sclass
 */
void chMtxLockS(mutex_t *mp) {
 80025d0:	b570      	push	{r4, r5, r6, lr}
  thread_t *ctp = currp;
 80025d2:	4b2e      	ldr	r3, [pc, #184]	; (800268c <chMtxLockS+0xbc>)
void chMtxLockS(mutex_t *mp) {
 80025d4:	4604      	mov	r4, r0

  chDbgCheckClassS();
  chDbgCheck(mp != NULL);

  /* Is the mutex already locked? */
  if (mp->owner != NULL) {
 80025d6:	6880      	ldr	r0, [r0, #8]
  thread_t *ctp = currp;
 80025d8:	695d      	ldr	r5, [r3, #20]
  if (mp->owner != NULL) {
 80025da:	b330      	cbz	r0, 800262a <chMtxLockS+0x5a>
         priority of the running thread requesting the mutex.*/
      thread_t *tp = mp->owner;

      /* Does the running thread have higher priority than the mutex
         owning thread? */
      while (tp->prio < ctp->prio) {
 80025dc:	68aa      	ldr	r2, [r5, #8]
 80025de:	6883      	ldr	r3, [r0, #8]
 80025e0:	4293      	cmp	r3, r2
 80025e2:	d207      	bcs.n	80025f4 <chMtxLockS+0x24>
        /* Make priority of thread tp match the running thread's priority.*/
        tp->prio = ctp->prio;

        /* The following states need priority queues reordering.*/
        switch (tp->state) {
 80025e4:	f890 3020 	ldrb.w	r3, [r0, #32]
        tp->prio = ctp->prio;
 80025e8:	6082      	str	r2, [r0, #8]
        switch (tp->state) {
 80025ea:	2b06      	cmp	r3, #6
 80025ec:	d035      	beq.n	800265a <chMtxLockS+0x8a>
 80025ee:	2b07      	cmp	r3, #7
 80025f0:	d020      	beq.n	8002634 <chMtxLockS+0x64>
 80025f2:	b19b      	cbz	r3, 800261c <chMtxLockS+0x4c>
  thread_t *cp = (thread_t *)tqp;
 80025f4:	4623      	mov	r3, r4
 80025f6:	e003      	b.n	8002600 <chMtxLockS+0x30>
  } while ((cp != (thread_t *)tqp) && (cp->prio >= tp->prio));
 80025f8:	6899      	ldr	r1, [r3, #8]
 80025fa:	68aa      	ldr	r2, [r5, #8]
 80025fc:	4291      	cmp	r1, r2
 80025fe:	d302      	bcc.n	8002606 <chMtxLockS+0x36>
    cp = cp->queue.next;
 8002600:	681b      	ldr	r3, [r3, #0]
  } while ((cp != (thread_t *)tqp) && (cp->prio >= tp->prio));
 8002602:	429c      	cmp	r4, r3
 8002604:	d1f8      	bne.n	80025f8 <chMtxLockS+0x28>
  tp->queue.prev             = cp->queue.prev;
 8002606:	685a      	ldr	r2, [r3, #4]
      }

      /* Sleep on the mutex.*/
      queue_prio_insert(ctp, &mp->queue);
      ctp->u.wtmtxp = mp;
      chSchGoSleepS(CH_STATE_WTMTX);
 8002608:	2006      	movs	r0, #6
 800260a:	e9c5 3200 	strd	r3, r2, [r5]
  tp->queue.prev->queue.next = tp;
 800260e:	6015      	str	r5, [r2, #0]
  cp->queue.prev             = tp;
 8002610:	605d      	str	r5, [r3, #4]
      ctp->u.wtmtxp = mp;
 8002612:	626c      	str	r4, [r5, #36]	; 0x24
    /* It was not owned, inserted in the owned mutexes list.*/
    mp->owner = ctp;
    mp->next = ctp->mtxlist;
    ctp->mtxlist = mp;
  }
}
 8002614:	e8bd 4070 	ldmia.w	sp!, {r4, r5, r6, lr}
      chSchGoSleepS(CH_STATE_WTMTX);
 8002618:	f7ff bfc2 	b.w	80025a0 <chSchGoSleepS>
  tp->queue.prev->queue.next = tp->queue.next;
 800261c:	e9d0 3200 	ldrd	r3, r2, [r0]
 8002620:	6013      	str	r3, [r2, #0]
  tp->queue.next->queue.prev = tp->queue.prev;
 8002622:	605a      	str	r2, [r3, #4]
          (void) chSchReadyI(queue_dequeue(tp));
 8002624:	f7ff f93c 	bl	80018a0 <chSchReadyI>
          break;
 8002628:	e7e4      	b.n	80025f4 <chMtxLockS+0x24>
    mp->next = ctp->mtxlist;
 800262a:	6bab      	ldr	r3, [r5, #56]	; 0x38
 800262c:	e9c4 5302 	strd	r5, r3, [r4, #8]
    ctp->mtxlist = mp;
 8002630:	63ac      	str	r4, [r5, #56]	; 0x38
}
 8002632:	bd70      	pop	{r4, r5, r6, pc}
  tp->queue.prev->queue.next = tp->queue.next;
 8002634:	e9d0 3100 	ldrd	r3, r1, [r0]
          queue_prio_insert(queue_dequeue(tp), &tp->u.wtmtxp->queue);
 8002638:	6a46      	ldr	r6, [r0, #36]	; 0x24
 800263a:	600b      	str	r3, [r1, #0]
  tp->queue.next->queue.prev = tp->queue.prev;
 800263c:	6059      	str	r1, [r3, #4]
  thread_t *cp = (thread_t *)tqp;
 800263e:	4633      	mov	r3, r6
 8002640:	e002      	b.n	8002648 <chMtxLockS+0x78>
  } while ((cp != (thread_t *)tqp) && (cp->prio >= tp->prio));
 8002642:	6899      	ldr	r1, [r3, #8]
 8002644:	428a      	cmp	r2, r1
 8002646:	d802      	bhi.n	800264e <chMtxLockS+0x7e>
    cp = cp->queue.next;
 8002648:	681b      	ldr	r3, [r3, #0]
  } while ((cp != (thread_t *)tqp) && (cp->prio >= tp->prio));
 800264a:	429e      	cmp	r6, r3
 800264c:	d1f9      	bne.n	8002642 <chMtxLockS+0x72>
  tp->queue.prev             = cp->queue.prev;
 800264e:	685a      	ldr	r2, [r3, #4]
 8002650:	e9c0 3200 	strd	r3, r2, [r0]
  tp->queue.prev->queue.next = tp;
 8002654:	6010      	str	r0, [r2, #0]
  cp->queue.prev             = tp;
 8002656:	6058      	str	r0, [r3, #4]
 8002658:	e7cc      	b.n	80025f4 <chMtxLockS+0x24>
  tp->queue.prev->queue.next = tp->queue.next;
 800265a:	e9d0 3100 	ldrd	r3, r1, [r0]
          queue_prio_insert(queue_dequeue(tp), &tp->u.wtmtxp->queue);
 800265e:	6a46      	ldr	r6, [r0, #36]	; 0x24
 8002660:	600b      	str	r3, [r1, #0]
  tp->queue.next->queue.prev = tp->queue.prev;
 8002662:	6059      	str	r1, [r3, #4]
  thread_t *cp = (thread_t *)tqp;
 8002664:	4633      	mov	r3, r6
 8002666:	e002      	b.n	800266e <chMtxLockS+0x9e>
  } while ((cp != (thread_t *)tqp) && (cp->prio >= tp->prio));
 8002668:	6899      	ldr	r1, [r3, #8]
 800266a:	428a      	cmp	r2, r1
 800266c:	d802      	bhi.n	8002674 <chMtxLockS+0xa4>
    cp = cp->queue.next;
 800266e:	681b      	ldr	r3, [r3, #0]
  } while ((cp != (thread_t *)tqp) && (cp->prio >= tp->prio));
 8002670:	429e      	cmp	r6, r3
 8002672:	d1f9      	bne.n	8002668 <chMtxLockS+0x98>
  tp->queue.prev             = cp->queue.prev;
 8002674:	685a      	ldr	r2, [r3, #4]
 8002676:	e9c0 3200 	strd	r3, r2, [r0]
  tp->queue.prev->queue.next = tp;
 800267a:	6010      	str	r0, [r2, #0]
  cp->queue.prev             = tp;
 800267c:	6058      	str	r0, [r3, #4]
          tp = tp->u.wtmtxp->owner;
 800267e:	68b0      	ldr	r0, [r6, #8]
      while (tp->prio < ctp->prio) {
 8002680:	68aa      	ldr	r2, [r5, #8]
 8002682:	6883      	ldr	r3, [r0, #8]
 8002684:	4293      	cmp	r3, r2
 8002686:	d3ad      	bcc.n	80025e4 <chMtxLockS+0x14>
 8002688:	e7b4      	b.n	80025f4 <chMtxLockS+0x24>
 800268a:	bf00      	nop
 800268c:	2000189c 	.word	0x2000189c

08002690 <chThdExitS>:
void chThdExitS(msg_t msg) {
 8002690:	b538      	push	{r3, r4, r5, lr}
  thread_t *tp = currp;
 8002692:	4b10      	ldr	r3, [pc, #64]	; (80026d4 <chThdExitS+0x44>)
 8002694:	695c      	ldr	r4, [r3, #20]
  return (bool)(tlp->next != (thread_t *)tlp);
 8002696:	6aa3      	ldr	r3, [r4, #40]	; 0x28
  tp->u.exitcode = msg;
 8002698:	6260      	str	r0, [r4, #36]	; 0x24
  while (list_notempty(&tp->waiting)) {
 800269a:	f104 0528 	add.w	r5, r4, #40	; 0x28
 800269e:	42ab      	cmp	r3, r5
 80026a0:	d007      	beq.n	80026b2 <chThdExitS+0x22>
  tlp->next = tp->queue.next;
 80026a2:	681a      	ldr	r2, [r3, #0]
 80026a4:	62a2      	str	r2, [r4, #40]	; 0x28
    (void) chSchReadyI(list_remove(&tp->waiting));
 80026a6:	4618      	mov	r0, r3
 80026a8:	f7ff f8fa 	bl	80018a0 <chSchReadyI>
  return (bool)(tlp->next != (thread_t *)tlp);
 80026ac:	6aa3      	ldr	r3, [r4, #40]	; 0x28
  while (list_notempty(&tp->waiting)) {
 80026ae:	42ab      	cmp	r3, r5
 80026b0:	d1f7      	bne.n	80026a2 <chThdExitS+0x12>
  if ((tp->refs == (trefs_t)0) &&
 80026b2:	f894 3022 	ldrb.w	r3, [r4, #34]	; 0x22
 80026b6:	b93b      	cbnz	r3, 80026c8 <chThdExitS+0x38>
 80026b8:	f894 3021 	ldrb.w	r3, [r4, #33]	; 0x21
 80026bc:	079b      	lsls	r3, r3, #30
 80026be:	d103      	bne.n	80026c8 <chThdExitS+0x38>
    REG_REMOVE(tp);
 80026c0:	e9d4 3203 	ldrd	r3, r2, [r4, #12]
 80026c4:	60d3      	str	r3, [r2, #12]
 80026c6:	611a      	str	r2, [r3, #16]
}
 80026c8:	e8bd 4038 	ldmia.w	sp!, {r3, r4, r5, lr}
  chSchGoSleepS(CH_STATE_FINAL);
 80026cc:	200f      	movs	r0, #15
 80026ce:	f7ff bf67 	b.w	80025a0 <chSchGoSleepS>
 80026d2:	bf00      	nop
 80026d4:	2000189c 	.word	0x2000189c
	...

080026e0 <chSchGoSleepTimeoutS>:
msg_t chSchGoSleepTimeoutS(tstate_t newstate, sysinterval_t timeout) {
 80026e0:	b5f0      	push	{r4, r5, r6, r7, lr}
  if (TIME_INFINITE != timeout) {
 80026e2:	1c4b      	adds	r3, r1, #1
msg_t chSchGoSleepTimeoutS(tstate_t newstate, sysinterval_t timeout) {
 80026e4:	b087      	sub	sp, #28
  if (TIME_INFINITE != timeout) {
 80026e6:	d048      	beq.n	800277a <chSchGoSleepTimeoutS+0x9a>
    chVTDoSetI(&vt, timeout, wakeup, currp);
 80026e8:	4c3d      	ldr	r4, [pc, #244]	; (80027e0 <chSchGoSleepTimeoutS+0x100>)

  chDbgCheckClassI();
  chDbgCheck((vtp != NULL) && (vtfunc != NULL) && (delay != TIME_IMMEDIATE));

  vtp->par = par;
  vtp->func = vtfunc;
 80026ea:	4f3e      	ldr	r7, [pc, #248]	; (80027e4 <chSchGoSleepTimeoutS+0x104>)
  vtp->par = par;
 80026ec:	6963      	ldr	r3, [r4, #20]
 80026ee:	9305      	str	r3, [sp, #20]
    if (delay < (sysinterval_t)CH_CFG_ST_TIMEDELTA) {
      delay = (sysinterval_t)CH_CFG_ST_TIMEDELTA;
    }

    /* Special case where the timers list is empty.*/
    if (&ch.vtlist == (virtual_timers_list_t *)ch.vtlist.next) {
 80026f0:	4626      	mov	r6, r4
 80026f2:	2902      	cmp	r1, #2
 80026f4:	f856 3f18 	ldr.w	r3, [r6, #24]!
 80026f8:	4605      	mov	r5, r0
 *
 * @notapi
 */
static inline systime_t st_lld_get_counter(void) {

  return (systime_t)STM32_ST_TIM->CNT;
 80026fa:	483b      	ldr	r0, [pc, #236]	; (80027e8 <chSchGoSleepTimeoutS+0x108>)
 80026fc:	bf38      	it	cc
 80026fe:	2102      	movcc	r1, #2
 8002700:	42b3      	cmp	r3, r6
 8002702:	6a42      	ldr	r2, [r0, #36]	; 0x24
  vtp->func = vtfunc;
 8002704:	9704      	str	r7, [sp, #16]
    if (&ch.vtlist == (virtual_timers_list_t *)ch.vtlist.next) {
 8002706:	d059      	beq.n	80027bc <chSchGoSleepTimeoutS+0xdc>
    /* Pointer to the first element in the delta list, which is non-empty.*/
    p = ch.vtlist.next;

    /* Delay as delta from 'lasttime'. Note, it can overflow and the value
       becomes lower than 'now'.*/
    delta = chTimeDiffX(ch.vtlist.lasttime, now) + delay;
 8002708:	6a67      	ldr	r7, [r4, #36]	; 0x24
 */
static inline sysinterval_t chTimeDiffX(systime_t start, systime_t end) {

  /*lint -save -e9033 [10.8] This cast is required by the operation, it is
    known that the destination type can be wider.*/
  return (sysinterval_t)((systime_t)(end - start));
 800270a:	1bd2      	subs	r2, r2, r7
 800270c:	1889      	adds	r1, r1, r2

    if (delta < chTimeDiffX(ch.vtlist.lasttime, now)) {
 800270e:	d32e      	bcc.n	800276e <chSchGoSleepTimeoutS+0x8e>
      /* Scenario where a very large delay excedeed the numeric range, it
         requires a special handling. We need to skip the first element and
         adjust the delta to wrap back in the previous numeric range.*/
      delta -= p->delta;
 8002710:	6898      	ldr	r0, [r3, #8]
      p = p->next;
 8002712:	681b      	ldr	r3, [r3, #0]
 8002714:	689a      	ldr	r2, [r3, #8]
      delta -= p->delta;
 8002716:	1a09      	subs	r1, r1, r0
  p = ch.vtlist.next;
#endif /* CH_CFG_ST_TIMEDELTA == 0 */

  /* The delta list is scanned in order to find the correct position for
     this timer. */
  while (p->delta < delta) {
 8002718:	4291      	cmp	r1, r2
 800271a:	d904      	bls.n	8002726 <chSchGoSleepTimeoutS+0x46>
    /* Debug assert if the timer is already in the list.*/
    chDbgAssert(p != vtp, "timer already armed");

    delta -= p->delta;
    p = p->next;
 800271c:	681b      	ldr	r3, [r3, #0]
    delta -= p->delta;
 800271e:	1a89      	subs	r1, r1, r2
  while (p->delta < delta) {
 8002720:	689a      	ldr	r2, [r3, #8]
 8002722:	428a      	cmp	r2, r1
 8002724:	d3fa      	bcc.n	800271c <chSchGoSleepTimeoutS+0x3c>
  }

  /* The timer is inserted in the delta list.*/
  vtp->next = p;
  vtp->prev = vtp->next->prev;
 8002726:	685a      	ldr	r2, [r3, #4]
 8002728:	9202      	str	r2, [sp, #8]
  vtp->prev->next = vtp;
 800272a:	af01      	add	r7, sp, #4
  vtp->next = p;
 800272c:	9301      	str	r3, [sp, #4]
  vtp->prev->next = vtp;
 800272e:	6017      	str	r7, [r2, #0]
  p->prev = vtp;
 8002730:	605f      	str	r7, [r3, #4]
  vtp->delta = delta;
 8002732:	9103      	str	r1, [sp, #12]

  /* Calculate new delta for the following entry.*/
  p->delta -= delta;
 8002734:	689a      	ldr	r2, [r3, #8]
 8002736:	1a51      	subs	r1, r2, r1

  /* Special case when the timer is in last position in the list, the
     value in the header must be restored.*/
  ch.vtlist.delta = (sysinterval_t)-1;
 8002738:	f04f 32ff 	mov.w	r2, #4294967295	; 0xffffffff
  p->delta -= delta;
 800273c:	6099      	str	r1, [r3, #8]
  ch.vtlist.delta = (sysinterval_t)-1;
 800273e:	6222      	str	r2, [r4, #32]
    chSchGoSleepS(newstate);
 8002740:	4628      	mov	r0, r5
 8002742:	f7ff ff2d 	bl	80025a0 <chSchGoSleepS>
    if (chVTIsArmedI(&vt)) {
 8002746:	9b04      	ldr	r3, [sp, #16]
 8002748:	b16b      	cbz	r3, 8002766 <chSchGoSleepTimeoutS+0x86>
#else /* CH_CFG_ST_TIMEDELTA > 0 */
  sysinterval_t nowdelta, delta;

  /* If the timer is not the first of the list then it is simply unlinked
     else the operation is more complex.*/
  if (ch.vtlist.next != vtp) {
 800274a:	69a3      	ldr	r3, [r4, #24]
 800274c:	42bb      	cmp	r3, r7
 800274e:	d01b      	beq.n	8002788 <chSchGoSleepTimeoutS+0xa8>
    /* Removing the element from the delta list.*/
    vtp->prev->next = vtp->next;
 8002750:	e9dd 3201 	ldrd	r3, r2, [sp, #4]
 8002754:	6013      	str	r3, [r2, #0]
    vtp->next->prev = vtp->prev;
 8002756:	9b01      	ldr	r3, [sp, #4]
    vtp->func = NULL;

    /* Adding delta to the next element, if it is not the last one.*/
    if (&ch.vtlist != (virtual_timers_list_t *)vtp->next)
 8002758:	42b3      	cmp	r3, r6
    vtp->next->prev = vtp->prev;
 800275a:	605a      	str	r2, [r3, #4]
    if (&ch.vtlist != (virtual_timers_list_t *)vtp->next)
 800275c:	d003      	beq.n	8002766 <chSchGoSleepTimeoutS+0x86>
      vtp->next->delta += vtp->delta;
 800275e:	689a      	ldr	r2, [r3, #8]
 8002760:	9903      	ldr	r1, [sp, #12]
 8002762:	440a      	add	r2, r1
 8002764:	609a      	str	r2, [r3, #8]
  return currp->u.rdymsg;
 8002766:	6963      	ldr	r3, [r4, #20]
}
 8002768:	6a58      	ldr	r0, [r3, #36]	; 0x24
 800276a:	b007      	add	sp, #28
 800276c:	bdf0      	pop	{r4, r5, r6, r7, pc}
    else if (delta < p->delta) {
 800276e:	689a      	ldr	r2, [r3, #8]
 8002770:	4291      	cmp	r1, r2
 8002772:	d2d1      	bcs.n	8002718 <chSchGoSleepTimeoutS+0x38>
  return systime + (systime_t)interval;
 8002774:	440f      	add	r7, r1
 *
 * @notapi
 */
static inline void st_lld_set_alarm(systime_t abstime) {

  STM32_ST_TIM->CCR[0] = (uint32_t)abstime;
 8002776:	6347      	str	r7, [r0, #52]	; 0x34
 8002778:	e7ce      	b.n	8002718 <chSchGoSleepTimeoutS+0x38>
    chSchGoSleepS(newstate);
 800277a:	4c19      	ldr	r4, [pc, #100]	; (80027e0 <chSchGoSleepTimeoutS+0x100>)
 800277c:	f7ff ff10 	bl	80025a0 <chSchGoSleepS>
  return currp->u.rdymsg;
 8002780:	6963      	ldr	r3, [r4, #20]
}
 8002782:	6a58      	ldr	r0, [r3, #36]	; 0x24
 8002784:	b007      	add	sp, #28
 8002786:	bdf0      	pop	{r4, r5, r6, r7, pc}

    return;
  }

  /* Removing the first timer from the list.*/
  ch.vtlist.next = vtp->next;
 8002788:	9b01      	ldr	r3, [sp, #4]
 800278a:	61a3      	str	r3, [r4, #24]
  ch.vtlist.next->prev = (virtual_timer_t *)&ch.vtlist;
  vtp->func = NULL;
 800278c:	2200      	movs	r2, #0

  /* If the list become empty then the alarm timer is stopped and done.*/
  if (&ch.vtlist == (virtual_timers_list_t *)ch.vtlist.next) {
 800278e:	42b3      	cmp	r3, r6
  ch.vtlist.next->prev = (virtual_timer_t *)&ch.vtlist;
 8002790:	605e      	str	r6, [r3, #4]
  vtp->func = NULL;
 8002792:	9204      	str	r2, [sp, #16]
  if (&ch.vtlist == (virtual_timers_list_t *)ch.vtlist.next) {
 8002794:	d020      	beq.n	80027d8 <chSchGoSleepTimeoutS+0xf8>

    return;
  }

  /* The delta of the removed timer is added to the new first timer.*/
  ch.vtlist.next->delta += vtp->delta;
 8002796:	689a      	ldr	r2, [r3, #8]
 8002798:	9d03      	ldr	r5, [sp, #12]
  return (systime_t)STM32_ST_TIM->CNT;
 800279a:	4813      	ldr	r0, [pc, #76]	; (80027e8 <chSchGoSleepTimeoutS+0x108>)
/*  if (ch.vtlist.next->delta == 0) {
    return;
  }*/

  /* Distance in ticks between the last alarm event and current time.*/
  nowdelta = chTimeDiffX(ch.vtlist.lasttime, chVTGetSystemTimeX());
 800279c:	6a61      	ldr	r1, [r4, #36]	; 0x24
  ch.vtlist.next->delta += vtp->delta;
 800279e:	442a      	add	r2, r5
 80027a0:	609a      	str	r2, [r3, #8]
 80027a2:	6a43      	ldr	r3, [r0, #36]	; 0x24
  return (sysinterval_t)((systime_t)(end - start));
 80027a4:	1a58      	subs	r0, r3, r1

  /* If the current time surpassed the time of the next element in list
     then the event interrupt is already pending, just return.*/
  if (nowdelta >= ch.vtlist.next->delta) {
 80027a6:	4282      	cmp	r2, r0
 80027a8:	d9dd      	bls.n	8002766 <chSchGoSleepTimeoutS+0x86>
    return;
  }

  /* Distance from the next scheduled event and now.*/
  delta = ch.vtlist.next->delta - nowdelta;
 80027aa:	1acb      	subs	r3, r1, r3
 80027ac:	4413      	add	r3, r2

  /* Making sure to not schedule an event closer than CH_CFG_ST_TIMEDELTA
     ticks from now.*/
  if (delta < (sysinterval_t)CH_CFG_ST_TIMEDELTA) {
 80027ae:	2b01      	cmp	r3, #1
    delta = nowdelta + (sysinterval_t)CH_CFG_ST_TIMEDELTA;
 80027b0:	bf98      	it	ls
 80027b2:	1c82      	addls	r2, r0, #2
  STM32_ST_TIM->CCR[0] = (uint32_t)abstime;
 80027b4:	4b0c      	ldr	r3, [pc, #48]	; (80027e8 <chSchGoSleepTimeoutS+0x108>)
  return systime + (systime_t)interval;
 80027b6:	440a      	add	r2, r1
 80027b8:	635a      	str	r2, [r3, #52]	; 0x34
 80027ba:	e7d4      	b.n	8002766 <chSchGoSleepTimeoutS+0x86>
 80027bc:	188b      	adds	r3, r1, r2
      ch.vtlist.next = vtp;
 80027be:	af01      	add	r7, sp, #4
      ch.vtlist.lasttime = now;
 80027c0:	6262      	str	r2, [r4, #36]	; 0x24
      vtp->prev = (virtual_timer_t *)&ch.vtlist;
 80027c2:	e9cd 6601 	strd	r6, r6, [sp, #4]
      ch.vtlist.prev = vtp;
 80027c6:	e9c4 7706 	strd	r7, r7, [r4, #24]
      vtp->delta = delay;
 80027ca:	9103      	str	r1, [sp, #12]
  STM32_ST_TIM->SR     = 0;
 80027cc:	2200      	movs	r2, #0
  STM32_ST_TIM->CCR[0] = (uint32_t)abstime;
 80027ce:	6343      	str	r3, [r0, #52]	; 0x34
  STM32_ST_TIM->DIER   = STM32_TIM_DIER_CC1IE;
 80027d0:	2302      	movs	r3, #2
  STM32_ST_TIM->SR     = 0;
 80027d2:	6102      	str	r2, [r0, #16]
  STM32_ST_TIM->DIER   = STM32_TIM_DIER_CC1IE;
 80027d4:	60c3      	str	r3, [r0, #12]
 80027d6:	e7b3      	b.n	8002740 <chSchGoSleepTimeoutS+0x60>
  STM32_ST_TIM->DIER = 0U;
 80027d8:	4b03      	ldr	r3, [pc, #12]	; (80027e8 <chSchGoSleepTimeoutS+0x108>)
 80027da:	60da      	str	r2, [r3, #12]
    return;
 80027dc:	e7c3      	b.n	8002766 <chSchGoSleepTimeoutS+0x86>
 80027de:	bf00      	nop
 80027e0:	2000189c 	.word	0x2000189c
 80027e4:	08001831 	.word	0x08001831
 80027e8:	40000c00 	.word	0x40000c00
 80027ec:	00000000 	.word	0x00000000

080027f0 <chThdEnqueueTimeoutS>:
  if (TIME_IMMEDIATE == timeout) {
 80027f0:	b161      	cbz	r1, 800280c <chThdEnqueueTimeoutS+0x1c>
  queue_insert(currp, tqp);
 80027f2:	4a08      	ldr	r2, [pc, #32]	; (8002814 <chThdEnqueueTimeoutS+0x24>)
msg_t chThdEnqueueTimeoutS(threads_queue_t *tqp, sysinterval_t timeout) {
 80027f4:	b410      	push	{r4}
  queue_insert(currp, tqp);
 80027f6:	6952      	ldr	r2, [r2, #20]
  tp->queue.prev             = tqp->prev;
 80027f8:	6844      	ldr	r4, [r0, #4]
 80027fa:	4603      	mov	r3, r0
 80027fc:	e9c2 3400 	strd	r3, r4, [r2]
  return chSchGoSleepTimeoutS(CH_STATE_QUEUED, timeout);
 8002800:	2004      	movs	r0, #4
  tp->queue.prev->queue.next = tp;
 8002802:	6022      	str	r2, [r4, #0]
}
 8002804:	bc10      	pop	{r4}
  tqp->prev                  = tp;
 8002806:	605a      	str	r2, [r3, #4]
  return chSchGoSleepTimeoutS(CH_STATE_QUEUED, timeout);
 8002808:	f7ff bf6a 	b.w	80026e0 <chSchGoSleepTimeoutS>
}
 800280c:	f04f 30ff 	mov.w	r0, #4294967295	; 0xffffffff
 8002810:	4770      	bx	lr
 8002812:	bf00      	nop
 8002814:	2000189c 	.word	0x2000189c
	...

08002820 <oqPutTimeout>:
msg_t oqPutTimeout(output_queue_t *oqp, uint8_t b, sysinterval_t timeout) {
 8002820:	b5f8      	push	{r3, r4, r5, r6, r7, lr}
 8002822:	4604      	mov	r4, r0
 8002824:	460f      	mov	r7, r1
 8002826:	4616      	mov	r6, r2
 8002828:	2320      	movs	r3, #32
 800282a:	f383 8811 	msr	BASEPRI, r3
 */
static inline void chSysLock(void) {

  port_lock();
  _stats_start_measure_crit_thd();
  _dbg_check_lock();
 800282e:	e003      	b.n	8002838 <oqPutTimeout+0x18>
  return chThdEnqueueTimeoutS(tqp, timeout);
 8002830:	f7ff ffde 	bl	80027f0 <chThdEnqueueTimeoutS>
    if (msg < MSG_OK) {
 8002834:	2800      	cmp	r0, #0
 8002836:	db18      	blt.n	800286a <oqPutTimeout+0x4a>
  while (oqIsFullI(oqp)) {
 8002838:	68a5      	ldr	r5, [r4, #8]
 800283a:	4631      	mov	r1, r6
 800283c:	4620      	mov	r0, r4
 800283e:	2d00      	cmp	r5, #0
 8002840:	d0f6      	beq.n	8002830 <oqPutTimeout+0x10>
  *oqp->q_wrptr++ = b;
 8002842:	6962      	ldr	r2, [r4, #20]
  oqp->q_counter--;
 8002844:	68a3      	ldr	r3, [r4, #8]
  *oqp->q_wrptr++ = b;
 8002846:	1c51      	adds	r1, r2, #1
  oqp->q_counter--;
 8002848:	3b01      	subs	r3, #1
  *oqp->q_wrptr++ = b;
 800284a:	6161      	str	r1, [r4, #20]
  oqp->q_counter--;
 800284c:	60a3      	str	r3, [r4, #8]
  *oqp->q_wrptr++ = b;
 800284e:	7017      	strb	r7, [r2, #0]
  if (oqp->q_wrptr >= oqp->q_top) {
 8002850:	e9d4 3204 	ldrd	r3, r2, [r4, #16]
 8002854:	429a      	cmp	r2, r3
    oqp->q_wrptr = oqp->q_buffer;
 8002856:	bf24      	itt	cs
 8002858:	68e3      	ldrcs	r3, [r4, #12]
 800285a:	6163      	strcs	r3, [r4, #20]
  if (oqp->q_notify != NULL) {
 800285c:	69e3      	ldr	r3, [r4, #28]
 800285e:	b103      	cbz	r3, 8002862 <oqPutTimeout+0x42>
    oqp->q_notify(oqp);
 8002860:	4798      	blx	r3
 8002862:	2000      	movs	r0, #0
 8002864:	f380 8811 	msr	BASEPRI, r0
}
 8002868:	bdf8      	pop	{r3, r4, r5, r6, r7, pc}
 800286a:	f385 8811 	msr	BASEPRI, r5
 800286e:	bdf8      	pop	{r3, r4, r5, r6, r7, pc}

08002870 <_putt.lto_priv.0>:
  return oqPutTimeout(&((SerialDriver *)ip)->oqueue, b, timeout);
 8002870:	3030      	adds	r0, #48	; 0x30
 8002872:	f7ff bfd5 	b.w	8002820 <oqPutTimeout>
 8002876:	bf00      	nop
	...

08002880 <_put.lto_priv.0>:
  return oqPutTimeout(&((SerialDriver *)ip)->oqueue, b, TIME_INFINITE);
 8002880:	3030      	adds	r0, #48	; 0x30
 8002882:	f04f 32ff 	mov.w	r2, #4294967295	; 0xffffffff
 8002886:	f7ff bfcb 	b.w	8002820 <oqPutTimeout>
 800288a:	bf00      	nop
 800288c:	0000      	movs	r0, r0
	...

08002890 <iqGetTimeout>:
msg_t iqGetTimeout(input_queue_t *iqp, sysinterval_t timeout) {
 8002890:	b570      	push	{r4, r5, r6, lr}
 8002892:	2320      	movs	r3, #32
 8002894:	4605      	mov	r5, r0
 8002896:	460e      	mov	r6, r1
 8002898:	f383 8811 	msr	BASEPRI, r3
 800289c:	e003      	b.n	80028a6 <iqGetTimeout+0x16>
 800289e:	f7ff ffa7 	bl	80027f0 <chThdEnqueueTimeoutS>
    if (msg < MSG_OK) {
 80028a2:	2800      	cmp	r0, #0
 80028a4:	db1a      	blt.n	80028dc <iqGetTimeout+0x4c>
  while (iqIsEmptyI(iqp)) {
 80028a6:	68ac      	ldr	r4, [r5, #8]
 80028a8:	4631      	mov	r1, r6
 80028aa:	4628      	mov	r0, r5
 80028ac:	2c00      	cmp	r4, #0
 80028ae:	d0f6      	beq.n	800289e <iqGetTimeout+0xe>
  b = *iqp->q_rdptr++;
 80028b0:	69a9      	ldr	r1, [r5, #24]
  iqp->q_counter--;
 80028b2:	68ab      	ldr	r3, [r5, #8]
  if (iqp->q_rdptr >= iqp->q_top) {
 80028b4:	6928      	ldr	r0, [r5, #16]
  b = *iqp->q_rdptr++;
 80028b6:	1c4a      	adds	r2, r1, #1
  iqp->q_counter--;
 80028b8:	3b01      	subs	r3, #1
  if (iqp->q_rdptr >= iqp->q_top) {
 80028ba:	4282      	cmp	r2, r0
  iqp->q_counter--;
 80028bc:	60ab      	str	r3, [r5, #8]
  b = *iqp->q_rdptr++;
 80028be:	61aa      	str	r2, [r5, #24]
    iqp->q_rdptr = iqp->q_buffer;
 80028c0:	bf28      	it	cs
 80028c2:	68eb      	ldrcs	r3, [r5, #12]
  b = *iqp->q_rdptr++;
 80028c4:	780c      	ldrb	r4, [r1, #0]
    iqp->q_rdptr = iqp->q_buffer;
 80028c6:	bf28      	it	cs
 80028c8:	61ab      	strcs	r3, [r5, #24]
  if (iqp->q_notify != NULL) {
 80028ca:	69eb      	ldr	r3, [r5, #28]
 80028cc:	b10b      	cbz	r3, 80028d2 <iqGetTimeout+0x42>
    iqp->q_notify(iqp);
 80028ce:	4628      	mov	r0, r5
 80028d0:	4798      	blx	r3
 80028d2:	2300      	movs	r3, #0
 80028d4:	f383 8811 	msr	BASEPRI, r3
  return (msg_t)b;
 80028d8:	4620      	mov	r0, r4
}
 80028da:	bd70      	pop	{r4, r5, r6, pc}
 80028dc:	f384 8811 	msr	BASEPRI, r4
 80028e0:	bd70      	pop	{r4, r5, r6, pc}
 80028e2:	bf00      	nop
	...

080028f0 <_gett.lto_priv.0>:
  return iqGetTimeout(&((SerialDriver *)ip)->iqueue, timeout);
 80028f0:	300c      	adds	r0, #12
 80028f2:	f7ff bfcd 	b.w	8002890 <iqGetTimeout>
 80028f6:	bf00      	nop
	...

08002900 <_get.lto_priv.0>:
  return iqGetTimeout(&((SerialDriver *)ip)->iqueue, TIME_INFINITE);
 8002900:	300c      	adds	r0, #12
 8002902:	f04f 31ff 	mov.w	r1, #4294967295	; 0xffffffff
 8002906:	f7ff bfc3 	b.w	8002890 <iqGetTimeout>
 800290a:	bf00      	nop
 800290c:	0000      	movs	r0, r0
	...

08002910 <obqGetEmptyBufferTimeoutS>:
                                sysinterval_t timeout) {
 8002910:	b538      	push	{r3, r4, r5, lr}
 8002912:	4604      	mov	r4, r0
 8002914:	460d      	mov	r5, r1
 8002916:	e005      	b.n	8002924 <obqGetEmptyBufferTimeoutS+0x14>
    if (obqp->suspended) {
 8002918:	7a23      	ldrb	r3, [r4, #8]
 800291a:	b983      	cbnz	r3, 800293e <obqGetEmptyBufferTimeoutS+0x2e>
 800291c:	f7ff ff68 	bl	80027f0 <chThdEnqueueTimeoutS>
    if (msg < MSG_OK) {
 8002920:	2800      	cmp	r0, #0
 8002922:	db0b      	blt.n	800293c <obqGetEmptyBufferTimeoutS+0x2c>
  while (obqIsFullI(obqp)) {
 8002924:	68e3      	ldr	r3, [r4, #12]
 8002926:	4629      	mov	r1, r5
 8002928:	4620      	mov	r0, r4
 800292a:	2b00      	cmp	r3, #0
 800292c:	d0f4      	beq.n	8002918 <obqGetEmptyBufferTimeoutS+0x8>
  obqp->ptr = obqp->bwrptr + sizeof (size_t);
 800292e:	6923      	ldr	r3, [r4, #16]
  obqp->top = obqp->bwrptr + obqp->bsize;
 8002930:	69e1      	ldr	r1, [r4, #28]
  obqp->ptr = obqp->bwrptr + sizeof (size_t);
 8002932:	1d1a      	adds	r2, r3, #4
  obqp->top = obqp->bwrptr + obqp->bsize;
 8002934:	440b      	add	r3, r1
 8002936:	e9c4 230a 	strd	r2, r3, [r4, #40]	; 0x28
 800293a:	2000      	movs	r0, #0
}
 800293c:	bd38      	pop	{r3, r4, r5, pc}
      return MSG_RESET;
 800293e:	f06f 0001 	mvn.w	r0, #1
}
 8002942:	bd38      	pop	{r3, r4, r5, pc}
	...

08002950 <obqPutTimeout>:
                    sysinterval_t timeout) {
 8002950:	b570      	push	{r4, r5, r6, lr}
 8002952:	2320      	movs	r3, #32
 8002954:	460d      	mov	r5, r1
 8002956:	4604      	mov	r4, r0
 8002958:	f383 8811 	msr	BASEPRI, r3
  if (obqp->ptr == NULL) {
 800295c:	6a86      	ldr	r6, [r0, #40]	; 0x28
 800295e:	b1fe      	cbz	r6, 80029a0 <obqPutTimeout+0x50>
  *obqp->ptr = b;
 8002960:	7035      	strb	r5, [r6, #0]
  if (obqp->ptr >= obqp->top) {
 8002962:	e9d4 320a 	ldrd	r3, r2, [r4, #40]	; 0x28
  obqp->ptr++;
 8002966:	3301      	adds	r3, #1
  if (obqp->ptr >= obqp->top) {
 8002968:	4293      	cmp	r3, r2
  obqp->ptr++;
 800296a:	62a3      	str	r3, [r4, #40]	; 0x28
  if (obqp->ptr >= obqp->top) {
 800296c:	d314      	bcc.n	8002998 <obqPutTimeout+0x48>
    obqPostFullBufferS(obqp, obqp->bsize - sizeof (size_t));
 800296e:	69e2      	ldr	r2, [r4, #28]
  *((size_t *)obqp->bwrptr) = size;
 8002970:	6923      	ldr	r3, [r4, #16]
  if (obqp->bwrptr >= obqp->btop) {
 8002972:	69a1      	ldr	r1, [r4, #24]
    obqPostFullBufferS(obqp, obqp->bsize - sizeof (size_t));
 8002974:	3a04      	subs	r2, #4
  *((size_t *)obqp->bwrptr) = size;
 8002976:	601a      	str	r2, [r3, #0]
  obqp->bwrptr += obqp->bsize;
 8002978:	69e0      	ldr	r0, [r4, #28]
  obqp->bcounter--;
 800297a:	68e2      	ldr	r2, [r4, #12]
  obqp->bwrptr += obqp->bsize;
 800297c:	4403      	add	r3, r0
  if (obqp->bwrptr >= obqp->btop) {
 800297e:	428b      	cmp	r3, r1
  obqp->bwrptr += obqp->bsize;
 8002980:	6123      	str	r3, [r4, #16]
    obqp->bwrptr = obqp->buffers;
 8002982:	bf24      	itt	cs
 8002984:	6a63      	ldrcs	r3, [r4, #36]	; 0x24
 8002986:	6123      	strcs	r3, [r4, #16]
  obqp->bcounter--;
 8002988:	3a01      	subs	r2, #1
  if (obqp->notify != NULL) {
 800298a:	6b23      	ldr	r3, [r4, #48]	; 0x30
  obqp->bcounter--;
 800298c:	60e2      	str	r2, [r4, #12]
  obqp->ptr = NULL;
 800298e:	2200      	movs	r2, #0
 8002990:	62a2      	str	r2, [r4, #40]	; 0x28
  if (obqp->notify != NULL) {
 8002992:	b10b      	cbz	r3, 8002998 <obqPutTimeout+0x48>
    obqp->notify(obqp);
 8002994:	4620      	mov	r0, r4
 8002996:	4798      	blx	r3
 8002998:	2000      	movs	r0, #0
 800299a:	f380 8811 	msr	BASEPRI, r0
}
 800299e:	bd70      	pop	{r4, r5, r6, pc}
    msg = obqGetEmptyBufferTimeoutS(obqp, timeout);
 80029a0:	4611      	mov	r1, r2
 80029a2:	f7ff ffb5 	bl	8002910 <obqGetEmptyBufferTimeoutS>
    if (msg != MSG_OK) {
 80029a6:	b908      	cbnz	r0, 80029ac <obqPutTimeout+0x5c>
 80029a8:	6aa6      	ldr	r6, [r4, #40]	; 0x28
 80029aa:	e7d9      	b.n	8002960 <obqPutTimeout+0x10>
 80029ac:	f386 8811 	msr	BASEPRI, r6
}
 80029b0:	bd70      	pop	{r4, r5, r6, pc}
 80029b2:	bf00      	nop
	...

080029c0 <_putt.lto_priv.1>:
  return obqPutTimeout(&((SerialUSBDriver *)ip)->obqueue, b, timeout);
 80029c0:	3044      	adds	r0, #68	; 0x44
 80029c2:	f7ff bfc5 	b.w	8002950 <obqPutTimeout>
 80029c6:	bf00      	nop
	...

080029d0 <_put.lto_priv.1>:
  return obqPutTimeout(&((SerialUSBDriver *)ip)->obqueue, b, TIME_INFINITE);
 80029d0:	3044      	adds	r0, #68	; 0x44
 80029d2:	f04f 32ff 	mov.w	r2, #4294967295	; 0xffffffff
 80029d6:	f7ff bfbb 	b.w	8002950 <obqPutTimeout>
 80029da:	bf00      	nop
 80029dc:	0000      	movs	r0, r0
	...

080029e0 <ibqGetFullBufferTimeoutS>:
                                 sysinterval_t timeout) {
 80029e0:	b538      	push	{r3, r4, r5, lr}
 80029e2:	4604      	mov	r4, r0
 80029e4:	460d      	mov	r5, r1
 80029e6:	e005      	b.n	80029f4 <ibqGetFullBufferTimeoutS+0x14>
    if (ibqp->suspended) {
 80029e8:	7a23      	ldrb	r3, [r4, #8]
 80029ea:	b983      	cbnz	r3, 8002a0e <ibqGetFullBufferTimeoutS+0x2e>
 80029ec:	f7ff ff00 	bl	80027f0 <chThdEnqueueTimeoutS>
    if (msg < MSG_OK) {
 80029f0:	2800      	cmp	r0, #0
 80029f2:	db0b      	blt.n	8002a0c <ibqGetFullBufferTimeoutS+0x2c>
  while (ibqIsEmptyI(ibqp)) {
 80029f4:	68e3      	ldr	r3, [r4, #12]
 80029f6:	4629      	mov	r1, r5
 80029f8:	4620      	mov	r0, r4
 80029fa:	2b00      	cmp	r3, #0
 80029fc:	d0f4      	beq.n	80029e8 <ibqGetFullBufferTimeoutS+0x8>
  ibqp->ptr = ibqp->brdptr + sizeof (size_t);
 80029fe:	6963      	ldr	r3, [r4, #20]
  ibqp->top = ibqp->ptr + *((size_t *)ibqp->brdptr);
 8002a00:	681a      	ldr	r2, [r3, #0]
  ibqp->ptr = ibqp->brdptr + sizeof (size_t);
 8002a02:	3304      	adds	r3, #4
  ibqp->top = ibqp->ptr + *((size_t *)ibqp->brdptr);
 8002a04:	441a      	add	r2, r3
  ibqp->ptr = ibqp->brdptr + sizeof (size_t);
 8002a06:	e9c4 320a 	strd	r3, r2, [r4, #40]	; 0x28
  ibqp->top = ibqp->ptr + *((size_t *)ibqp->brdptr);
 8002a0a:	2000      	movs	r0, #0
}
 8002a0c:	bd38      	pop	{r3, r4, r5, pc}
      return MSG_RESET;
 8002a0e:	f06f 0001 	mvn.w	r0, #1
}
 8002a12:	bd38      	pop	{r3, r4, r5, pc}
	...

08002a20 <ibqGetTimeout>:
msg_t ibqGetTimeout(input_buffers_queue_t *ibqp, sysinterval_t timeout) {
 8002a20:	b570      	push	{r4, r5, r6, lr}
 8002a22:	2320      	movs	r3, #32
 8002a24:	4604      	mov	r4, r0
 8002a26:	f383 8811 	msr	BASEPRI, r3
  if (ibqp->ptr == NULL) {
 8002a2a:	6a85      	ldr	r5, [r0, #40]	; 0x28
 8002a2c:	b1e5      	cbz	r5, 8002a68 <ibqGetTimeout+0x48>
  msg = (msg_t)*ibqp->ptr;
 8002a2e:	f815 6b01 	ldrb.w	r6, [r5], #1
  if (ibqp->ptr >= ibqp->top) {
 8002a32:	6ae2      	ldr	r2, [r4, #44]	; 0x2c
  ibqp->ptr++;
 8002a34:	62a5      	str	r5, [r4, #40]	; 0x28
  if (ibqp->ptr >= ibqp->top) {
 8002a36:	4295      	cmp	r5, r2
 8002a38:	d311      	bcc.n	8002a5e <ibqGetTimeout+0x3e>
  if (ibqp->brdptr >= ibqp->btop) {
 8002a3a:	e9d4 1006 	ldrd	r1, r0, [r4, #24]
  ibqp->brdptr += ibqp->bsize;
 8002a3e:	6963      	ldr	r3, [r4, #20]
  ibqp->bcounter--;
 8002a40:	68e2      	ldr	r2, [r4, #12]
  ibqp->brdptr += ibqp->bsize;
 8002a42:	4403      	add	r3, r0
  if (ibqp->brdptr >= ibqp->btop) {
 8002a44:	428b      	cmp	r3, r1
  ibqp->brdptr += ibqp->bsize;
 8002a46:	6163      	str	r3, [r4, #20]
    ibqp->brdptr = ibqp->buffers;
 8002a48:	bf24      	itt	cs
 8002a4a:	6a63      	ldrcs	r3, [r4, #36]	; 0x24
 8002a4c:	6163      	strcs	r3, [r4, #20]
  ibqp->bcounter--;
 8002a4e:	3a01      	subs	r2, #1
  if (ibqp->notify != NULL) {
 8002a50:	6b23      	ldr	r3, [r4, #48]	; 0x30
  ibqp->bcounter--;
 8002a52:	60e2      	str	r2, [r4, #12]
  ibqp->ptr = NULL;
 8002a54:	2200      	movs	r2, #0
 8002a56:	62a2      	str	r2, [r4, #40]	; 0x28
  if (ibqp->notify != NULL) {
 8002a58:	b10b      	cbz	r3, 8002a5e <ibqGetTimeout+0x3e>
    ibqp->notify(ibqp);
 8002a5a:	4620      	mov	r0, r4
 8002a5c:	4798      	blx	r3
 8002a5e:	2300      	movs	r3, #0
 8002a60:	f383 8811 	msr	BASEPRI, r3
}
 8002a64:	4630      	mov	r0, r6
 8002a66:	bd70      	pop	{r4, r5, r6, pc}
    msg = ibqGetFullBufferTimeoutS(ibqp, timeout);
 8002a68:	f7ff ffba 	bl	80029e0 <ibqGetFullBufferTimeoutS>
    if (msg != MSG_OK) {
 8002a6c:	4606      	mov	r6, r0
 8002a6e:	b908      	cbnz	r0, 8002a74 <ibqGetTimeout+0x54>
 8002a70:	6aa5      	ldr	r5, [r4, #40]	; 0x28
 8002a72:	e7dc      	b.n	8002a2e <ibqGetTimeout+0xe>
 8002a74:	f385 8811 	msr	BASEPRI, r5
      return msg;
 8002a78:	e7f4      	b.n	8002a64 <ibqGetTimeout+0x44>
 8002a7a:	bf00      	nop
 8002a7c:	0000      	movs	r0, r0
	...

08002a80 <_gett.lto_priv.1>:
  return ibqGetTimeout(&((SerialUSBDriver *)ip)->ibqueue, timeout);
 8002a80:	300c      	adds	r0, #12
 8002a82:	f7ff bfcd 	b.w	8002a20 <ibqGetTimeout>
 8002a86:	bf00      	nop
	...

08002a90 <_get.lto_priv.1>:
  return ibqGetTimeout(&((SerialUSBDriver *)ip)->ibqueue, TIME_INFINITE);
 8002a90:	300c      	adds	r0, #12
 8002a92:	f04f 31ff 	mov.w	r1, #4294967295	; 0xffffffff
 8002a96:	f7ff bfc3 	b.w	8002a20 <ibqGetTimeout>
 8002a9a:	bf00      	nop
 8002a9c:	0000      	movs	r0, r0
	...

08002aa0 <chThdSleep>:
void chThdSleep(sysinterval_t time) {
 8002aa0:	b508      	push	{r3, lr}
 8002aa2:	4601      	mov	r1, r0
 8002aa4:	2320      	movs	r3, #32
 8002aa6:	f383 8811 	msr	BASEPRI, r3
  (void) chSchGoSleepTimeoutS(CH_STATE_SLEEPING, ticks);
 8002aaa:	2008      	movs	r0, #8
 8002aac:	f7ff fe18 	bl	80026e0 <chSchGoSleepTimeoutS>
 8002ab0:	2300      	movs	r3, #0
 8002ab2:	f383 8811 	msr	BASEPRI, r3
}
 8002ab6:	bd08      	pop	{r3, pc}
	...

08002ac0 <cmd_flush>:
  }
  flush_timeout = temp;
  chprintf(chp, "Timeout updated.\r\n");
}

void cmd_flush(BaseSequentialStream *chp, int argc, char *argv[]) {
 8002ac0:	b410      	push	{r4}
uint16_t flush_timeout = 1000;
uint8_t dump_format = 2, dump_in_progress = 0;
systime_t firstchar, last_received_char;

void flush_buffer(void){
  ldat_cnt = 0;
 8002ac2:	4c05      	ldr	r4, [pc, #20]	; (8002ad8 <cmd_flush+0x18>)
  oldcnt = 0;
 8002ac4:	4b05      	ldr	r3, [pc, #20]	; (8002adc <cmd_flush+0x1c>)
  memset(ldat, 0, sizeof(ldat));
 8002ac6:	4806      	ldr	r0, [pc, #24]	; (8002ae0 <cmd_flush+0x20>)
  ldat_cnt = 0;
 8002ac8:	2100      	movs	r1, #0
 8002aca:	6021      	str	r1, [r4, #0]
  memset(ldat, 0, sizeof(ldat));
 8002acc:	f44f 5200 	mov.w	r2, #8192	; 0x2000
  (void)* argv;
  (void)* chp;
  (void)argc;
  flush_buffer();
}
 8002ad0:	bc10      	pop	{r4}
  oldcnt = 0;
 8002ad2:	6019      	str	r1, [r3, #0]
  memset(ldat, 0, sizeof(ldat));
 8002ad4:	f003 b9c8 	b.w	8005e68 <memset>
 8002ad8:	20003cbc 	.word	0x20003cbc
 8002adc:	20003cc0 	.word	0x20003cc0
 8002ae0:	20001cbc 	.word	0x20001cbc
	...

08002af0 <usbInitEndpointI>:
                      const USBEndpointConfig *epcp) {
 8002af0:	e92d 43f8 	stmdb	sp!, {r3, r4, r5, r6, r7, r8, r9, lr}
  if (epcp->in_state != NULL) {
 8002af4:	6953      	ldr	r3, [r2, #20]
 8002af6:	eb00 0781 	add.w	r7, r0, r1, lsl #2
                      const USBEndpointConfig *epcp) {
 8002afa:	460c      	mov	r4, r1
  usbp->epc[ep] = epcp;
 8002afc:	60fa      	str	r2, [r7, #12]
  if (epcp->in_state != NULL) {
 8002afe:	fa0f f881 	sxth.w	r8, r1
 8002b02:	b123      	cbz	r3, 8002b0e <usbInitEndpointI+0x1e>
    memset(epcp->in_state, 0, sizeof(USBInEndpointState));
 8002b04:	2100      	movs	r1, #0
 8002b06:	6019      	str	r1, [r3, #0]
 8002b08:	6059      	str	r1, [r3, #4]
 8002b0a:	6099      	str	r1, [r3, #8]
 8002b0c:	60d9      	str	r1, [r3, #12]
  if (epcp->out_state != NULL) {
 8002b0e:	6993      	ldr	r3, [r2, #24]
 8002b10:	b123      	cbz	r3, 8002b1c <usbInitEndpointI+0x2c>
    memset(epcp->out_state, 0, sizeof(USBOutEndpointState));
 8002b12:	2200      	movs	r2, #0
 8002b14:	601a      	str	r2, [r3, #0]
 8002b16:	605a      	str	r2, [r3, #4]
 8002b18:	609a      	str	r2, [r3, #8]
 8002b1a:	60da      	str	r2, [r3, #12]
  switch (usbp->epc[ep]->ep_mode & USB_EP_MODE_TYPE) {
 8002b1c:	68fb      	ldr	r3, [r7, #12]
  stm32_otg_t *otgp = usbp->otg;
 8002b1e:	6d45      	ldr	r5, [r0, #84]	; 0x54
  switch (usbp->epc[ep]->ep_mode & USB_EP_MODE_TYPE) {
 8002b20:	681e      	ldr	r6, [r3, #0]
  if (usbp->epc[ep]->out_state != NULL) {
 8002b22:	f8d3 c018 	ldr.w	ip, [r3, #24]
  switch (usbp->epc[ep]->ep_mode & USB_EP_MODE_TYPE) {
 8002b26:	f006 0603 	and.w	r6, r6, #3
 8002b2a:	1e72      	subs	r2, r6, #1
 8002b2c:	2a02      	cmp	r2, #2
 8002b2e:	bf98      	it	ls
 8002b30:	04b6      	lslls	r6, r6, #18
  otgp->oe[ep].DOEPTSIZ = 0;
 8002b32:	eb05 1244 	add.w	r2, r5, r4, lsl #5
 8002b36:	f04f 0100 	mov.w	r1, #0
 8002b3a:	bf98      	it	ls
 8002b3c:	f106 5680 	addls.w	r6, r6, #268435456	; 0x10000000
 8002b40:	f8c2 1b10 	str.w	r1, [r2, #2832]	; 0xb10
  switch (usbp->epc[ep]->ep_mode & USB_EP_MODE_TYPE) {
 8002b44:	bf8c      	ite	hi
 8002b46:	4e45      	ldrhi	r6, [pc, #276]	; (8002c5c <usbInitEndpointI+0x16c>)
 8002b48:	f506 4600 	addls.w	r6, r6, #32768	; 0x8000
  otgp->oe[ep].DOEPTSIZ = 0;
 8002b4c:	0161      	lsls	r1, r4, #5
  if (usbp->epc[ep]->out_state != NULL) {
 8002b4e:	f1bc 0f00 	cmp.w	ip, #0
 8002b52:	d04b      	beq.n	8002bec <usbInitEndpointI+0xfc>
    otgp->oe[ep].DOEPCTL = ctl | DOEPCTL_MPSIZ(usbp->epc[ep]->out_maxsize);
 8002b54:	f8b3 c012 	ldrh.w	ip, [r3, #18]
 8002b58:	f104 0258 	add.w	r2, r4, #88	; 0x58
 8002b5c:	0152      	lsls	r2, r2, #5
 8002b5e:	ea4c 0c06 	orr.w	ip, ip, r6
 8002b62:	f845 c002 	str.w	ip, [r5, r2]
    otgp->DAINTMSK |= DAINTMSK_OEPM(ep);
 8002b66:	f104 0e10 	add.w	lr, r4, #16
 8002b6a:	f8d5 c81c 	ldr.w	ip, [r5, #2076]	; 0x81c
 8002b6e:	2201      	movs	r2, #1
 8002b70:	fa02 f20e 	lsl.w	r2, r2, lr
 8002b74:	ea42 020c 	orr.w	r2, r2, ip
 8002b78:	f8c5 281c 	str.w	r2, [r5, #2076]	; 0x81c
  otgp->ie[ep].DIEPTSIZ = 0;
 8002b7c:	186a      	adds	r2, r5, r1
  if (usbp->epc[ep]->in_state != NULL) {
 8002b7e:	6959      	ldr	r1, [r3, #20]
  otgp->ie[ep].DIEPTSIZ = 0;
 8002b80:	f04f 0c00 	mov.w	ip, #0
 8002b84:	f8c2 c910 	str.w	ip, [r2, #2320]	; 0x910
  if (usbp->epc[ep]->in_state != NULL) {
 8002b88:	2900      	cmp	r1, #0
 8002b8a:	d044      	beq.n	8002c16 <usbInitEndpointI+0x126>
    if (usbp->epc[ep]->in_multiplier > 1)
 8002b8c:	8b99      	ldrh	r1, [r3, #28]
    fsize = usbp->epc[ep]->in_maxsize / 4;
 8002b8e:	8a1a      	ldrh	r2, [r3, #16]
    if (usbp->epc[ep]->in_multiplier > 1)
 8002b90:	2901      	cmp	r1, #1
    fsize = usbp->epc[ep]->in_maxsize / 4;
 8002b92:	ea4f 0392 	mov.w	r3, r2, lsr #2
  next = usbp->pmnext;
 8002b96:	6dc2      	ldr	r2, [r0, #92]	; 0x5c
      fsize *= usbp->epc[ep]->in_multiplier;
 8002b98:	bf88      	it	hi
 8002b9a:	434b      	mulhi	r3, r1
    otgp->DIEPTXF[ep - 1] = DIEPTXF_INEPTXFD(fsize) |
 8002b9c:	f104 013f 	add.w	r1, r4, #63	; 0x3f
  usbp->pmnext += size;
 8002ba0:	eb03 0c02 	add.w	ip, r3, r2
    otgp->DIEPTXF[ep - 1] = DIEPTXF_INEPTXFD(fsize) |
 8002ba4:	eb05 0181 	add.w	r1, r5, r1, lsl #2
 8002ba8:	ea42 4303 	orr.w	r3, r2, r3, lsl #16
  otgp->GRSTCTL = GRSTCTL_TXFNUM(fifo) | GRSTCTL_TXFFLSH;
 8002bac:	01a2      	lsls	r2, r4, #6
 8002bae:	f042 0220 	orr.w	r2, r2, #32
  usbp->pmnext += size;
 8002bb2:	f8c0 c05c 	str.w	ip, [r0, #92]	; 0x5c
    otgp->DIEPTXF[ep - 1] = DIEPTXF_INEPTXFD(fsize) |
 8002bb6:	604b      	str	r3, [r1, #4]
  otgp->GRSTCTL = GRSTCTL_TXFNUM(fifo) | GRSTCTL_TXFFLSH;
 8002bb8:	612a      	str	r2, [r5, #16]
  while ((otgp->GRSTCTL & GRSTCTL_TXFFLSH) != 0)
 8002bba:	692b      	ldr	r3, [r5, #16]
 8002bbc:	069a      	lsls	r2, r3, #26
 8002bbe:	d4fc      	bmi.n	8002bba <usbInitEndpointI+0xca>
  chSysPolledDelayX(cycles);
 8002bc0:	2012      	movs	r0, #18
 8002bc2:	f7fe fedd 	bl	8001980 <chSysPolledDelayX>
                           DIEPCTL_MPSIZ(usbp->epc[ep]->in_maxsize);
 8002bc6:	68fb      	ldr	r3, [r7, #12]
 8002bc8:	8a1b      	ldrh	r3, [r3, #16]
    otgp->ie[ep].DIEPCTL = ctl |
 8002bca:	f104 0248 	add.w	r2, r4, #72	; 0x48
                           DIEPCTL_TXFNUM(ep) |
 8002bce:	ea43 5384 	orr.w	r3, r3, r4, lsl #22
    otgp->ie[ep].DIEPCTL = ctl |
 8002bd2:	0152      	lsls	r2, r2, #5
                           DIEPCTL_TXFNUM(ep) |
 8002bd4:	431e      	orrs	r6, r3
    otgp->ie[ep].DIEPCTL = ctl |
 8002bd6:	50ae      	str	r6, [r5, r2]
    otgp->DAINTMSK |= DAINTMSK_IEPM(ep);
 8002bd8:	2101      	movs	r1, #1
 8002bda:	f8d5 381c 	ldr.w	r3, [r5, #2076]	; 0x81c
 8002bde:	fa01 f404 	lsl.w	r4, r1, r4
 8002be2:	431c      	orrs	r4, r3
 8002be4:	f8c5 481c 	str.w	r4, [r5, #2076]	; 0x81c
}
 8002be8:	e8bd 83f8 	ldmia.w	sp!, {r3, r4, r5, r6, r7, r8, r9, pc}
    otgp->oe[ep].DOEPCTL &= ~DOEPCTL_USBAEP;
 8002bec:	eb05 1248 	add.w	r2, r5, r8, lsl #5
    otgp->DAINTMSK &= ~DAINTMSK_OEPM(ep);
 8002bf0:	f104 0910 	add.w	r9, r4, #16
    otgp->oe[ep].DOEPCTL &= ~DOEPCTL_USBAEP;
 8002bf4:	f8d2 eb00 	ldr.w	lr, [r2, #2816]	; 0xb00
 8002bf8:	f42e 4e00 	bic.w	lr, lr, #32768	; 0x8000
 8002bfc:	f8c2 eb00 	str.w	lr, [r2, #2816]	; 0xb00
    otgp->DAINTMSK &= ~DAINTMSK_OEPM(ep);
 8002c00:	f8d5 281c 	ldr.w	r2, [r5, #2076]	; 0x81c
 8002c04:	f04f 0c01 	mov.w	ip, #1
 8002c08:	fa0c fc09 	lsl.w	ip, ip, r9
 8002c0c:	ea22 020c 	bic.w	r2, r2, ip
 8002c10:	f8c5 281c 	str.w	r2, [r5, #2076]	; 0x81c
 8002c14:	e7b2      	b.n	8002b7c <usbInitEndpointI+0x8c>
    otgp->DIEPTXF[ep - 1] = 0x02000400; /* Reset value.*/
 8002c16:	f104 023f 	add.w	r2, r4, #63	; 0x3f
 8002c1a:	eb05 0282 	add.w	r2, r5, r2, lsl #2
  otgp->GRSTCTL = GRSTCTL_TXFNUM(fifo) | GRSTCTL_TXFFLSH;
 8002c1e:	01a3      	lsls	r3, r4, #6
    otgp->DIEPTXF[ep - 1] = 0x02000400; /* Reset value.*/
 8002c20:	490f      	ldr	r1, [pc, #60]	; (8002c60 <usbInitEndpointI+0x170>)
 8002c22:	6051      	str	r1, [r2, #4]
  otgp->GRSTCTL = GRSTCTL_TXFNUM(fifo) | GRSTCTL_TXFFLSH;
 8002c24:	f043 0320 	orr.w	r3, r3, #32
 8002c28:	612b      	str	r3, [r5, #16]
  while ((otgp->GRSTCTL & GRSTCTL_TXFFLSH) != 0)
 8002c2a:	692b      	ldr	r3, [r5, #16]
 8002c2c:	069b      	lsls	r3, r3, #26
 8002c2e:	d4fc      	bmi.n	8002c2a <usbInitEndpointI+0x13a>
 8002c30:	eb05 1848 	add.w	r8, r5, r8, lsl #5
 8002c34:	2012      	movs	r0, #18
 8002c36:	f7fe fea3 	bl	8001980 <chSysPolledDelayX>
    otgp->ie[ep].DIEPCTL &= ~DIEPCTL_USBAEP;
 8002c3a:	f8d8 3900 	ldr.w	r3, [r8, #2304]	; 0x900
 8002c3e:	f423 4300 	bic.w	r3, r3, #32768	; 0x8000
 8002c42:	f8c8 3900 	str.w	r3, [r8, #2304]	; 0x900
    otgp->DAINTMSK &= ~DAINTMSK_IEPM(ep);
 8002c46:	f8d5 381c 	ldr.w	r3, [r5, #2076]	; 0x81c
 8002c4a:	2101      	movs	r1, #1
 8002c4c:	fa01 f404 	lsl.w	r4, r1, r4
 8002c50:	ea23 0404 	bic.w	r4, r3, r4
 8002c54:	f8c5 481c 	str.w	r4, [r5, #2076]	; 0x81c
 8002c58:	e8bd 83f8 	ldmia.w	sp!, {r3, r4, r5, r6, r7, r8, r9, pc}
 8002c5c:	10008000 	.word	0x10008000
 8002c60:	02000400 	.word	0x02000400
	...

08002c70 <usb_event>:
static void usb_event(USBDriver *usbp, usbevent_t event) {
 8002c70:	b530      	push	{r4, r5, lr}
 8002c72:	b083      	sub	sp, #12
 8002c74:	2905      	cmp	r1, #5
 8002c76:	d80f      	bhi.n	8002c98 <usb_event+0x28>
 8002c78:	e8df f001 	tbb	[pc, r1]
 8002c7c:	10030e10 	.word	0x10030e10
 8002c80:	2910      	.short	0x2910
 8002c82:	2320      	movs	r3, #32
 8002c84:	f383 8811 	msr	BASEPRI, r3
    if (usbp->state == USB_ACTIVE) {
 8002c88:	7803      	ldrb	r3, [r0, #0]
 8002c8a:	2b04      	cmp	r3, #4
 8002c8c:	d02f      	beq.n	8002cee <usb_event+0x7e>
    else if (usbp->state == USB_SELECTED) {
 8002c8e:	2b03      	cmp	r3, #3
 8002c90:	d059      	beq.n	8002d46 <usb_event+0xd6>
 8002c92:	2300      	movs	r3, #0
 8002c94:	f383 8811 	msr	BASEPRI, r3
}
 8002c98:	b003      	add	sp, #12
 8002c9a:	bd30      	pop	{r4, r5, pc}
 8002c9c:	2320      	movs	r3, #32
 8002c9e:	f383 8811 	msr	BASEPRI, r3
  if (bqIsSuspendedX(&sdup->ibqueue) && bqIsSuspendedX(&sdup->obqueue)) {
 8002ca2:	4c2a      	ldr	r4, [pc, #168]	; (8002d4c <usb_event+0xdc>)
 8002ca4:	7d23      	ldrb	r3, [r4, #20]
 8002ca6:	b11b      	cbz	r3, 8002cb0 <usb_event+0x40>
 8002ca8:	f894 304c 	ldrb.w	r3, [r4, #76]	; 0x4c
 8002cac:	2b00      	cmp	r3, #0
 8002cae:	d1f0      	bne.n	8002c92 <usb_event+0x22>
  chEvtBroadcastFlagsI(esp, flags);
 8002cb0:	2102      	movs	r1, #2
 8002cb2:	4827      	ldr	r0, [pc, #156]	; (8002d50 <usb_event+0xe0>)
 8002cb4:	f7fe fe34 	bl	8001920 <chEvtBroadcastFlagsI>
  bqSuspendI(&sdup->ibqueue);
 8002cb8:	2501      	movs	r5, #1
  chThdDequeueAllI(tqp, msg);
 8002cba:	4826      	ldr	r0, [pc, #152]	; (8002d54 <usb_event+0xe4>)
 8002cbc:	7525      	strb	r5, [r4, #20]
 8002cbe:	f7fe fe07 	bl	80018d0 <chThdDequeueAllI.constprop.0>
 8002cc2:	4825      	ldr	r0, [pc, #148]	; (8002d58 <usb_event+0xe8>)
  bqSuspendI(&sdup->obqueue);
 8002cc4:	f884 504c 	strb.w	r5, [r4, #76]	; 0x4c
 8002cc8:	f7fe fe02 	bl	80018d0 <chThdDequeueAllI.constprop.0>
 8002ccc:	e7e1      	b.n	8002c92 <usb_event+0x22>
 8002cce:	2320      	movs	r3, #32
 8002cd0:	f383 8811 	msr	BASEPRI, r3
  chEvtBroadcastFlagsI(esp, flags);
 8002cd4:	4c1d      	ldr	r4, [pc, #116]	; (8002d4c <usb_event+0xdc>)
 8002cd6:	2101      	movs	r1, #1
 8002cd8:	1d20      	adds	r0, r4, #4
 8002cda:	f7fe fe21 	bl	8001920 <chEvtBroadcastFlagsI>
  bqResumeX(&sdup->ibqueue);
 8002cde:	2300      	movs	r3, #0
 8002ce0:	7523      	strb	r3, [r4, #20]
  bqResumeX(&sdup->obqueue);
 8002ce2:	f884 304c 	strb.w	r3, [r4, #76]	; 0x4c
 8002ce6:	f383 8811 	msr	BASEPRI, r3
 8002cea:	b003      	add	sp, #12
 8002cec:	bd30      	pop	{r4, r5, pc}
  ibqp->bcounter  = 0;
 8002cee:	4c17      	ldr	r4, [pc, #92]	; (8002d4c <usb_event+0xdc>)
      usbInitEndpointI(usbp, USB_INTERRUPT_REQUEST_EP_A, &ep1config);
 8002cf0:	4a1a      	ldr	r2, [pc, #104]	; (8002d5c <usb_event+0xec>)
 8002cf2:	9001      	str	r0, [sp, #4]
 8002cf4:	2101      	movs	r1, #1
 8002cf6:	f7ff fefb 	bl	8002af0 <usbInitEndpointI>
      usbInitEndpointI(usbp, USB_DATA_REQUEST_EP_A, &ep2config);
 8002cfa:	2102      	movs	r1, #2
 8002cfc:	9801      	ldr	r0, [sp, #4]
 8002cfe:	4a18      	ldr	r2, [pc, #96]	; (8002d60 <usb_event+0xf0>)
 8002d00:	f7ff fef6 	bl	8002af0 <usbInitEndpointI>
 8002d04:	2500      	movs	r5, #0
  ibqp->brdptr    = ibqp->buffers;
 8002d06:	6b23      	ldr	r3, [r4, #48]	; 0x30
 8002d08:	6223      	str	r3, [r4, #32]
  chThdDequeueAllI(tqp, msg);
 8002d0a:	f104 000c 	add.w	r0, r4, #12
  ibqp->bwrptr    = ibqp->buffers;
 8002d0e:	61e3      	str	r3, [r4, #28]
  ibqp->top       = NULL;
 8002d10:	e9c4 550d 	strd	r5, r5, [r4, #52]	; 0x34
  ibqp->bcounter  = 0;
 8002d14:	61a5      	str	r5, [r4, #24]
 8002d16:	f7fe fddb 	bl	80018d0 <chThdDequeueAllI.constprop.0>
  obqp->brdptr    = obqp->buffers;
 8002d1a:	e9d4 2319 	ldrd	r2, r3, [r4, #100]	; 0x64
 8002d1e:	f104 0044 	add.w	r0, r4, #68	; 0x44
  obqp->bwrptr    = obqp->buffers;
 8002d22:	e9c4 3315 	strd	r3, r3, [r4, #84]	; 0x54
  obqp->bcounter  = bqSizeX(obqp);
 8002d26:	6522      	str	r2, [r4, #80]	; 0x50
  obqp->top       = NULL;
 8002d28:	e9c4 551b 	strd	r5, r5, [r4, #108]	; 0x6c
  bqResumeX(&sdup->ibqueue);
 8002d2c:	7525      	strb	r5, [r4, #20]
 8002d2e:	f7fe fdcf 	bl	80018d0 <chThdDequeueAllI.constprop.0>
  chEvtBroadcastFlagsI(esp, flags);
 8002d32:	1d20      	adds	r0, r4, #4
 8002d34:	2101      	movs	r1, #1
  bqResumeX(&sdup->obqueue);
 8002d36:	f884 504c 	strb.w	r5, [r4, #76]	; 0x4c
 8002d3a:	f7fe fdf1 	bl	8001920 <chEvtBroadcastFlagsI>
  (void) sdu_start_receive(sdup);
 8002d3e:	4620      	mov	r0, r4
 8002d40:	f7ff f9fe 	bl	8002140 <sdu_start_receive>
 8002d44:	e7a5      	b.n	8002c92 <usb_event+0x22>
      usbDisableEndpointsI(usbp);
 8002d46:	f7ff f9ab 	bl	80020a0 <usbDisableEndpointsI>
 8002d4a:	e7a2      	b.n	8002c92 <usb_event+0x22>
 8002d4c:	200013ac 	.word	0x200013ac
 8002d50:	200013b0 	.word	0x200013b0
 8002d54:	200013b8 	.word	0x200013b8
 8002d58:	200013f0 	.word	0x200013f0
 8002d5c:	08006a44 	.word	0x08006a44
 8002d60:	08006a68 	.word	0x08006a68
	...

08002d70 <get_history>:
    shp->sh_end -= shp->sh_size;
  *(shp->sh_buffer + shp->sh_end) = 0;
  shp->sh_cur = 0;
}

static int get_history(ShellHistory *shp, char *line, int dir) {
 8002d70:	e92d 41f0 	stmdb	sp!, {r4, r5, r6, r7, r8, lr}
  if (shp == NULL)
    return -1;

  /* Count the number of lines saved in the buffer */
  int idx = shp->sh_beg;
  while (idx != shp->sh_end) {
 8002d74:	e9d0 4602 	ldrd	r4, r6, [r0, #8]
 8002d78:	42b4      	cmp	r4, r6
static int get_history(ShellHistory *shp, char *line, int dir) {
 8002d7a:	4607      	mov	r7, r0
 8002d7c:	4688      	mov	r8, r1
  while (idx != shp->sh_end) {
 8002d7e:	d053      	beq.n	8002e28 <get_history+0xb8>
    idx += *(shp->sh_buffer + idx) + 1;
    if (idx >= shp->sh_size)
 8002d80:	e9d0 c000 	ldrd	ip, r0, [r0]
 8002d84:	4623      	mov	r3, r4
  int count=0;
 8002d86:	2100      	movs	r1, #0
    idx += *(shp->sh_buffer + idx) + 1;
 8002d88:	f81c 5003 	ldrb.w	r5, [ip, r3]
 8002d8c:	3501      	adds	r5, #1
 8002d8e:	442b      	add	r3, r5
    if (idx >= shp->sh_size)
 8002d90:	4298      	cmp	r0, r3
      idx -= shp->sh_size;
 8002d92:	bfd8      	it	le
 8002d94:	1a1b      	suble	r3, r3, r0
  while (idx != shp->sh_end) {
 8002d96:	42b3      	cmp	r3, r6
    count++;
 8002d98:	f101 0101 	add.w	r1, r1, #1
  while (idx != shp->sh_end) {
 8002d9c:	d1f4      	bne.n	8002d88 <get_history+0x18>
  }

  if (dir == SHELL_HIST_DIR_FW) {
 8002d9e:	2a01      	cmp	r2, #1
    if (shp->sh_cur > 0)
 8002da0:	693d      	ldr	r5, [r7, #16]
  if (dir == SHELL_HIST_DIR_FW) {
 8002da2:	d03c      	beq.n	8002e1e <get_history+0xae>
      shp->sh_cur -= 2;
    else
      return 0;
  }

  if (count >= shp->sh_cur) {
 8002da4:	42a9      	cmp	r1, r5
 8002da6:	db53      	blt.n	8002e50 <get_history+0xe0>
    idx = shp->sh_beg;
    int i = 0;
    while (idx != shp->sh_end && shp->sh_cur != (count - i - 1)) {
 8002da8:	42b4      	cmp	r4, r6
 8002daa:	d054      	beq.n	8002e56 <get_history+0xe6>
 8002dac:	1e4b      	subs	r3, r1, #1
 8002dae:	429d      	cmp	r5, r3
 8002db0:	d054      	beq.n	8002e5c <get_history+0xec>
      idx += *(shp->sh_buffer + idx) + 1;
      if (idx >= shp->sh_size)
 8002db2:	e9d7 ec00 	ldrd	lr, ip, [r7]
    int i = 0;
 8002db6:	2000      	movs	r0, #0
 8002db8:	e001      	b.n	8002dbe <get_history+0x4e>
    while (idx != shp->sh_end && shp->sh_cur != (count - i - 1)) {
 8002dba:	429d      	cmp	r5, r3
 8002dbc:	d017      	beq.n	8002dee <get_history+0x7e>
      idx += *(shp->sh_buffer + idx) + 1;
 8002dbe:	f81e 3004 	ldrb.w	r3, [lr, r4]
 8002dc2:	3301      	adds	r3, #1
 8002dc4:	441c      	add	r4, r3
      if (idx >= shp->sh_size)
 8002dc6:	45a4      	cmp	ip, r4
        idx -= shp->sh_size;
      i++;
 8002dc8:	f100 0001 	add.w	r0, r0, #1
        idx -= shp->sh_size;
 8002dcc:	bfd8      	it	le
 8002dce:	eba4 040c 	suble.w	r4, r4, ip
    while (idx != shp->sh_end && shp->sh_cur != (count - i - 1)) {
 8002dd2:	43c3      	mvns	r3, r0
 8002dd4:	42b4      	cmp	r4, r6
 8002dd6:	440b      	add	r3, r1
 8002dd8:	d1ef      	bne.n	8002dba <get_history+0x4a>
    }

    int length = *(shp->sh_buffer + idx);
 8002dda:	f81e 4006 	ldrb.w	r4, [lr, r6]

    if (length > 0) {
 8002dde:	b95c      	cbnz	r4, 8002df8 <get_history+0x88>
        memcpy(line, shp->sh_buffer + idx + 1, part_len);
        memcpy(line + part_len, shp->sh_buffer, length - part_len);
      }
      return length;
    }
    else if (dir == SHELL_HIST_DIR_FW) {
 8002de0:	2a01      	cmp	r2, #1
 8002de2:	d135      	bne.n	8002e50 <get_history+0xe0>
      shp->sh_cur++;
 8002de4:	3501      	adds	r5, #1
 8002de6:	613d      	str	r5, [r7, #16]
      return 0;
    }
  }
  return -1;
}
 8002de8:	4620      	mov	r0, r4
 8002dea:	e8bd 81f0 	ldmia.w	sp!, {r4, r5, r6, r7, r8, pc}
    while (idx != shp->sh_end && shp->sh_cur != (count - i - 1)) {
 8002dee:	4626      	mov	r6, r4
    int length = *(shp->sh_buffer + idx);
 8002df0:	f81e 4006 	ldrb.w	r4, [lr, r6]
    if (length > 0) {
 8002df4:	2c00      	cmp	r4, #0
 8002df6:	d0f3      	beq.n	8002de0 <get_history+0x70>
      shp->sh_cur++;
 8002df8:	3501      	adds	r5, #1
      memset(line, 0, SHELL_MAX_LINE_LENGTH);
 8002dfa:	2240      	movs	r2, #64	; 0x40
      shp->sh_cur++;
 8002dfc:	613d      	str	r5, [r7, #16]
      memset(line, 0, SHELL_MAX_LINE_LENGTH);
 8002dfe:	2100      	movs	r1, #0
 8002e00:	4640      	mov	r0, r8
 8002e02:	f003 f831 	bl	8005e68 <memset>
      if ((idx + length) < shp->sh_size) {
 8002e06:	687b      	ldr	r3, [r7, #4]
 8002e08:	19a2      	adds	r2, r4, r6
 8002e0a:	429a      	cmp	r2, r3
 8002e0c:	da10      	bge.n	8002e30 <get_history+0xc0>
        memcpy(line, (shp->sh_buffer + idx + 1), length);
 8002e0e:	6839      	ldr	r1, [r7, #0]
 8002e10:	3601      	adds	r6, #1
 8002e12:	4431      	add	r1, r6
 8002e14:	4640      	mov	r0, r8
 8002e16:	4622      	mov	r2, r4
 8002e18:	f7fd fa78 	bl	800030c <memcpy>
 8002e1c:	e7e4      	b.n	8002de8 <get_history+0x78>
    if (shp->sh_cur > 0)
 8002e1e:	2d00      	cmp	r5, #0
 8002e20:	dd04      	ble.n	8002e2c <get_history+0xbc>
      shp->sh_cur -= 2;
 8002e22:	3d02      	subs	r5, #2
 8002e24:	613d      	str	r5, [r7, #16]
 8002e26:	e7bd      	b.n	8002da4 <get_history+0x34>
  int count=0;
 8002e28:	2100      	movs	r1, #0
 8002e2a:	e7b8      	b.n	8002d9e <get_history+0x2e>
      return 0;
 8002e2c:	2400      	movs	r4, #0
 8002e2e:	e7db      	b.n	8002de8 <get_history+0x78>
        int part_len = shp->sh_size - idx - 1;
 8002e30:	1b9b      	subs	r3, r3, r6
        memcpy(line, shp->sh_buffer + idx + 1, part_len);
 8002e32:	6839      	ldr	r1, [r7, #0]
        int part_len = shp->sh_size - idx - 1;
 8002e34:	1e5d      	subs	r5, r3, #1
        memcpy(line, shp->sh_buffer + idx + 1, part_len);
 8002e36:	3601      	adds	r6, #1
 8002e38:	4431      	add	r1, r6
 8002e3a:	462a      	mov	r2, r5
 8002e3c:	4640      	mov	r0, r8
 8002e3e:	f7fd fa65 	bl	800030c <memcpy>
        memcpy(line + part_len, shp->sh_buffer, length - part_len);
 8002e42:	6839      	ldr	r1, [r7, #0]
 8002e44:	eb08 0005 	add.w	r0, r8, r5
 8002e48:	1b62      	subs	r2, r4, r5
 8002e4a:	f7fd fa5f 	bl	800030c <memcpy>
 8002e4e:	e7cb      	b.n	8002de8 <get_history+0x78>
  return -1;
 8002e50:	f04f 34ff 	mov.w	r4, #4294967295	; 0xffffffff
 8002e54:	e7c8      	b.n	8002de8 <get_history+0x78>
 8002e56:	f8d7 e000 	ldr.w	lr, [r7]
 8002e5a:	e7be      	b.n	8002dda <get_history+0x6a>
 8002e5c:	f8d7 e000 	ldr.w	lr, [r7]
    while (idx != shp->sh_end && shp->sh_cur != (count - i - 1)) {
 8002e60:	4626      	mov	r6, r4
 8002e62:	e7ba      	b.n	8002dda <get_history+0x6a>
	...

08002e70 <_usb_ep0setup>:
void _usb_ep0setup(USBDriver *usbp, usbep_t ep) {
 8002e70:	b570      	push	{r4, r5, r6, lr}
  if (usbp->ep0state != USB_EP0_STP_WAITING) {
 8002e72:	f890 3034 	ldrb.w	r3, [r0, #52]	; 0x34
void _usb_ep0setup(USBDriver *usbp, usbep_t ep) {
 8002e76:	4604      	mov	r4, r0
  if (usbp->ep0state != USB_EP0_STP_WAITING) {
 8002e78:	b113      	cbz	r3, 8002e80 <_usb_ep0setup+0x10>
    usbp->ep0state = USB_EP0_STP_WAITING;
 8002e7a:	2300      	movs	r3, #0
 8002e7c:	f880 3034 	strb.w	r3, [r0, #52]	; 0x34
  memcpy(buf, usbp->epc[ep]->setup_buf, 8);
 8002e80:	eb04 0181 	add.w	r1, r4, r1, lsl #2
  if ((usbp->config->requests_hook_cb == NULL) ||
 8002e84:	6862      	ldr	r2, [r4, #4]
 8002e86:	68cb      	ldr	r3, [r1, #12]
 8002e88:	6a1b      	ldr	r3, [r3, #32]
 8002e8a:	6819      	ldr	r1, [r3, #0]
 8002e8c:	685b      	ldr	r3, [r3, #4]
 8002e8e:	64a3      	str	r3, [r4, #72]	; 0x48
 8002e90:	6461      	str	r1, [r4, #68]	; 0x44
 8002e92:	6893      	ldr	r3, [r2, #8]
 8002e94:	b36b      	cbz	r3, 8002ef2 <_usb_ep0setup+0x82>
      !(usbp->config->requests_hook_cb(usbp))) {
 8002e96:	4620      	mov	r0, r4
 8002e98:	4798      	blx	r3
  if ((usbp->config->requests_hook_cb == NULL) ||
 8002e9a:	b350      	cbz	r0, 8002ef2 <_usb_ep0setup+0x82>
 8002e9c:	6be3      	ldr	r3, [r4, #60]	; 0x3c
 8002e9e:	f894 0044 	ldrb.w	r0, [r4, #68]	; 0x44
  hw |= (uint16_t)*p << 8U;
 8002ea2:	f894 104b 	ldrb.w	r1, [r4, #75]	; 0x4b
 8002ea6:	f894 204a 	ldrb.w	r2, [r4, #74]	; 0x4a
  max = (size_t)get_hword(&usbp->setup[6]);
 8002eaa:	ea42 2201 	orr.w	r2, r2, r1, lsl #8
  if (usbp->ep0n > max) {
 8002eae:	429a      	cmp	r2, r3
    usbp->ep0n = max;
 8002eb0:	bf3c      	itt	cc
 8002eb2:	63e2      	strcc	r2, [r4, #60]	; 0x3c
 8002eb4:	4613      	movcc	r3, r2
  if ((usbp->setup[0] & USB_RTYPE_DIR_MASK) == USB_RTYPE_DIR_DEV2HOST) {
 8002eb6:	0602      	lsls	r2, r0, #24
 8002eb8:	f100 80df 	bmi.w	800307a <_usb_ep0setup+0x20a>
    if (usbp->ep0n != 0U) {
 8002ebc:	2b00      	cmp	r3, #0
 8002ebe:	f000 808f 	beq.w	8002fe0 <_usb_ep0setup+0x170>
      usbp->ep0state = USB_EP0_OUT_RX;
 8002ec2:	2315      	movs	r3, #21
 8002ec4:	f884 3034 	strb.w	r3, [r4, #52]	; 0x34
 8002ec8:	2320      	movs	r3, #32
 8002eca:	f383 8811 	msr	BASEPRI, r3
  osp = usbp->epc[ep]->out_state;
 8002ece:	68e3      	ldr	r3, [r4, #12]
  usbp->receiving |= (uint16_t)((unsigned)1U << (unsigned)ep);
 8002ed0:	8962      	ldrh	r2, [r4, #10]
  osp = usbp->epc[ep]->out_state;
 8002ed2:	699b      	ldr	r3, [r3, #24]
      usbStartReceiveI(usbp, 0, (uint8_t *)usbp->ep0next, usbp->ep0n);
 8002ed4:	e9d4 610e 	ldrd	r6, r1, [r4, #56]	; 0x38
  usbp->receiving |= (uint16_t)((unsigned)1U << (unsigned)ep);
 8002ed8:	f042 0201 	orr.w	r2, r2, #1
  osp->rxcnt  = 0;
 8002edc:	2500      	movs	r5, #0
  usbp->receiving |= (uint16_t)((unsigned)1U << (unsigned)ep);
 8002ede:	8162      	strh	r2, [r4, #10]
  usb_lld_start_out(usbp, ep);
 8002ee0:	4620      	mov	r0, r4
  osp->rxcnt  = 0;
 8002ee2:	e883 0062 	stmia.w	r3, {r1, r5, r6}
  usb_lld_start_out(usbp, ep);
 8002ee6:	4629      	mov	r1, r5
 8002ee8:	f7fe ff0a 	bl	8001d00 <usb_lld_start_out>
 8002eec:	f385 8811 	msr	BASEPRI, r5
}
 8002ef0:	bd70      	pop	{r4, r5, r6, pc}
    if (((usbp->setup[0] & USB_RTYPE_TYPE_MASK) != USB_RTYPE_TYPE_STD) ||
 8002ef2:	f894 0044 	ldrb.w	r0, [r4, #68]	; 0x44
 8002ef6:	f010 0660 	ands.w	r6, r0, #96	; 0x60
 8002efa:	d11c      	bne.n	8002f36 <_usb_ep0setup+0xc6>
           ((uint32_t)usbp->setup[1] << 8U))) {
 8002efc:	f894 2045 	ldrb.w	r2, [r4, #69]	; 0x45
  switch ((((uint32_t)usbp->setup[0] & (USB_RTYPE_RECIPIENT_MASK |
 8002f00:	f000 037f 	and.w	r3, r0, #127	; 0x7f
                                        USB_RTYPE_TYPE_MASK)) |
 8002f04:	ea43 2302 	orr.w	r3, r3, r2, lsl #8
  switch ((((uint32_t)usbp->setup[0] & (USB_RTYPE_RECIPIENT_MASK |
 8002f08:	f240 3202 	movw	r2, #770	; 0x302
 8002f0c:	4293      	cmp	r3, r2
 8002f0e:	f000 8113 	beq.w	8003138 <_usb_ep0setup+0x2c8>
 8002f12:	d844      	bhi.n	8002f9e <_usb_ep0setup+0x12e>
 8002f14:	f5b3 7f80 	cmp.w	r3, #256	; 0x100
 8002f18:	f000 8125 	beq.w	8003166 <_usb_ep0setup+0x2f6>
 8002f1c:	d922      	bls.n	8002f64 <_usb_ep0setup+0xf4>
 8002f1e:	f5b3 7f81 	cmp.w	r3, #258	; 0x102
 8002f22:	f000 812f 	beq.w	8003184 <_usb_ep0setup+0x314>
 8002f26:	f5b3 7f40 	cmp.w	r3, #768	; 0x300
 8002f2a:	d104      	bne.n	8002f36 <_usb_ep0setup+0xc6>
    if (usbp->setup[2] == USB_FEATURE_DEVICE_REMOTE_WAKEUP) {
 8002f2c:	f894 3046 	ldrb.w	r3, [r4, #70]	; 0x46
 8002f30:	2b01      	cmp	r3, #1
 8002f32:	f000 80d2 	beq.w	80030da <_usb_ep0setup+0x26a>
 8002f36:	6d62      	ldr	r2, [r4, #84]	; 0x54
  usbp->otg->ie[ep].DIEPCTL |= DIEPCTL_STALL;
 8002f38:	f8d2 3900 	ldr.w	r3, [r2, #2304]	; 0x900
      _usb_isr_invoke_event_cb(usbp, USB_EVENT_STALLED);
 8002f3c:	6861      	ldr	r1, [r4, #4]
 8002f3e:	f443 1300 	orr.w	r3, r3, #2097152	; 0x200000
 8002f42:	f8c2 3900 	str.w	r3, [r2, #2304]	; 0x900
  usbp->otg->oe[ep].DOEPCTL |= DOEPCTL_STALL;
 8002f46:	f8d2 3b00 	ldr.w	r3, [r2, #2816]	; 0xb00
 8002f4a:	680d      	ldr	r5, [r1, #0]
 8002f4c:	f443 1300 	orr.w	r3, r3, #2097152	; 0x200000
 8002f50:	f8c2 3b00 	str.w	r3, [r2, #2816]	; 0xb00
 8002f54:	b115      	cbz	r5, 8002f5c <_usb_ep0setup+0xec>
 8002f56:	2106      	movs	r1, #6
 8002f58:	4620      	mov	r0, r4
 8002f5a:	47a8      	blx	r5
      usbp->ep0state = USB_EP0_ERROR;
 8002f5c:	2306      	movs	r3, #6
 8002f5e:	f884 3034 	strb.w	r3, [r4, #52]	; 0x34
}
 8002f62:	bd70      	pop	{r4, r5, r6, pc}
  switch ((((uint32_t)usbp->setup[0] & (USB_RTYPE_RECIPIENT_MASK |
 8002f64:	2b01      	cmp	r3, #1
 8002f66:	d060      	beq.n	800302a <_usb_ep0setup+0x1ba>
 8002f68:	2b02      	cmp	r3, #2
 8002f6a:	d150      	bne.n	800300e <_usb_ep0setup+0x19e>
    if ((usbp->setup[4] & 0x80U) != 0U) {
 8002f6c:	f994 1048 	ldrsb.w	r1, [r4, #72]	; 0x48
 8002f70:	f894 2048 	ldrb.w	r2, [r4, #72]	; 0x48
 8002f74:	2900      	cmp	r1, #0
  ctl = usbp->otg->ie[ep].DIEPCTL;
 8002f76:	f002 010f 	and.w	r1, r2, #15
 8002f7a:	bfb4      	ite	lt
 8002f7c:	3148      	addlt	r1, #72	; 0x48
  ctl = usbp->otg->oe[ep].DOEPCTL;
 8002f7e:	3158      	addge	r1, #88	; 0x58
 8002f80:	6d62      	ldr	r2, [r4, #84]	; 0x54
 8002f82:	0149      	lsls	r1, r1, #5
 8002f84:	5851      	ldr	r1, [r2, r1]
  if (!(ctl & DOEPCTL_USBAEP))
 8002f86:	040d      	lsls	r5, r1, #16
 8002f88:	d5d6      	bpl.n	8002f38 <_usb_ep0setup+0xc8>
  if (ctl & DOEPCTL_STALL)
 8002f8a:	0289      	lsls	r1, r1, #10
        usbSetupTransfer(usbp, (uint8_t *)halted_status, 2, NULL);
 8002f8c:	bf4c      	ite	mi
 8002f8e:	4a9c      	ldrmi	r2, [pc, #624]	; (8003200 <_usb_ep0setup+0x390>)
        usbSetupTransfer(usbp, (uint8_t *)active_status, 2, NULL);
 8002f90:	4a9c      	ldrpl	r2, [pc, #624]	; (8003204 <_usb_ep0setup+0x394>)
 8002f92:	63a2      	str	r2, [r4, #56]	; 0x38
 8002f94:	2102      	movs	r1, #2
 8002f96:	2200      	movs	r2, #0
 8002f98:	e9c4 120f 	strd	r1, r2, [r4, #60]	; 0x3c
        return true;
 8002f9c:	e781      	b.n	8002ea2 <_usb_ep0setup+0x32>
  switch ((((uint32_t)usbp->setup[0] & (USB_RTYPE_RECIPIENT_MASK |
 8002f9e:	f5b3 6f00 	cmp.w	r3, #2048	; 0x800
 8002fa2:	f000 80c2 	beq.w	800312a <_usb_ep0setup+0x2ba>
 8002fa6:	d947      	bls.n	8003038 <_usb_ep0setup+0x1c8>
 8002fa8:	f5b3 6f10 	cmp.w	r3, #2304	; 0x900
 8002fac:	d139      	bne.n	8003022 <_usb_ep0setup+0x1b2>
      if (usbp->state == USB_ACTIVE) {
 8002fae:	7823      	ldrb	r3, [r4, #0]
 8002fb0:	2b04      	cmp	r3, #4
 8002fb2:	f000 809c 	beq.w	80030ee <_usb_ep0setup+0x27e>
      if (usbp->setup[2] != 0U) {
 8002fb6:	f894 3046 	ldrb.w	r3, [r4, #70]	; 0x46
 8002fba:	b14b      	cbz	r3, 8002fd0 <_usb_ep0setup+0x160>
        _usb_isr_invoke_event_cb(usbp, USB_EVENT_CONFIGURED);
 8002fbc:	6862      	ldr	r2, [r4, #4]
        usbp->configuration = usbp->setup[2];
 8002fbe:	f884 304f 	strb.w	r3, [r4, #79]	; 0x4f
        usbp->state = USB_ACTIVE;
 8002fc2:	2104      	movs	r1, #4
 8002fc4:	7021      	strb	r1, [r4, #0]
        _usb_isr_invoke_event_cb(usbp, USB_EVENT_CONFIGURED);
 8002fc6:	6813      	ldr	r3, [r2, #0]
 8002fc8:	b113      	cbz	r3, 8002fd0 <_usb_ep0setup+0x160>
 8002fca:	2102      	movs	r1, #2
 8002fcc:	4620      	mov	r0, r4
 8002fce:	4798      	blx	r3
    usbSetupTransfer(usbp, NULL, 0, NULL);
 8002fd0:	2300      	movs	r3, #0
 8002fd2:	e9c4 330e 	strd	r3, r3, [r4, #56]	; 0x38
 8002fd6:	f894 0044 	ldrb.w	r0, [r4, #68]	; 0x44
 8002fda:	6423      	str	r3, [r4, #64]	; 0x40
  if ((usbp->setup[0] & USB_RTYPE_DIR_MASK) == USB_RTYPE_DIR_DEV2HOST) {
 8002fdc:	0603      	lsls	r3, r0, #24
 8002fde:	d465      	bmi.n	80030ac <_usb_ep0setup+0x23c>
      usbp->ep0state = USB_EP0_IN_SENDING_STS;
 8002fe0:	230b      	movs	r3, #11
 8002fe2:	f884 3034 	strb.w	r3, [r4, #52]	; 0x34
 8002fe6:	2320      	movs	r3, #32
 8002fe8:	f383 8811 	msr	BASEPRI, r3
  isp = usbp->epc[ep]->in_state;
 8002fec:	68e3      	ldr	r3, [r4, #12]
  usbp->transmitting |= (uint16_t)((unsigned)1U << (unsigned)ep);
 8002fee:	8922      	ldrh	r2, [r4, #8]
  isp = usbp->epc[ep]->in_state;
 8002ff0:	695b      	ldr	r3, [r3, #20]
  isp->txbuf  = buf;
 8002ff2:	2500      	movs	r5, #0
  usbp->transmitting |= (uint16_t)((unsigned)1U << (unsigned)ep);
 8002ff4:	f042 0201 	orr.w	r2, r2, #1
 8002ff8:	8122      	strh	r2, [r4, #8]
  usb_lld_start_in(usbp, ep);
 8002ffa:	4620      	mov	r0, r4
  isp->txcnt  = 0;
 8002ffc:	e9c3 5500 	strd	r5, r5, [r3]
  isp->txbuf  = buf;
 8003000:	609d      	str	r5, [r3, #8]
  usb_lld_start_in(usbp, ep);
 8003002:	4629      	mov	r1, r5
 8003004:	f7fe fde4 	bl	8001bd0 <usb_lld_start_in>
 8003008:	f385 8811 	msr	BASEPRI, r5
}
 800300c:	bd70      	pop	{r4, r5, r6, pc}
  switch ((((uint32_t)usbp->setup[0] & (USB_RTYPE_RECIPIENT_MASK |
 800300e:	2b00      	cmp	r3, #0
 8003010:	d191      	bne.n	8002f36 <_usb_ep0setup+0xc6>
    usbSetupTransfer(usbp, (uint8_t *)&usbp->status, 2, NULL);
 8003012:	2202      	movs	r2, #2
 8003014:	f104 014c 	add.w	r1, r4, #76	; 0x4c
 8003018:	6423      	str	r3, [r4, #64]	; 0x40
 800301a:	e9c4 120e 	strd	r1, r2, [r4, #56]	; 0x38
 800301e:	4613      	mov	r3, r2
 8003020:	e73f      	b.n	8002ea2 <_usb_ep0setup+0x32>
  switch ((((uint32_t)usbp->setup[0] & (USB_RTYPE_RECIPIENT_MASK |
 8003022:	f640 4202 	movw	r2, #3074	; 0xc02
 8003026:	4293      	cmp	r3, r2
 8003028:	d185      	bne.n	8002f36 <_usb_ep0setup+0xc6>
    usbSetupTransfer(usbp, (uint8_t *)zero_status, 2, NULL);
 800302a:	4b77      	ldr	r3, [pc, #476]	; (8003208 <_usb_ep0setup+0x398>)
 800302c:	63a3      	str	r3, [r4, #56]	; 0x38
 800302e:	2200      	movs	r2, #0
 8003030:	2302      	movs	r3, #2
 8003032:	e9c4 320f 	strd	r3, r2, [r4, #60]	; 0x3c
    return true;
 8003036:	e734      	b.n	8002ea2 <_usb_ep0setup+0x32>
  switch ((((uint32_t)usbp->setup[0] & (USB_RTYPE_RECIPIENT_MASK |
 8003038:	f5b3 6fa0 	cmp.w	r3, #1280	; 0x500
 800303c:	d06b      	beq.n	8003116 <_usb_ep0setup+0x2a6>
 800303e:	f5a3 63c0 	sub.w	r3, r3, #1536	; 0x600
 8003042:	2b01      	cmp	r3, #1
 8003044:	f63f af77 	bhi.w	8002f36 <_usb_ep0setup+0xc6>
  hw |= (uint16_t)*p << 8U;
 8003048:	f894 0049 	ldrb.w	r0, [r4, #73]	; 0x49
    dp = usbp->config->get_descriptor_cb(usbp, usbp->setup[3],
 800304c:	6861      	ldr	r1, [r4, #4]
  hw |= (uint16_t)*p << 8U;
 800304e:	f894 3048 	ldrb.w	r3, [r4, #72]	; 0x48
    dp = usbp->config->get_descriptor_cb(usbp, usbp->setup[3],
 8003052:	684d      	ldr	r5, [r1, #4]
 8003054:	f894 2046 	ldrb.w	r2, [r4, #70]	; 0x46
 8003058:	f894 1047 	ldrb.w	r1, [r4, #71]	; 0x47
 800305c:	ea43 2300 	orr.w	r3, r3, r0, lsl #8
 8003060:	4620      	mov	r0, r4
 8003062:	47a8      	blx	r5
    if (dp == NULL) {
 8003064:	2800      	cmp	r0, #0
 8003066:	f43f af66 	beq.w	8002f36 <_usb_ep0setup+0xc6>
    usbSetupTransfer(usbp, (uint8_t *)dp->ud_string, dp->ud_size, NULL);
 800306a:	e9d0 3200 	ldrd	r3, r2, [r0]
 800306e:	f894 0044 	ldrb.w	r0, [r4, #68]	; 0x44
 8003072:	6426      	str	r6, [r4, #64]	; 0x40
 8003074:	e9c4 230e 	strd	r2, r3, [r4, #56]	; 0x38
    return true;
 8003078:	e713      	b.n	8002ea2 <_usb_ep0setup+0x32>
    if (usbp->ep0n != 0U) {
 800307a:	b1bb      	cbz	r3, 80030ac <_usb_ep0setup+0x23c>
      usbp->ep0state = USB_EP0_IN_TX;
 800307c:	2309      	movs	r3, #9
 800307e:	f884 3034 	strb.w	r3, [r4, #52]	; 0x34
 8003082:	2320      	movs	r3, #32
 8003084:	f383 8811 	msr	BASEPRI, r3
  isp = usbp->epc[ep]->in_state;
 8003088:	68e3      	ldr	r3, [r4, #12]
  usbp->transmitting |= (uint16_t)((unsigned)1U << (unsigned)ep);
 800308a:	8922      	ldrh	r2, [r4, #8]
  isp = usbp->epc[ep]->in_state;
 800308c:	695b      	ldr	r3, [r3, #20]
      usbStartTransmitI(usbp, 0, usbp->ep0next, usbp->ep0n);
 800308e:	e9d4 610e 	ldrd	r6, r1, [r4, #56]	; 0x38
  usbp->transmitting |= (uint16_t)((unsigned)1U << (unsigned)ep);
 8003092:	f042 0201 	orr.w	r2, r2, #1
  isp->txcnt  = 0;
 8003096:	2500      	movs	r5, #0
  usbp->transmitting |= (uint16_t)((unsigned)1U << (unsigned)ep);
 8003098:	8122      	strh	r2, [r4, #8]
  usb_lld_start_in(usbp, ep);
 800309a:	4620      	mov	r0, r4
  isp->txcnt  = 0;
 800309c:	e883 0062 	stmia.w	r3, {r1, r5, r6}
  usb_lld_start_in(usbp, ep);
 80030a0:	4629      	mov	r1, r5
 80030a2:	f7fe fd95 	bl	8001bd0 <usb_lld_start_in>
 80030a6:	f385 8811 	msr	BASEPRI, r5
}
 80030aa:	bd70      	pop	{r4, r5, r6, pc}
      usbp->ep0state = USB_EP0_OUT_WAITING_STS;
 80030ac:	2314      	movs	r3, #20
 80030ae:	f884 3034 	strb.w	r3, [r4, #52]	; 0x34
 80030b2:	2320      	movs	r3, #32
 80030b4:	f383 8811 	msr	BASEPRI, r3
  osp = usbp->epc[ep]->out_state;
 80030b8:	68e3      	ldr	r3, [r4, #12]
  usbp->receiving |= (uint16_t)((unsigned)1U << (unsigned)ep);
 80030ba:	8962      	ldrh	r2, [r4, #10]
  osp = usbp->epc[ep]->out_state;
 80030bc:	699b      	ldr	r3, [r3, #24]
  osp->rxbuf  = buf;
 80030be:	2500      	movs	r5, #0
  usbp->receiving |= (uint16_t)((unsigned)1U << (unsigned)ep);
 80030c0:	f042 0201 	orr.w	r2, r2, #1
 80030c4:	8162      	strh	r2, [r4, #10]
  usb_lld_start_out(usbp, ep);
 80030c6:	4620      	mov	r0, r4
  osp->rxcnt  = 0;
 80030c8:	e9c3 5500 	strd	r5, r5, [r3]
  osp->rxbuf  = buf;
 80030cc:	609d      	str	r5, [r3, #8]
  usb_lld_start_out(usbp, ep);
 80030ce:	4629      	mov	r1, r5
 80030d0:	f7fe fe16 	bl	8001d00 <usb_lld_start_out>
 80030d4:	f385 8811 	msr	BASEPRI, r5
}
 80030d8:	bd70      	pop	{r4, r5, r6, pc}
      usbp->status |= 2U;
 80030da:	f8b4 304c 	ldrh.w	r3, [r4, #76]	; 0x4c
      usbSetupTransfer(usbp, NULL, 0, NULL);
 80030de:	63a6      	str	r6, [r4, #56]	; 0x38
      usbp->status |= 2U;
 80030e0:	f043 0302 	orr.w	r3, r3, #2
      usbSetupTransfer(usbp, NULL, 0, NULL);
 80030e4:	e9c4 660f 	strd	r6, r6, [r4, #60]	; 0x3c
      usbp->status |= 2U;
 80030e8:	f8a4 304c 	strh.w	r3, [r4, #76]	; 0x4c
      return true;
 80030ec:	e776      	b.n	8002fdc <_usb_ep0setup+0x16c>
 80030ee:	2320      	movs	r3, #32
 80030f0:	f383 8811 	msr	BASEPRI, r3
        usbDisableEndpointsI(usbp);
 80030f4:	4620      	mov	r0, r4
 80030f6:	f7fe ffd3 	bl	80020a0 <usbDisableEndpointsI>
 80030fa:	f386 8811 	msr	BASEPRI, r6
        usbp->state = USB_SELECTED;
 80030fe:	2103      	movs	r1, #3
        _usb_isr_invoke_event_cb(usbp, USB_EVENT_UNCONFIGURED);
 8003100:	6863      	ldr	r3, [r4, #4]
        usbp->configuration = 0U;
 8003102:	f884 604f 	strb.w	r6, [r4, #79]	; 0x4f
        usbp->state = USB_SELECTED;
 8003106:	7021      	strb	r1, [r4, #0]
        _usb_isr_invoke_event_cb(usbp, USB_EVENT_UNCONFIGURED);
 8003108:	681b      	ldr	r3, [r3, #0]
 800310a:	2b00      	cmp	r3, #0
 800310c:	f43f af53 	beq.w	8002fb6 <_usb_ep0setup+0x146>
 8003110:	4620      	mov	r0, r4
 8003112:	4798      	blx	r3
 8003114:	e74f      	b.n	8002fb6 <_usb_ep0setup+0x146>
    if ((usbp->setup[0] == USB_RTYPE_RECIPIENT_DEVICE) &&
 8003116:	f8b4 3044 	ldrh.w	r3, [r4, #68]	; 0x44
 800311a:	f5b3 6fa0 	cmp.w	r3, #1280	; 0x500
 800311e:	d048      	beq.n	80031b2 <_usb_ep0setup+0x342>
    usbSetupTransfer(usbp, NULL, 0, NULL);
 8003120:	2300      	movs	r3, #0
 8003122:	e9c4 330e 	strd	r3, r3, [r4, #56]	; 0x38
 8003126:	6423      	str	r3, [r4, #64]	; 0x40
    return true;
 8003128:	e758      	b.n	8002fdc <_usb_ep0setup+0x16c>
    usbSetupTransfer(usbp, &usbp->configuration, 1, NULL);
 800312a:	f104 024f 	add.w	r2, r4, #79	; 0x4f
 800312e:	2301      	movs	r3, #1
 8003130:	e9c4 230e 	strd	r2, r3, [r4, #56]	; 0x38
 8003134:	6426      	str	r6, [r4, #64]	; 0x40
 8003136:	e6b4      	b.n	8002ea2 <_usb_ep0setup+0x32>
    if (usbp->setup[2] != USB_FEATURE_ENDPOINT_HALT) {
 8003138:	f894 3046 	ldrb.w	r3, [r4, #70]	; 0x46
 800313c:	2b00      	cmp	r3, #0
 800313e:	f47f aefa 	bne.w	8002f36 <_usb_ep0setup+0xc6>
    if ((usbp->setup[4] & 0x0FU) != 0U) {
 8003142:	f894 3048 	ldrb.w	r3, [r4, #72]	; 0x48
 8003146:	f013 020f 	ands.w	r2, r3, #15
 800314a:	d0e9      	beq.n	8003120 <_usb_ep0setup+0x2b0>
      if ((usbp->setup[4] & 0x80U) != 0U) {
 800314c:	f013 0f80 	tst.w	r3, #128	; 0x80
 8003150:	6d63      	ldr	r3, [r4, #84]	; 0x54
 8003152:	eb03 1342 	add.w	r3, r3, r2, lsl #5
 8003156:	d144      	bne.n	80031e2 <_usb_ep0setup+0x372>
  usbp->otg->oe[ep].DOEPCTL |= DOEPCTL_STALL;
 8003158:	f8d3 2b00 	ldr.w	r2, [r3, #2816]	; 0xb00
 800315c:	f442 1200 	orr.w	r2, r2, #2097152	; 0x200000
 8003160:	f8c3 2b00 	str.w	r2, [r3, #2816]	; 0xb00
 8003164:	e7dc      	b.n	8003120 <_usb_ep0setup+0x2b0>
    if (usbp->setup[2] == USB_FEATURE_DEVICE_REMOTE_WAKEUP) {
 8003166:	f894 3046 	ldrb.w	r3, [r4, #70]	; 0x46
 800316a:	2b01      	cmp	r3, #1
 800316c:	f47f aee3 	bne.w	8002f36 <_usb_ep0setup+0xc6>
      usbp->status &= ~2U;
 8003170:	f8b4 304c 	ldrh.w	r3, [r4, #76]	; 0x4c
      usbSetupTransfer(usbp, NULL, 0, NULL);
 8003174:	63a6      	str	r6, [r4, #56]	; 0x38
      usbp->status &= ~2U;
 8003176:	f023 0302 	bic.w	r3, r3, #2
      usbSetupTransfer(usbp, NULL, 0, NULL);
 800317a:	e9c4 660f 	strd	r6, r6, [r4, #60]	; 0x3c
      usbp->status &= ~2U;
 800317e:	f8a4 304c 	strh.w	r3, [r4, #76]	; 0x4c
      return true;
 8003182:	e72b      	b.n	8002fdc <_usb_ep0setup+0x16c>
    if (usbp->setup[2] != USB_FEATURE_ENDPOINT_HALT) {
 8003184:	f894 3046 	ldrb.w	r3, [r4, #70]	; 0x46
 8003188:	2b00      	cmp	r3, #0
 800318a:	f47f aed4 	bne.w	8002f36 <_usb_ep0setup+0xc6>
    if ((usbp->setup[4] & 0x0FU) != 0U) {
 800318e:	f894 3048 	ldrb.w	r3, [r4, #72]	; 0x48
 8003192:	f013 020f 	ands.w	r2, r3, #15
 8003196:	d0c3      	beq.n	8003120 <_usb_ep0setup+0x2b0>
      if ((usbp->setup[4] & 0x80U) != 0U) {
 8003198:	f013 0f80 	tst.w	r3, #128	; 0x80
 800319c:	6d63      	ldr	r3, [r4, #84]	; 0x54
 800319e:	eb03 1342 	add.w	r3, r3, r2, lsl #5
 80031a2:	d125      	bne.n	80031f0 <_usb_ep0setup+0x380>
 *
 * @notapi
 */
void usb_lld_clear_out(USBDriver *usbp, usbep_t ep) {

  usbp->otg->oe[ep].DOEPCTL &= ~DOEPCTL_STALL;
 80031a4:	f8d3 2b00 	ldr.w	r2, [r3, #2816]	; 0xb00
 80031a8:	f422 1200 	bic.w	r2, r2, #2097152	; 0x200000
 80031ac:	f8c3 2b00 	str.w	r2, [r3, #2816]	; 0xb00
    usbSetupTransfer(usbp, NULL, 0, NULL);
 80031b0:	e7b6      	b.n	8003120 <_usb_ep0setup+0x2b0>
  usbp->address = usbp->setup[2];
 80031b2:	f894 1046 	ldrb.w	r1, [r4, #70]	; 0x46
  stm32_otg_t *otgp = usbp->otg;
 80031b6:	6d62      	ldr	r2, [r4, #84]	; 0x54
 80031b8:	f884 104e 	strb.w	r1, [r4, #78]	; 0x4e
  otgp->DCFG = (otgp->DCFG & ~DCFG_DAD_MASK) | DCFG_DAD(usbp->address);
 80031bc:	f8d2 3800 	ldr.w	r3, [r2, #2048]	; 0x800
  _usb_isr_invoke_event_cb(usbp, USB_EVENT_ADDRESS);
 80031c0:	6865      	ldr	r5, [r4, #4]
 80031c2:	f423 63fe 	bic.w	r3, r3, #2032	; 0x7f0
 80031c6:	682d      	ldr	r5, [r5, #0]
 80031c8:	ea43 1301 	orr.w	r3, r3, r1, lsl #4
 80031cc:	f8c2 3800 	str.w	r3, [r2, #2048]	; 0x800
 80031d0:	b125      	cbz	r5, 80031dc <_usb_ep0setup+0x36c>
 80031d2:	4620      	mov	r0, r4
 80031d4:	2101      	movs	r1, #1
 80031d6:	47a8      	blx	r5
 80031d8:	f894 0044 	ldrb.w	r0, [r4, #68]	; 0x44
  usbp->state = USB_SELECTED;
 80031dc:	2303      	movs	r3, #3
 80031de:	7023      	strb	r3, [r4, #0]
    usbSetupTransfer(usbp, NULL, 0, NULL);
 80031e0:	e79e      	b.n	8003120 <_usb_ep0setup+0x2b0>
  usbp->otg->ie[ep].DIEPCTL |= DIEPCTL_STALL;
 80031e2:	f8d3 2900 	ldr.w	r2, [r3, #2304]	; 0x900
 80031e6:	f442 1200 	orr.w	r2, r2, #2097152	; 0x200000
 80031ea:	f8c3 2900 	str.w	r2, [r3, #2304]	; 0x900
 80031ee:	e797      	b.n	8003120 <_usb_ep0setup+0x2b0>
 *
 * @notapi
 */
void usb_lld_clear_in(USBDriver *usbp, usbep_t ep) {

  usbp->otg->ie[ep].DIEPCTL &= ~DIEPCTL_STALL;
 80031f0:	f8d3 2900 	ldr.w	r2, [r3, #2304]	; 0x900
 80031f4:	f422 1200 	bic.w	r2, r2, #2097152	; 0x200000
 80031f8:	f8c3 2900 	str.w	r2, [r3, #2304]	; 0x900
 80031fc:	e790      	b.n	8003120 <_usb_ep0setup+0x2b0>
 80031fe:	bf00      	nop
 8003200:	08006a98 	.word	0x08006a98
 8003204:	080069cc 	.word	0x080069cc
 8003208:	08006cac 	.word	0x08006cac
 800320c:	00000000 	.word	0x00000000

08003210 <oqWriteTimeout>:
 * @return              The number of bytes effectively transferred.
 *
 * @api
 */
size_t oqWriteTimeout(output_queue_t *oqp, const uint8_t *bp,
                      size_t n, sysinterval_t timeout) {
 8003210:	e92d 4ff0 	stmdb	sp!, {r4, r5, r6, r7, r8, r9, sl, fp, lr}
 8003214:	b085      	sub	sp, #20
 8003216:	e9cd 3202 	strd	r3, r2, [sp, #8]
  qnotify_t nfy = oqp->q_notify;
 800321a:	69c7      	ldr	r7, [r0, #28]
 800321c:	f04f 0920 	mov.w	r9, #32
 8003220:	f389 8811 	msr	BASEPRI, r9

  osalDbgCheck(n > 0U);

  osalSysLock();

  while (n > 0U) {
 8003224:	b3a2      	cbz	r2, 8003290 <oqWriteTimeout+0x80>
 8003226:	f8dd b00c 	ldr.w	fp, [sp, #12]
 800322a:	4604      	mov	r4, r0
 800322c:	460e      	mov	r6, r1
 800322e:	f04f 0a00 	mov.w	sl, #0
  if (n > oqGetEmptyI(oqp)) {
 8003232:	68a2      	ldr	r2, [r4, #8]
 8003234:	4593      	cmp	fp, r2
  s1 = (size_t)(oqp->q_top - oqp->q_wrptr);
 8003236:	e9d4 2004 	ldrd	r2, r0, [r4, #16]
    n = oqGetEmptyI(oqp);
 800323a:	bf8c      	ite	hi
 800323c:	68a5      	ldrhi	r5, [r4, #8]
  if (n > oqGetEmptyI(oqp)) {
 800323e:	465d      	movls	r5, fp
  s1 = (size_t)(oqp->q_top - oqp->q_wrptr);
 8003240:	eba2 0800 	sub.w	r8, r2, r0
  if (n < s1) {
 8003244:	45a8      	cmp	r8, r5
 8003246:	d844      	bhi.n	80032d2 <oqWriteTimeout+0xc2>
  else if (n > s1) {
 8003248:	d229      	bcs.n	800329e <oqWriteTimeout+0x8e>
    s2 = n - s1;
 800324a:	eba5 0308 	sub.w	r3, r5, r8
    memcpy((void *)oqp->q_wrptr, (const void *)bp, s1);
 800324e:	4642      	mov	r2, r8
 8003250:	4631      	mov	r1, r6
    s2 = n - s1;
 8003252:	9301      	str	r3, [sp, #4]
    memcpy((void *)oqp->q_wrptr, (const void *)bp, s1);
 8003254:	f7fd f85a 	bl	800030c <memcpy>
    memcpy((void *)oqp->q_buffer, (const void *)bp, s2);
 8003258:	eb06 0108 	add.w	r1, r6, r8
 800325c:	f8dd 8004 	ldr.w	r8, [sp, #4]
 8003260:	68e0      	ldr	r0, [r4, #12]
 8003262:	4642      	mov	r2, r8
 8003264:	f7fd f852 	bl	800030c <memcpy>
  oqp->q_counter -= n;
 8003268:	68a2      	ldr	r2, [r4, #8]
    oqp->q_wrptr = oqp->q_buffer + s2;
 800326a:	68e1      	ldr	r1, [r4, #12]
 800326c:	4643      	mov	r3, r8
 800326e:	18cb      	adds	r3, r1, r3
  oqp->q_counter -= n;
 8003270:	1b52      	subs	r2, r2, r5
    oqp->q_wrptr = oqp->q_buffer + s2;
 8003272:	6163      	str	r3, [r4, #20]
  oqp->q_counter -= n;
 8003274:	60a2      	str	r2, [r4, #8]
      }
    }
    else {
      /* Inform the low side that the queue has at least one character
         available.*/
      if (nfy != NULL) {
 8003276:	b10f      	cbz	r7, 800327c <oqWriteTimeout+0x6c>
        nfy(oqp);
 8003278:	4620      	mov	r0, r4
 800327a:	47b8      	blx	r7
 800327c:	f38a 8811 	msr	BASEPRI, sl
      }

      /* Giving a preemption chance in a controlled point.*/
      osalSysUnlock();

      n  -= done;
 8003280:	ebab 0b05 	sub.w	fp, fp, r5
      bp += done;
 8003284:	442e      	add	r6, r5
 8003286:	f389 8811 	msr	BASEPRI, r9
  while (n > 0U) {
 800328a:	f1bb 0f00 	cmp.w	fp, #0
 800328e:	d1d0      	bne.n	8003232 <oqWriteTimeout+0x22>
  if (n > oqGetEmptyI(oqp)) {
 8003290:	9803      	ldr	r0, [sp, #12]
 8003292:	2300      	movs	r3, #0
 8003294:	f383 8811 	msr	BASEPRI, r3
    }
  }

  osalSysUnlock();
  return max - n;
}
 8003298:	b005      	add	sp, #20
 800329a:	e8bd 8ff0 	ldmia.w	sp!, {r4, r5, r6, r7, r8, r9, sl, fp, pc}
    memcpy((void *)oqp->q_wrptr, (const void *)bp, n);
 800329e:	462a      	mov	r2, r5
 80032a0:	4631      	mov	r1, r6
 80032a2:	f7fd f833 	bl	800030c <memcpy>
    oqp->q_wrptr = oqp->q_buffer;
 80032a6:	68e2      	ldr	r2, [r4, #12]
 80032a8:	6162      	str	r2, [r4, #20]
  oqp->q_counter -= n;
 80032aa:	68a2      	ldr	r2, [r4, #8]
 80032ac:	1b52      	subs	r2, r2, r5
 80032ae:	60a2      	str	r2, [r4, #8]
    if (done == (size_t)0) {
 80032b0:	2d00      	cmp	r5, #0
 80032b2:	d1e0      	bne.n	8003276 <oqWriteTimeout+0x66>
  return chThdEnqueueTimeoutS(tqp, timeout);
 80032b4:	9902      	ldr	r1, [sp, #8]
 80032b6:	4620      	mov	r0, r4
 80032b8:	f7ff fa9a 	bl	80027f0 <chThdEnqueueTimeoutS>
      if (msg != MSG_OK) {
 80032bc:	2800      	cmp	r0, #0
 80032be:	d0b8      	beq.n	8003232 <oqWriteTimeout+0x22>
 80032c0:	9b03      	ldr	r3, [sp, #12]
 80032c2:	eba3 000b 	sub.w	r0, r3, fp
 80032c6:	2300      	movs	r3, #0
 80032c8:	f383 8811 	msr	BASEPRI, r3
}
 80032cc:	b005      	add	sp, #20
 80032ce:	e8bd 8ff0 	ldmia.w	sp!, {r4, r5, r6, r7, r8, r9, sl, fp, pc}
    memcpy((void *)oqp->q_wrptr, (const void *)bp, n);
 80032d2:	462a      	mov	r2, r5
 80032d4:	4631      	mov	r1, r6
 80032d6:	f7fd f819 	bl	800030c <memcpy>
    oqp->q_wrptr += n;
 80032da:	6962      	ldr	r2, [r4, #20]
 80032dc:	442a      	add	r2, r5
 80032de:	6162      	str	r2, [r4, #20]
 80032e0:	e7e3      	b.n	80032aa <oqWriteTimeout+0x9a>
 80032e2:	bf00      	nop
	...

080032f0 <_writet.lto_priv.0>:
  return oqWriteTimeout(&((SerialDriver *)ip)->oqueue, bp, n, timeout);
 80032f0:	3030      	adds	r0, #48	; 0x30
 80032f2:	f7ff bf8d 	b.w	8003210 <oqWriteTimeout>
 80032f6:	bf00      	nop
	...

08003300 <_write.lto_priv.0>:
  return oqWriteTimeout(&((SerialDriver *)ip)->oqueue, bp,
 8003300:	3030      	adds	r0, #48	; 0x30
 8003302:	f04f 33ff 	mov.w	r3, #4294967295	; 0xffffffff
 8003306:	f7ff bf83 	b.w	8003210 <oqWriteTimeout>
 800330a:	bf00      	nop
 800330c:	0000      	movs	r0, r0
	...

08003310 <iqReadTimeout>:
                     size_t n, sysinterval_t timeout) {
 8003310:	e92d 4ff0 	stmdb	sp!, {r4, r5, r6, r7, r8, r9, sl, fp, lr}
 8003314:	b085      	sub	sp, #20
 8003316:	e9cd 3202 	strd	r3, r2, [sp, #8]
  qnotify_t nfy = iqp->q_notify;
 800331a:	69c7      	ldr	r7, [r0, #28]
 800331c:	f04f 0920 	mov.w	r9, #32
 8003320:	f389 8811 	msr	BASEPRI, r9
  while (n > 0U) {
 8003324:	2a00      	cmp	r2, #0
 8003326:	d034      	beq.n	8003392 <iqReadTimeout+0x82>
 8003328:	f8dd b00c 	ldr.w	fp, [sp, #12]
 800332c:	4604      	mov	r4, r0
 800332e:	460e      	mov	r6, r1
 8003330:	f04f 0a00 	mov.w	sl, #0
  if (n > iqGetFullI(iqp)) {
 8003334:	68a2      	ldr	r2, [r4, #8]
  s1 = (size_t)(iqp->q_top - iqp->q_rdptr);
 8003336:	69a1      	ldr	r1, [r4, #24]
  if (n > iqGetFullI(iqp)) {
 8003338:	4593      	cmp	fp, r2
  s1 = (size_t)(iqp->q_top - iqp->q_rdptr);
 800333a:	6922      	ldr	r2, [r4, #16]
    n = iqGetFullI(iqp);
 800333c:	bf8c      	ite	hi
 800333e:	68a5      	ldrhi	r5, [r4, #8]
  if (n > iqGetFullI(iqp)) {
 8003340:	465d      	movls	r5, fp
  s1 = (size_t)(iqp->q_top - iqp->q_rdptr);
 8003342:	eba2 0801 	sub.w	r8, r2, r1
  if (n < s1) {
 8003346:	45a8      	cmp	r8, r5
 8003348:	d844      	bhi.n	80033d4 <iqReadTimeout+0xc4>
  else if (n > s1) {
 800334a:	d229      	bcs.n	80033a0 <iqReadTimeout+0x90>
    s2 = n - s1;
 800334c:	eba5 0308 	sub.w	r3, r5, r8
    memcpy((void *)bp, (void *)iqp->q_rdptr, s1);
 8003350:	4642      	mov	r2, r8
 8003352:	4630      	mov	r0, r6
    s2 = n - s1;
 8003354:	9301      	str	r3, [sp, #4]
    memcpy((void *)bp, (void *)iqp->q_rdptr, s1);
 8003356:	f7fc ffd9 	bl	800030c <memcpy>
    memcpy((void *)bp, (void *)iqp->q_buffer, s2);
 800335a:	eb06 0008 	add.w	r0, r6, r8
 800335e:	f8dd 8004 	ldr.w	r8, [sp, #4]
 8003362:	68e1      	ldr	r1, [r4, #12]
 8003364:	4642      	mov	r2, r8
 8003366:	f7fc ffd1 	bl	800030c <memcpy>
  iqp->q_counter -= n;
 800336a:	68a2      	ldr	r2, [r4, #8]
    iqp->q_rdptr = iqp->q_buffer + s2;
 800336c:	68e1      	ldr	r1, [r4, #12]
 800336e:	4643      	mov	r3, r8
 8003370:	18cb      	adds	r3, r1, r3
  iqp->q_counter -= n;
 8003372:	1b52      	subs	r2, r2, r5
    iqp->q_rdptr = iqp->q_buffer + s2;
 8003374:	61a3      	str	r3, [r4, #24]
  iqp->q_counter -= n;
 8003376:	60a2      	str	r2, [r4, #8]
      if (nfy != NULL) {
 8003378:	b10f      	cbz	r7, 800337e <iqReadTimeout+0x6e>
        nfy(iqp);
 800337a:	4620      	mov	r0, r4
 800337c:	47b8      	blx	r7
 800337e:	f38a 8811 	msr	BASEPRI, sl
      n  -= done;
 8003382:	ebab 0b05 	sub.w	fp, fp, r5
      bp += done;
 8003386:	442e      	add	r6, r5
 8003388:	f389 8811 	msr	BASEPRI, r9
  while (n > 0U) {
 800338c:	f1bb 0f00 	cmp.w	fp, #0
 8003390:	d1d0      	bne.n	8003334 <iqReadTimeout+0x24>
  if (n > iqGetFullI(iqp)) {
 8003392:	9803      	ldr	r0, [sp, #12]
 8003394:	2300      	movs	r3, #0
 8003396:	f383 8811 	msr	BASEPRI, r3
}
 800339a:	b005      	add	sp, #20
 800339c:	e8bd 8ff0 	ldmia.w	sp!, {r4, r5, r6, r7, r8, r9, sl, fp, pc}
    memcpy((void *)bp, (void *)iqp->q_rdptr, n);
 80033a0:	462a      	mov	r2, r5
 80033a2:	4630      	mov	r0, r6
 80033a4:	f7fc ffb2 	bl	800030c <memcpy>
    iqp->q_rdptr = iqp->q_buffer;
 80033a8:	68e2      	ldr	r2, [r4, #12]
 80033aa:	61a2      	str	r2, [r4, #24]
  iqp->q_counter -= n;
 80033ac:	68a2      	ldr	r2, [r4, #8]
 80033ae:	1b52      	subs	r2, r2, r5
 80033b0:	60a2      	str	r2, [r4, #8]
    if (done == (size_t)0) {
 80033b2:	2d00      	cmp	r5, #0
 80033b4:	d1e0      	bne.n	8003378 <iqReadTimeout+0x68>
 80033b6:	9902      	ldr	r1, [sp, #8]
 80033b8:	4620      	mov	r0, r4
 80033ba:	f7ff fa19 	bl	80027f0 <chThdEnqueueTimeoutS>
      if (msg != MSG_OK) {
 80033be:	2800      	cmp	r0, #0
 80033c0:	d0b8      	beq.n	8003334 <iqReadTimeout+0x24>
 80033c2:	9b03      	ldr	r3, [sp, #12]
 80033c4:	eba3 000b 	sub.w	r0, r3, fp
 80033c8:	2300      	movs	r3, #0
 80033ca:	f383 8811 	msr	BASEPRI, r3
}
 80033ce:	b005      	add	sp, #20
 80033d0:	e8bd 8ff0 	ldmia.w	sp!, {r4, r5, r6, r7, r8, r9, sl, fp, pc}
    memcpy((void *)bp, (void *)iqp->q_rdptr, n);
 80033d4:	462a      	mov	r2, r5
 80033d6:	4630      	mov	r0, r6
 80033d8:	f7fc ff98 	bl	800030c <memcpy>
    iqp->q_rdptr += n;
 80033dc:	69a2      	ldr	r2, [r4, #24]
 80033de:	442a      	add	r2, r5
 80033e0:	61a2      	str	r2, [r4, #24]
 80033e2:	e7e3      	b.n	80033ac <iqReadTimeout+0x9c>
	...

080033f0 <_readt.lto_priv.0>:
  return iqReadTimeout(&((SerialDriver *)ip)->iqueue, bp, n, timeout);
 80033f0:	300c      	adds	r0, #12
 80033f2:	f7ff bf8d 	b.w	8003310 <iqReadTimeout>
 80033f6:	bf00      	nop
	...

08003400 <_read.lto_priv.0>:
  return iqReadTimeout(&((SerialDriver *)ip)->iqueue, bp,
 8003400:	300c      	adds	r0, #12
 8003402:	f04f 33ff 	mov.w	r3, #4294967295	; 0xffffffff
 8003406:	f7ff bf83 	b.w	8003310 <iqReadTimeout>
 800340a:	bf00      	nop
 800340c:	0000      	movs	r0, r0
	...

08003410 <obqWriteTimeout>:
                       size_t n, sysinterval_t timeout) {
 8003410:	e92d 4ff0 	stmdb	sp!, {r4, r5, r6, r7, r8, r9, sl, fp, lr}
 8003414:	4605      	mov	r5, r0
 8003416:	b083      	sub	sp, #12
 8003418:	460c      	mov	r4, r1
 800341a:	4692      	mov	sl, r2
 800341c:	4699      	mov	r9, r3
 800341e:	f04f 0820 	mov.w	r8, #32
 8003422:	f388 8811 	msr	BASEPRI, r8
    if (obqp->ptr == NULL) {
 8003426:	6aab      	ldr	r3, [r5, #40]	; 0x28
  size_t w = 0;
 8003428:	2600      	movs	r6, #0
  obqp->ptr = NULL;
 800342a:	4637      	mov	r7, r6
    if (obqp->ptr == NULL) {
 800342c:	2b00      	cmp	r3, #0
 800342e:	d041      	beq.n	80034b4 <obqWriteTimeout+0xa4>
    size = (size_t)obqp->top - (size_t)obqp->ptr;
 8003430:	6ae9      	ldr	r1, [r5, #44]	; 0x2c
    if (size > (n - w)) {
 8003432:	ebaa 0b06 	sub.w	fp, sl, r6
    size = (size_t)obqp->top - (size_t)obqp->ptr;
 8003436:	1aca      	subs	r2, r1, r3
    if (size > (n - w)) {
 8003438:	4593      	cmp	fp, r2
 800343a:	bf28      	it	cs
 800343c:	4693      	movcs	fp, r2
    if (size > (size_t)BUFFERS_CHUNKS_SIZE) {
 800343e:	f1bb 0f40 	cmp.w	fp, #64	; 0x40
 8003442:	d940      	bls.n	80034c6 <obqWriteTimeout+0xb6>
      memcpy(obqp->ptr, bp, (size_t)BUFFERS_CHUNKS_SIZE);
 8003444:	4621      	mov	r1, r4
 8003446:	4618      	mov	r0, r3
 8003448:	f104 0e40 	add.w	lr, r4, #64	; 0x40
 800344c:	680c      	ldr	r4, [r1, #0]
 800344e:	684a      	ldr	r2, [r1, #4]
 8003450:	688b      	ldr	r3, [r1, #8]
 8003452:	f8d1 c00c 	ldr.w	ip, [r1, #12]
 8003456:	f8c0 c00c 	str.w	ip, [r0, #12]
 800345a:	3110      	adds	r1, #16
 800345c:	4571      	cmp	r1, lr
 800345e:	6004      	str	r4, [r0, #0]
 8003460:	6042      	str	r2, [r0, #4]
 8003462:	6083      	str	r3, [r0, #8]
 8003464:	f100 0010 	add.w	r0, r0, #16
 8003468:	d1f0      	bne.n	800344c <obqWriteTimeout+0x3c>
      obqp->ptr += (size_t)BUFFERS_CHUNKS_SIZE;
 800346a:	6aab      	ldr	r3, [r5, #40]	; 0x28
 800346c:	3340      	adds	r3, #64	; 0x40
      bp        += (size_t)BUFFERS_CHUNKS_SIZE;
 800346e:	460c      	mov	r4, r1
      w         += (size_t)BUFFERS_CHUNKS_SIZE;
 8003470:	3640      	adds	r6, #64	; 0x40
      obqp->ptr += (size_t)BUFFERS_CHUNKS_SIZE;
 8003472:	62ab      	str	r3, [r5, #40]	; 0x28
    if (obqp->ptr >= obqp->top) {
 8003474:	6aea      	ldr	r2, [r5, #44]	; 0x2c
 8003476:	429a      	cmp	r2, r3
 8003478:	d813      	bhi.n	80034a2 <obqWriteTimeout+0x92>
      obqPostFullBufferS(obqp, obqp->bsize - sizeof (size_t));
 800347a:	69ea      	ldr	r2, [r5, #28]
  *((size_t *)obqp->bwrptr) = size;
 800347c:	692b      	ldr	r3, [r5, #16]
  if (obqp->bwrptr >= obqp->btop) {
 800347e:	69a8      	ldr	r0, [r5, #24]
      obqPostFullBufferS(obqp, obqp->bsize - sizeof (size_t));
 8003480:	3a04      	subs	r2, #4
  *((size_t *)obqp->bwrptr) = size;
 8003482:	601a      	str	r2, [r3, #0]
  obqp->bwrptr += obqp->bsize;
 8003484:	69e9      	ldr	r1, [r5, #28]
  obqp->bcounter--;
 8003486:	68ea      	ldr	r2, [r5, #12]
  obqp->ptr = NULL;
 8003488:	62af      	str	r7, [r5, #40]	; 0x28
  obqp->bwrptr += obqp->bsize;
 800348a:	440b      	add	r3, r1
  if (obqp->bwrptr >= obqp->btop) {
 800348c:	4283      	cmp	r3, r0
  obqp->bwrptr += obqp->bsize;
 800348e:	612b      	str	r3, [r5, #16]
    obqp->bwrptr = obqp->buffers;
 8003490:	bf24      	itt	cs
 8003492:	6a6b      	ldrcs	r3, [r5, #36]	; 0x24
 8003494:	612b      	strcs	r3, [r5, #16]
  if (obqp->notify != NULL) {
 8003496:	6b2b      	ldr	r3, [r5, #48]	; 0x30
  obqp->bcounter--;
 8003498:	3a01      	subs	r2, #1
 800349a:	60ea      	str	r2, [r5, #12]
  if (obqp->notify != NULL) {
 800349c:	b10b      	cbz	r3, 80034a2 <obqWriteTimeout+0x92>
    obqp->notify(obqp);
 800349e:	4628      	mov	r0, r5
 80034a0:	4798      	blx	r3
 80034a2:	f387 8811 	msr	BASEPRI, r7
    if (w >= n) {
 80034a6:	4556      	cmp	r6, sl
 80034a8:	d21a      	bcs.n	80034e0 <obqWriteTimeout+0xd0>
 80034aa:	f388 8811 	msr	BASEPRI, r8
    if (obqp->ptr == NULL) {
 80034ae:	6aab      	ldr	r3, [r5, #40]	; 0x28
 80034b0:	2b00      	cmp	r3, #0
 80034b2:	d1bd      	bne.n	8003430 <obqWriteTimeout+0x20>
      msg = obqGetEmptyBufferTimeoutS(obqp, timeout);
 80034b4:	4649      	mov	r1, r9
 80034b6:	4628      	mov	r0, r5
 80034b8:	9301      	str	r3, [sp, #4]
 80034ba:	f7ff fa29 	bl	8002910 <obqGetEmptyBufferTimeoutS>
      if (msg != MSG_OK) {
 80034be:	9b01      	ldr	r3, [sp, #4]
 80034c0:	b960      	cbnz	r0, 80034dc <obqWriteTimeout+0xcc>
 80034c2:	6aab      	ldr	r3, [r5, #40]	; 0x28
 80034c4:	e7b4      	b.n	8003430 <obqWriteTimeout+0x20>
      memcpy(obqp->ptr, bp, size);
 80034c6:	4618      	mov	r0, r3
 80034c8:	4621      	mov	r1, r4
 80034ca:	465a      	mov	r2, fp
 80034cc:	f7fc ff1e 	bl	800030c <memcpy>
      obqp->ptr += size;
 80034d0:	6aab      	ldr	r3, [r5, #40]	; 0x28
 80034d2:	445b      	add	r3, fp
      w         += size;
 80034d4:	445e      	add	r6, fp
      bp        += size;
 80034d6:	445c      	add	r4, fp
      obqp->ptr += size;
 80034d8:	62ab      	str	r3, [r5, #40]	; 0x28
      w         += size;
 80034da:	e7cb      	b.n	8003474 <obqWriteTimeout+0x64>
 80034dc:	f383 8811 	msr	BASEPRI, r3
}
 80034e0:	4630      	mov	r0, r6
 80034e2:	b003      	add	sp, #12
 80034e4:	e8bd 8ff0 	ldmia.w	sp!, {r4, r5, r6, r7, r8, r9, sl, fp, pc}
	...

080034f0 <_writet.lto_priv.1>:
  return obqWriteTimeout(&((SerialUSBDriver *)ip)->obqueue, bp, n, timeout);
 80034f0:	3044      	adds	r0, #68	; 0x44
 80034f2:	f7ff bf8d 	b.w	8003410 <obqWriteTimeout>
 80034f6:	bf00      	nop
	...

08003500 <_write.lto_priv.1>:
  return obqWriteTimeout(&((SerialUSBDriver *)ip)->obqueue, bp,
 8003500:	3044      	adds	r0, #68	; 0x44
 8003502:	f04f 33ff 	mov.w	r3, #4294967295	; 0xffffffff
 8003506:	f7ff bf83 	b.w	8003410 <obqWriteTimeout>
 800350a:	bf00      	nop
 800350c:	0000      	movs	r0, r0
	...

08003510 <ibqReadTimeout>:
                      size_t n, sysinterval_t timeout) {
 8003510:	e92d 4ff0 	stmdb	sp!, {r4, r5, r6, r7, r8, r9, sl, fp, lr}
 8003514:	b083      	sub	sp, #12
 8003516:	4605      	mov	r5, r0
 8003518:	460f      	mov	r7, r1
 800351a:	4693      	mov	fp, r2
 800351c:	9301      	str	r3, [sp, #4]
 800351e:	f04f 0920 	mov.w	r9, #32
 8003522:	f389 8811 	msr	BASEPRI, r9
    if (ibqp->ptr == NULL) {
 8003526:	6aac      	ldr	r4, [r5, #40]	; 0x28
  size_t r = 0;
 8003528:	2600      	movs	r6, #0
  ibqp->ptr = NULL;
 800352a:	46b0      	mov	r8, r6
    if (ibqp->ptr == NULL) {
 800352c:	2c00      	cmp	r4, #0
 800352e:	d03f      	beq.n	80035b0 <ibqReadTimeout+0xa0>
    size = (size_t)ibqp->top - (size_t)ibqp->ptr;
 8003530:	6aeb      	ldr	r3, [r5, #44]	; 0x2c
    if (size > (n - r)) {
 8003532:	ebab 0206 	sub.w	r2, fp, r6
    size = (size_t)ibqp->top - (size_t)ibqp->ptr;
 8003536:	1b1b      	subs	r3, r3, r4
    if (size > (n - r)) {
 8003538:	429a      	cmp	r2, r3
 800353a:	bf28      	it	cs
 800353c:	461a      	movcs	r2, r3
    if (size > (size_t)BUFFERS_CHUNKS_SIZE) {
 800353e:	2a40      	cmp	r2, #64	; 0x40
 8003540:	4692      	mov	sl, r2
      memcpy(bp, ibqp->ptr, BUFFERS_CHUNKS_SIZE);
 8003542:	4621      	mov	r1, r4
    if (size > (size_t)BUFFERS_CHUNKS_SIZE) {
 8003544:	d93b      	bls.n	80035be <ibqReadTimeout+0xae>
      memcpy(bp, ibqp->ptr, BUFFERS_CHUNKS_SIZE);
 8003546:	f104 0e40 	add.w	lr, r4, #64	; 0x40
 800354a:	463b      	mov	r3, r7
 800354c:	680c      	ldr	r4, [r1, #0]
 800354e:	6848      	ldr	r0, [r1, #4]
 8003550:	688a      	ldr	r2, [r1, #8]
 8003552:	f8d1 c00c 	ldr.w	ip, [r1, #12]
 8003556:	f8c3 c00c 	str.w	ip, [r3, #12]
 800355a:	3110      	adds	r1, #16
 800355c:	4571      	cmp	r1, lr
 800355e:	601c      	str	r4, [r3, #0]
 8003560:	6058      	str	r0, [r3, #4]
 8003562:	609a      	str	r2, [r3, #8]
 8003564:	f103 0310 	add.w	r3, r3, #16
 8003568:	d1f0      	bne.n	800354c <ibqReadTimeout+0x3c>
      ibqp->ptr += (size_t)BUFFERS_CHUNKS_SIZE;
 800356a:	6aab      	ldr	r3, [r5, #40]	; 0x28
 800356c:	3340      	adds	r3, #64	; 0x40
      bp        += (size_t)BUFFERS_CHUNKS_SIZE;
 800356e:	3740      	adds	r7, #64	; 0x40
      r         += (size_t)BUFFERS_CHUNKS_SIZE;
 8003570:	3640      	adds	r6, #64	; 0x40
      ibqp->ptr += (size_t)BUFFERS_CHUNKS_SIZE;
 8003572:	62ab      	str	r3, [r5, #40]	; 0x28
    if (ibqp->ptr >= ibqp->top) {
 8003574:	6aea      	ldr	r2, [r5, #44]	; 0x2c
 8003576:	429a      	cmp	r2, r3
 8003578:	d811      	bhi.n	800359e <ibqReadTimeout+0x8e>
  if (ibqp->brdptr >= ibqp->btop) {
 800357a:	e9d5 2106 	ldrd	r2, r1, [r5, #24]
  ibqp->brdptr += ibqp->bsize;
 800357e:	696b      	ldr	r3, [r5, #20]
  ibqp->bcounter--;
 8003580:	68e8      	ldr	r0, [r5, #12]
  ibqp->ptr = NULL;
 8003582:	f8c5 8028 	str.w	r8, [r5, #40]	; 0x28
  ibqp->brdptr += ibqp->bsize;
 8003586:	440b      	add	r3, r1
  if (ibqp->brdptr >= ibqp->btop) {
 8003588:	4293      	cmp	r3, r2
  ibqp->brdptr += ibqp->bsize;
 800358a:	616b      	str	r3, [r5, #20]
    ibqp->brdptr = ibqp->buffers;
 800358c:	bf24      	itt	cs
 800358e:	6a6b      	ldrcs	r3, [r5, #36]	; 0x24
 8003590:	616b      	strcs	r3, [r5, #20]
  if (ibqp->notify != NULL) {
 8003592:	6b2b      	ldr	r3, [r5, #48]	; 0x30
  ibqp->bcounter--;
 8003594:	3801      	subs	r0, #1
 8003596:	60e8      	str	r0, [r5, #12]
  if (ibqp->notify != NULL) {
 8003598:	b10b      	cbz	r3, 800359e <ibqReadTimeout+0x8e>
    ibqp->notify(ibqp);
 800359a:	4628      	mov	r0, r5
 800359c:	4798      	blx	r3
 800359e:	f388 8811 	msr	BASEPRI, r8
    if (r >= n) {
 80035a2:	455e      	cmp	r6, fp
 80035a4:	d216      	bcs.n	80035d4 <ibqReadTimeout+0xc4>
 80035a6:	f389 8811 	msr	BASEPRI, r9
    if (ibqp->ptr == NULL) {
 80035aa:	6aac      	ldr	r4, [r5, #40]	; 0x28
 80035ac:	2c00      	cmp	r4, #0
 80035ae:	d1bf      	bne.n	8003530 <ibqReadTimeout+0x20>
      msg = ibqGetFullBufferTimeoutS(ibqp, timeout);
 80035b0:	9901      	ldr	r1, [sp, #4]
 80035b2:	4628      	mov	r0, r5
 80035b4:	f7ff fa14 	bl	80029e0 <ibqGetFullBufferTimeoutS>
      if (msg != MSG_OK) {
 80035b8:	b950      	cbnz	r0, 80035d0 <ibqReadTimeout+0xc0>
 80035ba:	6aac      	ldr	r4, [r5, #40]	; 0x28
 80035bc:	e7b8      	b.n	8003530 <ibqReadTimeout+0x20>
      memcpy(bp, ibqp->ptr, size);
 80035be:	4638      	mov	r0, r7
 80035c0:	f7fc fea4 	bl	800030c <memcpy>
      ibqp->ptr += size;
 80035c4:	6aab      	ldr	r3, [r5, #40]	; 0x28
 80035c6:	4453      	add	r3, sl
      r         += size;
 80035c8:	4456      	add	r6, sl
      bp        += size;
 80035ca:	4457      	add	r7, sl
      ibqp->ptr += size;
 80035cc:	62ab      	str	r3, [r5, #40]	; 0x28
      r         += size;
 80035ce:	e7d1      	b.n	8003574 <ibqReadTimeout+0x64>
 80035d0:	f384 8811 	msr	BASEPRI, r4
}
 80035d4:	4630      	mov	r0, r6
 80035d6:	b003      	add	sp, #12
 80035d8:	e8bd 8ff0 	ldmia.w	sp!, {r4, r5, r6, r7, r8, r9, sl, fp, pc}
 80035dc:	0000      	movs	r0, r0
	...

080035e0 <_readt.lto_priv.1>:
  return ibqReadTimeout(&((SerialUSBDriver *)ip)->ibqueue, bp, n, timeout);
 80035e0:	300c      	adds	r0, #12
 80035e2:	f7ff bf95 	b.w	8003510 <ibqReadTimeout>
 80035e6:	bf00      	nop
	...

080035f0 <_read.lto_priv.1>:
  return ibqReadTimeout(&((SerialUSBDriver *)ip)->ibqueue, bp,
 80035f0:	300c      	adds	r0, #12
 80035f2:	f04f 33ff 	mov.w	r3, #4294967295	; 0xffffffff
 80035f6:	f7ff bf8b 	b.w	8003510 <ibqReadTimeout>
 80035fa:	bf00      	nop
 80035fc:	0000      	movs	r0, r0
	...

08003600 <parse_arguments>:
static char *parse_arguments(char *str, char **saveptr) {
 8003600:	b570      	push	{r4, r5, r6, lr}
 8003602:	460d      	mov	r5, r1
  if (str != NULL)
 8003604:	b1b8      	cbz	r0, 8003636 <parse_arguments+0x36>
 8003606:	4604      	mov	r4, r0
    *saveptr = str;
 8003608:	6028      	str	r0, [r5, #0]
  p += strspn(p, " \t");
 800360a:	4912      	ldr	r1, [pc, #72]	; (8003654 <parse_arguments+0x54>)
 800360c:	4620      	mov	r0, r4
 800360e:	f002 fcff 	bl	8006010 <strspn>
  if (*p == '"') {
 8003612:	5c21      	ldrb	r1, [r4, r0]
 8003614:	2922      	cmp	r1, #34	; 0x22
  p += strspn(p, " \t");
 8003616:	eb04 0600 	add.w	r6, r4, r0
  if (*p == '"') {
 800361a:	d012      	beq.n	8003642 <parse_arguments+0x42>
    *saveptr = strpbrk(p, " \t");
 800361c:	490d      	ldr	r1, [pc, #52]	; (8003654 <parse_arguments+0x54>)
 800361e:	4630      	mov	r0, r6
 8003620:	f002 fcda 	bl	8005fd8 <strpbrk>
  if (*saveptr != NULL) {
 8003624:	b198      	cbz	r0, 800364e <parse_arguments+0x4e>
    *(*saveptr)++ = '\0';
 8003626:	1c42      	adds	r2, r0, #1
 8003628:	2300      	movs	r3, #0
 800362a:	602a      	str	r2, [r5, #0]
 800362c:	7003      	strb	r3, [r0, #0]
  return *p != '\0' ? p : NULL;
 800362e:	7833      	ldrb	r3, [r6, #0]
 8003630:	b123      	cbz	r3, 800363c <parse_arguments+0x3c>
}
 8003632:	4630      	mov	r0, r6
 8003634:	bd70      	pop	{r4, r5, r6, pc}
  p = *saveptr;
 8003636:	680c      	ldr	r4, [r1, #0]
  if (!p) {
 8003638:	2c00      	cmp	r4, #0
 800363a:	d1e6      	bne.n	800360a <parse_arguments+0xa>
    return NULL;
 800363c:	2600      	movs	r6, #0
}
 800363e:	4630      	mov	r0, r6
 8003640:	bd70      	pop	{r4, r5, r6, pc}
    p++;
 8003642:	3601      	adds	r6, #1
    *saveptr = strpbrk(p, "\"");
 8003644:	4630      	mov	r0, r6
 8003646:	f002 fc5f 	bl	8005f08 <strchr>
  if (*saveptr != NULL) {
 800364a:	2800      	cmp	r0, #0
 800364c:	d1eb      	bne.n	8003626 <parse_arguments+0x26>
 800364e:	6028      	str	r0, [r5, #0]
 8003650:	e7ed      	b.n	800362e <parse_arguments+0x2e>
 8003652:	bf00      	nop
 8003654:	08006518 	.word	0x08006518
	...

08003660 <chprintf>:
 * @return              The number of bytes that would have been
 *                      written to @p chp if no stream error occurs
 *
 * @api
 */
int chprintf(BaseSequentialStream *chp, const char *fmt, ...) {
 8003660:	b40e      	push	{r1, r2, r3}
 8003662:	e92d 4ff0 	stmdb	sp!, {r4, r5, r6, r7, r8, r9, sl, fp, lr}
 8003666:	b086      	sub	sp, #24
 8003668:	ab0f      	add	r3, sp, #60	; 0x3c
 800366a:	f853 4b04 	ldr.w	r4, [r3], #4
  va_list ap;
  int formatted_bytes;

  va_start(ap, fmt);
 800366e:	9302      	str	r3, [sp, #8]
    c = *fmt++;
 8003670:	4625      	mov	r5, r4
 8003672:	f815 1b01 	ldrb.w	r1, [r5], #1
    if (c == 0) {
 8003676:	2900      	cmp	r1, #0
 8003678:	f000 823b 	beq.w	8003af2 <chprintf+0x492>
 800367c:	4607      	mov	r7, r0
 800367e:	4699      	mov	r9, r3
  int n = 0;
 8003680:	f04f 0800 	mov.w	r8, #0
 8003684:	e00c      	b.n	80036a0 <chprintf+0x40>
      streamPut(chp, (uint8_t)c);
 8003686:	683b      	ldr	r3, [r7, #0]
 8003688:	4638      	mov	r0, r7
 800368a:	68db      	ldr	r3, [r3, #12]
      n++;
 800368c:	f108 0801 	add.w	r8, r8, #1
 8003690:	462c      	mov	r4, r5
      streamPut(chp, (uint8_t)c);
 8003692:	4798      	blx	r3
    c = *fmt++;
 8003694:	4625      	mov	r5, r4
 8003696:	f815 1b01 	ldrb.w	r1, [r5], #1
    if (c == 0) {
 800369a:	2900      	cmp	r1, #0
 800369c:	f000 80be 	beq.w	800381c <chprintf+0x1bc>
    if (c != '%') {
 80036a0:	2925      	cmp	r1, #37	; 0x25
 80036a2:	d1f0      	bne.n	8003686 <chprintf+0x26>
    if (*fmt == '-') {
 80036a4:	7863      	ldrb	r3, [r4, #1]
 80036a6:	2b2d      	cmp	r3, #45	; 0x2d
      fmt++;
 80036a8:	bf04      	itt	eq
 80036aa:	1ca5      	addeq	r5, r4, #2
      left_align = true;
 80036ac:	2001      	moveq	r0, #1
    if (*fmt == '+') {
 80036ae:	782b      	ldrb	r3, [r5, #0]
    left_align = false;
 80036b0:	bf18      	it	ne
 80036b2:	2000      	movne	r0, #0
    if (*fmt == '+') {
 80036b4:	2b2b      	cmp	r3, #43	; 0x2b
 80036b6:	bf03      	ittte	eq
 80036b8:	786b      	ldrbeq	r3, [r5, #1]
      do_sign = true;
 80036ba:	f04f 0e01 	moveq.w	lr, #1
      fmt++;
 80036be:	4475      	addeq	r5, lr
    do_sign = false;
 80036c0:	f04f 0e00 	movne.w	lr, #0
    if (*fmt == '0') {
 80036c4:	2b30      	cmp	r3, #48	; 0x30
      filler = '0';
 80036c6:	bf05      	ittet	eq
 80036c8:	461e      	moveq	r6, r3
      fmt++;
 80036ca:	786b      	ldrbeq	r3, [r5, #1]
    filler = ' ';
 80036cc:	2620      	movne	r6, #32
      fmt++;
 80036ce:	3501      	addeq	r5, #1
    if ( *fmt == '*') {
 80036d0:	2b2a      	cmp	r3, #42	; 0x2a
 80036d2:	f040 80ac 	bne.w	800382e <chprintf+0x1ce>
      width = va_arg(ap, int);
 80036d6:	f859 1b04 	ldr.w	r1, [r9], #4
      c = *fmt++;
 80036da:	786b      	ldrb	r3, [r5, #1]
 80036dc:	1cac      	adds	r4, r5, #2
    if (c == '.') {
 80036de:	2b2e      	cmp	r3, #46	; 0x2e
 80036e0:	f000 8130 	beq.w	8003944 <chprintf+0x2e4>
    precision = 0;
 80036e4:	2200      	movs	r2, #0
    if (c == 'l' || c == 'L') {
 80036e6:	f003 05df 	and.w	r5, r3, #223	; 0xdf
 80036ea:	2d4c      	cmp	r5, #76	; 0x4c
 80036ec:	f000 80b2 	beq.w	8003854 <chprintf+0x1f4>
      is_long = (c >= 'A') && (c <= 'Z');
 80036f0:	f1a3 0c44 	sub.w	ip, r3, #68	; 0x44
    switch (c) {
 80036f4:	f1bc 0f34 	cmp.w	ip, #52	; 0x34
 80036f8:	f200 8198 	bhi.w	8003a2c <chprintf+0x3cc>
 80036fc:	e8df f01c 	tbh	[pc, ip, lsl #1]
 8003700:	0196015e 	.word	0x0196015e
 8003704:	01960196 	.word	0x01960196
 8003708:	015e0196 	.word	0x015e0196
 800370c:	01960196 	.word	0x01960196
 8003710:	01960196 	.word	0x01960196
 8003714:	019a0196 	.word	0x019a0196
 8003718:	01960035 	.word	0x01960035
 800371c:	01960196 	.word	0x01960196
 8003720:	00940196 	.word	0x00940196
 8003724:	01960196 	.word	0x01960196
 8003728:	01960035 	.word	0x01960035
 800372c:	01960196 	.word	0x01960196
 8003730:	01960196 	.word	0x01960196
 8003734:	01960196 	.word	0x01960196
 8003738:	01960196 	.word	0x01960196
 800373c:	014d0196 	.word	0x014d0196
 8003740:	0196015e 	.word	0x0196015e
 8003744:	01960196 	.word	0x01960196
 8003748:	015e0196 	.word	0x015e0196
 800374c:	01960196 	.word	0x01960196
 8003750:	01960196 	.word	0x01960196
 8003754:	019a0196 	.word	0x019a0196
 8003758:	01960035 	.word	0x01960035
 800375c:	012d0196 	.word	0x012d0196
 8003760:	00940196 	.word	0x00940196
 8003764:	01960196 	.word	0x01960196
 8003768:	0035      	.short	0x0035
      if (c == 0) {
 800376a:	f04f 0e10 	mov.w	lr, #16
        l = va_arg(ap, unsigned int);
 800376e:	f859 5b04 	ldr.w	r5, [r9], #4
  q = p + MAX_FILLER;
 8003772:	f10d 0317 	add.w	r3, sp, #23
 8003776:	e000      	b.n	800377a <chprintf+0x11a>
  } while ((ll /= radix) != 0);
 8003778:	4663      	mov	r3, ip
    i = (int)(l % radix);
 800377a:	46aa      	mov	sl, r5
 800377c:	fbb5 f5fe 	udiv	r5, r5, lr
 8003780:	fb0e ab15 	mls	fp, lr, r5, sl
    i += '0';
 8003784:	f10b 0230 	add.w	r2, fp, #48	; 0x30
    if (i > '9') {
 8003788:	2a39      	cmp	r2, #57	; 0x39
      i += 'A' - '0' - 10;
 800378a:	bfc8      	it	gt
 800378c:	f10b 0237 	addgt.w	r2, fp, #55	; 0x37
    *--q = i;
 8003790:	b2d2      	uxtb	r2, r2
  } while ((ll /= radix) != 0);
 8003792:	45f2      	cmp	sl, lr
    *--q = i;
 8003794:	f103 3cff 	add.w	ip, r3, #4294967295	; 0xffffffff
 8003798:	f803 2c01 	strb.w	r2, [r3, #-1]
  } while ((ll /= radix) != 0);
 800379c:	d2ec      	bcs.n	8003778 <chprintf+0x118>
  i = (int)(p + MAX_FILLER - q);
 800379e:	f10d 0a0c 	add.w	sl, sp, #12
 80037a2:	f10d 0517 	add.w	r5, sp, #23
 80037a6:	eba5 050c 	sub.w	r5, r5, ip
 80037aa:	46d6      	mov	lr, sl
 80037ac:	f10d 0c17 	add.w	ip, sp, #23
 80037b0:	e001      	b.n	80037b6 <chprintf+0x156>
 80037b2:	f813 2b01 	ldrb.w	r2, [r3], #1
    *p++ = *q++;
 80037b6:	f80e 2b01 	strb.w	r2, [lr], #1
  while (--i);
 80037ba:	4563      	cmp	r3, ip
 80037bc:	d1f9      	bne.n	80037b2 <chprintf+0x152>
 80037be:	1b49      	subs	r1, r1, r5
 80037c0:	3d01      	subs	r5, #1
    if ((width -= i) < 0) {
 80037c2:	ea21 7be1 	bic.w	fp, r1, r1, asr #31
    if (left_align == false) {
 80037c6:	b920      	cbnz	r0, 80037d2 <chprintf+0x172>
    if (width < 0) {
 80037c8:	2900      	cmp	r1, #0
      width = -width;
 80037ca:	f1cb 0b00 	rsb	fp, fp, #0
    if (width < 0) {
 80037ce:	f300 8145 	bgt.w	8003a5c <chprintf+0x3fc>
    while (--i >= 0) {
 80037d2:	2d00      	cmp	r5, #0
 80037d4:	db0f      	blt.n	80037f6 <chprintf+0x196>
 80037d6:	1c6b      	adds	r3, r5, #1
 80037d8:	4453      	add	r3, sl
 80037da:	9401      	str	r4, [sp, #4]
 80037dc:	461c      	mov	r4, r3
      streamPut(chp, (uint8_t)*s++);
 80037de:	683a      	ldr	r2, [r7, #0]
 80037e0:	f81a 1b01 	ldrb.w	r1, [sl], #1
 80037e4:	68d2      	ldr	r2, [r2, #12]
 80037e6:	4638      	mov	r0, r7
 80037e8:	4790      	blx	r2
    while (--i >= 0) {
 80037ea:	45a2      	cmp	sl, r4
 80037ec:	d1f7      	bne.n	80037de <chprintf+0x17e>
 80037ee:	f108 0801 	add.w	r8, r8, #1
 80037f2:	9c01      	ldr	r4, [sp, #4]
 80037f4:	44a8      	add	r8, r5
    while (width) {
 80037f6:	f1bb 0f00 	cmp.w	fp, #0
 80037fa:	f43f af4b 	beq.w	8003694 <chprintf+0x34>
 80037fe:	465d      	mov	r5, fp
      streamPut(chp, (uint8_t)filler);
 8003800:	683b      	ldr	r3, [r7, #0]
 8003802:	4631      	mov	r1, r6
 8003804:	68db      	ldr	r3, [r3, #12]
 8003806:	4638      	mov	r0, r7
 8003808:	4798      	blx	r3
    while (width) {
 800380a:	3d01      	subs	r5, #1
 800380c:	d1f8      	bne.n	8003800 <chprintf+0x1a0>
    c = *fmt++;
 800380e:	4625      	mov	r5, r4
 8003810:	44d8      	add	r8, fp
 8003812:	f815 1b01 	ldrb.w	r1, [r5], #1
    if (c == 0) {
 8003816:	2900      	cmp	r1, #0
 8003818:	f47f af42 	bne.w	80036a0 <chprintf+0x40>
  formatted_bytes = chvprintf(chp, fmt, ap);
  va_end(ap);

  return formatted_bytes;
}
 800381c:	4640      	mov	r0, r8
 800381e:	b006      	add	sp, #24
 8003820:	e8bd 4ff0 	ldmia.w	sp!, {r4, r5, r6, r7, r8, r9, sl, fp, lr}
 8003824:	b003      	add	sp, #12
 8003826:	4770      	bx	lr
      if (c == 0) {
 8003828:	f04f 0e0a 	mov.w	lr, #10
 800382c:	e79f      	b.n	800376e <chprintf+0x10e>
        c = *fmt++;
 800382e:	1c6c      	adds	r4, r5, #1
        if (c == 0) {
 8003830:	2b00      	cmp	r3, #0
 8003832:	d0f3      	beq.n	800381c <chprintf+0x1bc>
      width = 0;
 8003834:	2100      	movs	r1, #0
        if (c >= '0' && c <= '9') {
 8003836:	f1a3 0230 	sub.w	r2, r3, #48	; 0x30
 800383a:	b2d2      	uxtb	r2, r2
 800383c:	2a09      	cmp	r2, #9
          width = width * 10 + c;
 800383e:	eb01 0581 	add.w	r5, r1, r1, lsl #2
        if (c >= '0' && c <= '9') {
 8003842:	f63f af4c 	bhi.w	80036de <chprintf+0x7e>
        c = *fmt++;
 8003846:	f814 3b01 	ldrb.w	r3, [r4], #1
          width = width * 10 + c;
 800384a:	eb02 0145 	add.w	r1, r2, r5, lsl #1
        if (c == 0) {
 800384e:	2b00      	cmp	r3, #0
 8003850:	d1f1      	bne.n	8003836 <chprintf+0x1d6>
 8003852:	e7e3      	b.n	800381c <chprintf+0x1bc>
      c = *fmt++;
 8003854:	f814 3b01 	ldrb.w	r3, [r4], #1
      if (c == 0) {
 8003858:	2b00      	cmp	r3, #0
 800385a:	d0df      	beq.n	800381c <chprintf+0x1bc>
    switch (c) {
 800385c:	f1a3 0544 	sub.w	r5, r3, #68	; 0x44
 8003860:	2d34      	cmp	r5, #52	; 0x34
 8003862:	f200 80e3 	bhi.w	8003a2c <chprintf+0x3cc>
 8003866:	f20f 0c08 	addw	ip, pc, #8
 800386a:	f85c f025 	ldr.w	pc, [ip, r5, lsl #2]
 800386e:	bf00      	nop
 8003870:	080039bd 	.word	0x080039bd
 8003874:	08003a2d 	.word	0x08003a2d
 8003878:	08003a2d 	.word	0x08003a2d
 800387c:	08003a2d 	.word	0x08003a2d
 8003880:	08003a2d 	.word	0x08003a2d
 8003884:	080039bd 	.word	0x080039bd
 8003888:	08003a2d 	.word	0x08003a2d
 800388c:	08003a2d 	.word	0x08003a2d
 8003890:	08003a2d 	.word	0x08003a2d
 8003894:	08003a2d 	.word	0x08003a2d
 8003898:	08003a2d 	.word	0x08003a2d
 800389c:	08003a35 	.word	0x08003a35
 80038a0:	0800376b 	.word	0x0800376b
 80038a4:	08003a2d 	.word	0x08003a2d
 80038a8:	08003a2d 	.word	0x08003a2d
 80038ac:	08003a2d 	.word	0x08003a2d
 80038b0:	08003a2d 	.word	0x08003a2d
 80038b4:	08003829 	.word	0x08003829
 80038b8:	08003a2d 	.word	0x08003a2d
 80038bc:	08003a2d 	.word	0x08003a2d
 80038c0:	0800376b 	.word	0x0800376b
 80038c4:	08003a2d 	.word	0x08003a2d
 80038c8:	08003a2d 	.word	0x08003a2d
 80038cc:	08003a2d 	.word	0x08003a2d
 80038d0:	08003a2d 	.word	0x08003a2d
 80038d4:	08003a2d 	.word	0x08003a2d
 80038d8:	08003a2d 	.word	0x08003a2d
 80038dc:	08003a2d 	.word	0x08003a2d
 80038e0:	08003a2d 	.word	0x08003a2d
 80038e4:	08003a2d 	.word	0x08003a2d
 80038e8:	08003a2d 	.word	0x08003a2d
 80038ec:	0800399b 	.word	0x0800399b
 80038f0:	080039bd 	.word	0x080039bd
 80038f4:	08003a2d 	.word	0x08003a2d
 80038f8:	08003a2d 	.word	0x08003a2d
 80038fc:	08003a2d 	.word	0x08003a2d
 8003900:	08003a2d 	.word	0x08003a2d
 8003904:	080039bd 	.word	0x080039bd
 8003908:	08003a2d 	.word	0x08003a2d
 800390c:	08003a2d 	.word	0x08003a2d
 8003910:	08003a2d 	.word	0x08003a2d
 8003914:	08003a2d 	.word	0x08003a2d
 8003918:	08003a2d 	.word	0x08003a2d
 800391c:	08003a35 	.word	0x08003a35
 8003920:	0800376b 	.word	0x0800376b
 8003924:	08003a2d 	.word	0x08003a2d
 8003928:	08003a2d 	.word	0x08003a2d
 800392c:	0800395b 	.word	0x0800395b
 8003930:	08003a2d 	.word	0x08003a2d
 8003934:	08003829 	.word	0x08003829
 8003938:	08003a2d 	.word	0x08003a2d
 800393c:	08003a2d 	.word	0x08003a2d
 8003940:	0800376b 	.word	0x0800376b
      c = *fmt++;
 8003944:	7823      	ldrb	r3, [r4, #0]
      if (c == 0) {
 8003946:	2b00      	cmp	r3, #0
 8003948:	f43f af68 	beq.w	800381c <chprintf+0x1bc>
      if (c == '*') {
 800394c:	2b2a      	cmp	r3, #42	; 0x2a
 800394e:	d174      	bne.n	8003a3a <chprintf+0x3da>
        c = *fmt++;
 8003950:	7863      	ldrb	r3, [r4, #1]
        precision = va_arg(ap, int);
 8003952:	f859 2b04 	ldr.w	r2, [r9], #4
        c = *fmt++;
 8003956:	3402      	adds	r4, #2
 8003958:	e6c5      	b.n	80036e6 <chprintf+0x86>
      if ((s = va_arg(ap, char *)) == 0) {
 800395a:	f859 ab04 	ldr.w	sl, [r9], #4
 800395e:	f1ba 0f00 	cmp.w	sl, #0
 8003962:	f000 80bc 	beq.w	8003ade <chprintf+0x47e>
 8003966:	f89a 3000 	ldrb.w	r3, [sl]
      if (precision == 0) {
 800396a:	2a00      	cmp	r2, #0
 800396c:	f040 80aa 	bne.w	8003ac4 <chprintf+0x464>
      for (p = s; *p && (--precision >= 0); p++)
 8003970:	2b00      	cmp	r3, #0
 8003972:	f000 80ab 	beq.w	8003acc <chprintf+0x46c>
 8003976:	f647 72fe 	movw	r2, #32766	; 0x7ffe
 800397a:	4655      	mov	r5, sl
 800397c:	e001      	b.n	8003982 <chprintf+0x322>
 800397e:	42d3      	cmn	r3, r2
 8003980:	d405      	bmi.n	800398e <chprintf+0x32e>
 8003982:	f815 6f01 	ldrb.w	r6, [r5, #1]!
 8003986:	ebaa 0305 	sub.w	r3, sl, r5
 800398a:	2e00      	cmp	r6, #0
 800398c:	d1f7      	bne.n	800397e <chprintf+0x31e>
 800398e:	eba5 050a 	sub.w	r5, r5, sl
 8003992:	1b49      	subs	r1, r1, r5
      filler = ' ';
 8003994:	2620      	movs	r6, #32
 8003996:	3d01      	subs	r5, #1
 8003998:	e713      	b.n	80037c2 <chprintf+0x162>
      *p++ = va_arg(ap, int);
 800399a:	f859 3b04 	ldr.w	r3, [r9], #4
 800399e:	f88d 300c 	strb.w	r3, [sp, #12]
      break;
 80039a2:	3901      	subs	r1, #1
      filler = ' ';
 80039a4:	2620      	movs	r6, #32
    if ((width -= i) < 0) {
 80039a6:	ea21 7be1 	bic.w	fp, r1, r1, asr #31
    if (left_align == false) {
 80039aa:	b918      	cbnz	r0, 80039b4 <chprintf+0x354>
    if (width < 0) {
 80039ac:	2900      	cmp	r1, #0
      width = -width;
 80039ae:	f1cb 0b00 	rsb	fp, fp, #0
    if (width < 0) {
 80039b2:	dc72      	bgt.n	8003a9a <chprintf+0x43a>
    if (left_align == false) {
 80039b4:	2500      	movs	r5, #0
 80039b6:	f10d 0a0c 	add.w	sl, sp, #12
 80039ba:	e70c      	b.n	80037d6 <chprintf+0x176>
        l = va_arg(ap, int);
 80039bc:	f859 cb04 	ldr.w	ip, [r9], #4
      if (l < 0) {
 80039c0:	f1bc 0f00 	cmp.w	ip, #0
 80039c4:	db5f      	blt.n	8003a86 <chprintf+0x426>
        if (do_sign) {
 80039c6:	f1be 0f00 	cmp.w	lr, #0
 80039ca:	f000 808e 	beq.w	8003aea <chprintf+0x48a>
          *p++ = '+';
 80039ce:	232b      	movs	r3, #43	; 0x2b
 80039d0:	f88d 300c 	strb.w	r3, [sp, #12]
 80039d4:	f10d 050d 	add.w	r5, sp, #13
 80039d8:	f10d 0a0c 	add.w	sl, sp, #12
  q = p + MAX_FILLER;
 80039dc:	f105 030b 	add.w	r3, r5, #11
 80039e0:	9301      	str	r3, [sp, #4]
 80039e2:	461a      	mov	r2, r3
    i = (int)(l % radix);
 80039e4:	4b47      	ldr	r3, [pc, #284]	; (8003b04 <chprintf+0x4a4>)
 80039e6:	fba3 e30c 	umull	lr, r3, r3, ip
 80039ea:	08db      	lsrs	r3, r3, #3
 80039ec:	eb03 0b83 	add.w	fp, r3, r3, lsl #2
 80039f0:	469e      	mov	lr, r3
 80039f2:	ebac 034b 	sub.w	r3, ip, fp, lsl #1
    i += '0';
 80039f6:	3330      	adds	r3, #48	; 0x30
    i = (int)(l % radix);
 80039f8:	46e3      	mov	fp, ip
    *--q = i;
 80039fa:	b2db      	uxtb	r3, r3
  } while ((ll /= radix) != 0);
 80039fc:	f1bb 0f09 	cmp.w	fp, #9
    *--q = i;
 8003a00:	f802 3d01 	strb.w	r3, [r2, #-1]!
    l /= radix;
 8003a04:	46f4      	mov	ip, lr
  } while ((ll /= radix) != 0);
 8003a06:	dced      	bgt.n	80039e4 <chprintf+0x384>
 8003a08:	469e      	mov	lr, r3
  i = (int)(p + MAX_FILLER - q);
 8003a0a:	9b01      	ldr	r3, [sp, #4]
 8003a0c:	eba3 0c02 	sub.w	ip, r3, r2
 8003a10:	44ac      	add	ip, r5
 8003a12:	4673      	mov	r3, lr
 8003a14:	e001      	b.n	8003a1a <chprintf+0x3ba>
 8003a16:	f812 3f01 	ldrb.w	r3, [r2, #1]!
    *p++ = *q++;
 8003a1a:	f805 3b01 	strb.w	r3, [r5], #1
  while (--i);
 8003a1e:	4565      	cmp	r5, ip
 8003a20:	d1f9      	bne.n	8003a16 <chprintf+0x3b6>
 8003a22:	eba5 050a 	sub.w	r5, r5, sl
 8003a26:	1b49      	subs	r1, r1, r5
 8003a28:	3d01      	subs	r5, #1
 8003a2a:	e6ca      	b.n	80037c2 <chprintf+0x162>
      *p++ = c;
 8003a2c:	f88d 300c 	strb.w	r3, [sp, #12]
      break;
 8003a30:	3901      	subs	r1, #1
 8003a32:	e7b8      	b.n	80039a6 <chprintf+0x346>
      if (c == 0) {
 8003a34:	f04f 0e08 	mov.w	lr, #8
 8003a38:	e699      	b.n	800376e <chprintf+0x10e>
      c = *fmt++;
 8003a3a:	3401      	adds	r4, #1
    precision = 0;
 8003a3c:	2200      	movs	r2, #0
        while (c >= '0' && c <= '9') {
 8003a3e:	f1a3 0530 	sub.w	r5, r3, #48	; 0x30
 8003a42:	b2ed      	uxtb	r5, r5
 8003a44:	2d09      	cmp	r5, #9
          precision = precision * 10 + c;
 8003a46:	eb02 0c82 	add.w	ip, r2, r2, lsl #2
        while (c >= '0' && c <= '9') {
 8003a4a:	f63f ae4c 	bhi.w	80036e6 <chprintf+0x86>
          c = *fmt++;
 8003a4e:	f814 3b01 	ldrb.w	r3, [r4], #1
          precision = precision * 10 + c;
 8003a52:	eb05 024c 	add.w	r2, r5, ip, lsl #1
          if (c == 0) {
 8003a56:	2b00      	cmp	r3, #0
 8003a58:	d1f1      	bne.n	8003a3e <chprintf+0x3de>
 8003a5a:	e6df      	b.n	800381c <chprintf+0x1bc>
      width = -width;
 8003a5c:	f8cd b004 	str.w	fp, [sp, #4]
      if (*s == '-' && filler == '0') {
 8003a60:	f89a 1000 	ldrb.w	r1, [sl]
 8003a64:	292d      	cmp	r1, #45	; 0x2d
 8003a66:	d021      	beq.n	8003aac <chprintf+0x44c>
        streamPut(chp, (uint8_t)filler);
 8003a68:	683b      	ldr	r3, [r7, #0]
 8003a6a:	4631      	mov	r1, r6
 8003a6c:	68db      	ldr	r3, [r3, #12]
 8003a6e:	4638      	mov	r0, r7
 8003a70:	4798      	blx	r3
      } while (++width != 0);
 8003a72:	f11b 0b01 	adds.w	fp, fp, #1
 8003a76:	d1f7      	bne.n	8003a68 <chprintf+0x408>
 8003a78:	9b01      	ldr	r3, [sp, #4]
    while (--i >= 0) {
 8003a7a:	2d00      	cmp	r5, #0
 8003a7c:	eba8 0803 	sub.w	r8, r8, r3
 8003a80:	f6bf aea9 	bge.w	80037d6 <chprintf+0x176>
 8003a84:	e606      	b.n	8003694 <chprintf+0x34>
        *p++ = '-';
 8003a86:	232d      	movs	r3, #45	; 0x2d
        l = -l;
 8003a88:	f1cc 0c00 	rsb	ip, ip, #0
        *p++ = '-';
 8003a8c:	f88d 300c 	strb.w	r3, [sp, #12]
 8003a90:	f10d 050d 	add.w	r5, sp, #13
 8003a94:	f10d 0a0c 	add.w	sl, sp, #12
 8003a98:	e7a0      	b.n	80039dc <chprintf+0x37c>
      if (*s == '-' && filler == '0') {
 8003a9a:	f89d 100c 	ldrb.w	r1, [sp, #12]
      width = -width;
 8003a9e:	f8cd b004 	str.w	fp, [sp, #4]
      if (*s == '-' && filler == '0') {
 8003aa2:	292d      	cmp	r1, #45	; 0x2d
    if (width < 0) {
 8003aa4:	f10d 0a0c 	add.w	sl, sp, #12
 8003aa8:	4605      	mov	r5, r0
      if (*s == '-' && filler == '0') {
 8003aaa:	d1dd      	bne.n	8003a68 <chprintf+0x408>
 8003aac:	2e30      	cmp	r6, #48	; 0x30
 8003aae:	d1db      	bne.n	8003a68 <chprintf+0x408>
        streamPut(chp, (uint8_t)*s++);
 8003ab0:	683a      	ldr	r2, [r7, #0]
 8003ab2:	4638      	mov	r0, r7
 8003ab4:	68d2      	ldr	r2, [r2, #12]
 8003ab6:	4790      	blx	r2
 8003ab8:	f10a 0a01 	add.w	sl, sl, #1
        n++;
 8003abc:	f108 0801 	add.w	r8, r8, #1
        i--;
 8003ac0:	3d01      	subs	r5, #1
 8003ac2:	e7d1      	b.n	8003a68 <chprintf+0x408>
      for (p = s; *p && (--precision >= 0); p++)
 8003ac4:	b113      	cbz	r3, 8003acc <chprintf+0x46c>
 8003ac6:	3a01      	subs	r2, #1
 8003ac8:	f57f af57 	bpl.w	800397a <chprintf+0x31a>
    if ((width -= i) < 0) {
 8003acc:	ea21 7be1 	bic.w	fp, r1, r1, asr #31
    if (left_align == false) {
 8003ad0:	b918      	cbnz	r0, 8003ada <chprintf+0x47a>
    if (width < 0) {
 8003ad2:	2900      	cmp	r1, #0
      width = -width;
 8003ad4:	f1cb 0b00 	rsb	fp, fp, #0
    if (width < 0) {
 8003ad8:	dc0d      	bgt.n	8003af6 <chprintf+0x496>
    if (left_align == false) {
 8003ada:	2620      	movs	r6, #32
 8003adc:	e68b      	b.n	80037f6 <chprintf+0x196>
        s = "(null)";
 8003ade:	f8df a028 	ldr.w	sl, [pc, #40]	; 8003b08 <chprintf+0x4a8>
      if (precision == 0) {
 8003ae2:	2a00      	cmp	r2, #0
 8003ae4:	f43f af47 	beq.w	8003976 <chprintf+0x316>
 8003ae8:	e7ed      	b.n	8003ac6 <chprintf+0x466>
    p = tmpbuf;
 8003aea:	f10d 0a0c 	add.w	sl, sp, #12
 8003aee:	4655      	mov	r5, sl
 8003af0:	e774      	b.n	80039dc <chprintf+0x37c>
  int n = 0;
 8003af2:	4688      	mov	r8, r1
  return formatted_bytes;
 8003af4:	e692      	b.n	800381c <chprintf+0x1bc>
      width = -width;
 8003af6:	f8cd b004 	str.w	fp, [sp, #4]
    if (width < 0) {
 8003afa:	2620      	movs	r6, #32
 8003afc:	f04f 35ff 	mov.w	r5, #4294967295	; 0xffffffff
 8003b00:	e7ae      	b.n	8003a60 <chprintf+0x400>
 8003b02:	bf00      	nop
 8003b04:	cccccccd 	.word	0xcccccccd
 8003b08:	0800651c 	.word	0x0800651c
 8003b0c:	00000000 	.word	0x00000000

08003b10 <Thread1>:
static THD_FUNCTION(Thread1, arg) {
 8003b10:	e92d 4880 	stmdb	sp!, {r7, fp, lr}
 * @api
 */
static inline void chRegSetThreadName(const char *name) {

#if CH_CFG_USE_REGISTRY == TRUE
  ch.rlist.current->name = name;
 8003b14:	4b38      	ldr	r3, [pc, #224]	; (8003bf8 <Thread1+0xe8>)
 8003b16:	4a39      	ldr	r2, [pc, #228]	; (8003bfc <Thread1+0xec>)
 8003b18:	695b      	ldr	r3, [r3, #20]
 8003b1a:	4f39      	ldr	r7, [pc, #228]	; (8003c00 <Thread1+0xf0>)
 8003b1c:	4e39      	ldr	r6, [pc, #228]	; (8003c04 <Thread1+0xf4>)
    palClearPad(GPIOC, 13);
 8003b1e:	4d3a      	ldr	r5, [pc, #232]	; (8003c08 <Thread1+0xf8>)
  baudf = (CLOCKFREQ/time);
 8003b20:	f8df b0f0 	ldr.w	fp, [pc, #240]	; 8003c14 <Thread1+0x104>
 8003b24:	619a      	str	r2, [r3, #24]
static THD_FUNCTION(Thread1, arg) {
 8003b26:	b08d      	sub	sp, #52	; 0x34
    palClearPad(GPIOC, 13);
 8003b28:	f44f 5900 	mov.w	r9, #8192	; 0x2000
 8003b2c:	46ca      	mov	sl, r9
    time = serusbcfg1.usbp->state == USB_ACTIVE ? 250 : 500;
 8003b2e:	783b      	ldrb	r3, [r7, #0]
    palClearPad(GPIOC, 13);
 8003b30:	f8a5 a01a 	strh.w	sl, [r5, #26]
    time = serusbcfg1.usbp->state == USB_ACTIVE ? 250 : 500;
 8003b34:	f241 3088 	movw	r0, #5000	; 0x1388
 8003b38:	f640 14c4 	movw	r4, #2500	; 0x9c4
 8003b3c:	2b04      	cmp	r3, #4
 8003b3e:	bf18      	it	ne
 8003b40:	4604      	movne	r4, r0
    chThdSleepMilliseconds(time);
 8003b42:	4620      	mov	r0, r4
 8003b44:	f7fe ffac 	bl	8002aa0 <chThdSleep>
    chThdSleepMilliseconds(time);
 8003b48:	4620      	mov	r0, r4
    palSetPad(GPIOC, 13);
 8003b4a:	f8a5 9018 	strh.w	r9, [r5, #24]
    chThdSleepMilliseconds(time);
 8003b4e:	f7fe ffa7 	bl	8002aa0 <chThdSleep>
    if (smallest_pulse < 65535){
 8003b52:	6833      	ldr	r3, [r6, #0]
 8003b54:	f64f 72fe 	movw	r2, #65534	; 0xfffe
 8003b58:	4293      	cmp	r3, r2
 8003b5a:	d8e8      	bhi.n	8003b2e <Thread1+0x1e>
  uint32_t sbr[] = {150,300,600,1200,2400,4800,9600,19200,38400,57600,115200,230400};
 8003b5c:	f8df c0b8 	ldr.w	ip, [pc, #184]	; 8003c18 <Thread1+0x108>
 8003b60:	4698      	mov	r8, r3
 8003b62:	e8bc 000f 	ldmia.w	ip!, {r0, r1, r2, r3}
 8003b66:	466c      	mov	r4, sp
 8003b68:	c40f      	stmia	r4!, {r0, r1, r2, r3}
 8003b6a:	e8bc 000f 	ldmia.w	ip!, {r0, r1, r2, r3}
 8003b6e:	c40f      	stmia	r4!, {r0, r1, r2, r3}
 8003b70:	e89c 000f 	ldmia.w	ip, {r0, r1, r2, r3}
 8003b74:	e884 000f 	stmia.w	r4, {r0, r1, r2, r3}
  if (time == 0)
 8003b78:	f1b8 0f00 	cmp.w	r8, #0
 8003b7c:	d026      	beq.n	8003bcc <Thread1+0xbc>
  baudf = (CLOCKFREQ/time);
 8003b7e:	fbbb f8f8 	udiv	r8, fp, r8
 8003b82:	4640      	mov	r0, r8
 8003b84:	f7fc ff8c 	bl	8000aa0 <__aeabi_ui2d>
  baudu = (uint32_t)(baudf * 1.09); // Window is +- 9%
 8003b88:	a319      	add	r3, pc, #100	; (adr r3, 8003bf0 <Thread1+0xe0>)
 8003b8a:	e9d3 2300 	ldrd	r2, r3, [r3]
  baudf = (CLOCKFREQ/time);
 8003b8e:	4681      	mov	r9, r0
 8003b90:	468a      	mov	sl, r1
  baudu = (uint32_t)(baudf * 1.09); // Window is +- 9%
 8003b92:	f7fc ffff 	bl	8000b94 <__aeabi_dmul>
 8003b96:	f7fd fa0f 	bl	8000fb8 <__aeabi_d2uiz>
  if (baudu < sbr[0])
 8003b9a:	2895      	cmp	r0, #149	; 0x95
  baudu = (uint32_t)(baudf * 1.09); // Window is +- 9%
 8003b9c:	4604      	mov	r4, r0
  if (baudu < sbr[0])
 8003b9e:	d91e      	bls.n	8003bde <Thread1+0xce>
  baudl = (uint32_t)(baudf / 1.09); // Window is +- 9%
 8003ba0:	a313      	add	r3, pc, #76	; (adr r3, 8003bf0 <Thread1+0xe0>)
 8003ba2:	e9d3 2300 	ldrd	r2, r3, [r3]
 8003ba6:	4648      	mov	r0, r9
 8003ba8:	4651      	mov	r1, sl
 8003baa:	f7fd f91d 	bl	8000de8 <__aeabi_ddiv>
 8003bae:	f7fd fa03 	bl	8000fb8 <__aeabi_d2uiz>
  if (baudl > sbr[11])
 8003bb2:	f5b0 3f61 	cmp.w	r0, #230400	; 0x38400
 8003bb6:	d815      	bhi.n	8003be4 <Thread1+0xd4>
 8003bb8:	466b      	mov	r3, sp
 8003bba:	a90c      	add	r1, sp, #48	; 0x30
    if ((baudl < sbr[idx]) && (baudu > sbr[idx]))
 8003bbc:	f853 2b04 	ldr.w	r2, [r3], #4
 8003bc0:	4290      	cmp	r0, r2
 8003bc2:	d201      	bcs.n	8003bc8 <Thread1+0xb8>
 8003bc4:	4294      	cmp	r4, r2
 8003bc6:	d810      	bhi.n	8003bea <Thread1+0xda>
  for (idx = 0;idx < 12; idx++){
 8003bc8:	4299      	cmp	r1, r3
 8003bca:	d1f7      	bne.n	8003bbc <Thread1+0xac>
      chprintf(dbg, "Baud: %d \r\n", calc_baud(smallest_pulse));
 8003bcc:	490f      	ldr	r1, [pc, #60]	; (8003c0c <Thread1+0xfc>)
 8003bce:	4810      	ldr	r0, [pc, #64]	; (8003c10 <Thread1+0x100>)
 8003bd0:	4642      	mov	r2, r8
 8003bd2:	f7ff fd45 	bl	8003660 <chprintf>
      smallest_pulse = 0xFFFF;
 8003bd6:	f64f 73ff 	movw	r3, #65535	; 0xffff
 8003bda:	6033      	str	r3, [r6, #0]
 8003bdc:	e7a4      	b.n	8003b28 <Thread1+0x18>
    return 0;
 8003bde:	f04f 0800 	mov.w	r8, #0
 8003be2:	e7f3      	b.n	8003bcc <Thread1+0xbc>
    return 0xFFFFFFFF;
 8003be4:	f04f 38ff 	mov.w	r8, #4294967295	; 0xffffffff
 8003be8:	e7f0      	b.n	8003bcc <Thread1+0xbc>
    if ((baudl < sbr[idx]) && (baudu > sbr[idx]))
 8003bea:	4690      	mov	r8, r2
 8003bec:	e7ee      	b.n	8003bcc <Thread1+0xbc>
 8003bee:	bf00      	nop
 8003bf0:	d70a3d71 	.word	0xd70a3d71
 8003bf4:	3ff170a3 	.word	0x3ff170a3
 8003bf8:	2000189c 	.word	0x2000189c
 8003bfc:	08006524 	.word	0x08006524
 8003c00:	2000183c 	.word	0x2000183c
 8003c04:	20000838 	.word	0x20000838
 8003c08:	40020800 	.word	0x40020800
 8003c0c:	0800652c 	.word	0x0800652c
 8003c10:	200013ac 	.word	0x200013ac
 8003c14:	00989680 	.word	0x00989680
 8003c18:	080064e0 	.word	0x080064e0
 8003c1c:	00000000 	.word	0x00000000

08003c20 <got_char>:
  if (oldcnt > BUFFMSK) oldcnt = (oldcnt & BUFFMSK);
  dump_in_progress = 0;
  //chprintf(dbg, "CNT: %d, OLD: %d\r\n", ldat_cnt, oldcnt);
}

void got_char(uint8_t c, uint8_t src){
 8003c20:	b5f8      	push	{r3, r4, r5, r6, r7, lr}
 8003c22:	4607      	mov	r7, r0
 8003c24:	460d      	mov	r5, r1
 8003c26:	2320      	movs	r3, #32
 8003c28:	f383 8811 	msr	BASEPRI, r3
  return (systime_t)STM32_ST_TIM->CNT;
 8003c2c:	4a18      	ldr	r2, [pc, #96]	; (8003c90 <got_char+0x70>)
 8003c2e:	2300      	movs	r3, #0
 8003c30:	6a52      	ldr	r2, [r2, #36]	; 0x24
 8003c32:	f383 8811 	msr	BASEPRI, r3
  //int32_t temp;
  //temp = ldat_cnt-1; // last entry
  last_received_char = TIME_I2MS(chVTGetSystemTime());
 8003c36:	f44f 737a 	mov.w	r3, #1000	; 0x3e8
  ldat[ldat_cnt & BUFFMSK].lastchar = c;
 8003c3a:	4c16      	ldr	r4, [pc, #88]	; (8003c94 <got_char+0x74>)
  last_received_char = TIME_I2MS(chVTGetSystemTime());
 8003c3c:	4e16      	ldr	r6, [pc, #88]	; (8003c98 <got_char+0x78>)
 8003c3e:	f242 700f 	movw	r0, #9999	; 0x270f
 8003c42:	2100      	movs	r1, #0
 8003c44:	fbe3 0102 	umlal	r0, r1, r3, r2
 8003c48:	f242 7210 	movw	r2, #10000	; 0x2710
 8003c4c:	2300      	movs	r3, #0
 8003c4e:	f7fd f9d3 	bl	8000ff8 <__aeabi_uldivmod>
  ldat[ldat_cnt & BUFFMSK].lastchar = c;
 8003c52:	6823      	ldr	r3, [r4, #0]
 8003c54:	4a11      	ldr	r2, [pc, #68]	; (8003c9c <got_char+0x7c>)
  last_received_char = TIME_I2MS(chVTGetSystemTime());
 8003c56:	6030      	str	r0, [r6, #0]
  ldat[ldat_cnt & BUFFMSK].lastchar = c;
 8003c58:	f3c3 0109 	ubfx	r1, r3, #0, #10
 8003c5c:	f802 7031 	strb.w	r7, [r2, r1, lsl #3]
  ldat[ldat_cnt & BUFFMSK].src = src;
 8003c60:	eb02 02c1 	add.w	r2, r2, r1, lsl #3
 8003c64:	7055      	strb	r5, [r2, #1]
  ldat[ldat_cnt & BUFFMSK].timestamp = last_received_char;
 8003c66:	6050      	str	r0, [r2, #4]
  if (ldat_cnt == 0){
 8003c68:	b123      	cbz	r3, 8003c74 <got_char+0x54>
    chprintf(dbg, "\r\n------------------------- START HERE ------------------------------\r\n");
    firstchar = last_received_char; // very first character
  } 
  ldat_cnt = ((ldat_cnt + 1)  & BUFFMSK) ;
 8003c6a:	3301      	adds	r3, #1
 8003c6c:	f3c3 0309 	ubfx	r3, r3, #0, #10
 8003c70:	6023      	str	r3, [r4, #0]
}
 8003c72:	bdf8      	pop	{r3, r4, r5, r6, r7, pc}
    chprintf(dbg, "\r\n------------------------- START HERE ------------------------------\r\n");
 8003c74:	490a      	ldr	r1, [pc, #40]	; (8003ca0 <got_char+0x80>)
 8003c76:	480b      	ldr	r0, [pc, #44]	; (8003ca4 <got_char+0x84>)
 8003c78:	f7ff fcf2 	bl	8003660 <chprintf>
    firstchar = last_received_char; // very first character
 8003c7c:	6823      	ldr	r3, [r4, #0]
 8003c7e:	4a0a      	ldr	r2, [pc, #40]	; (8003ca8 <got_char+0x88>)
 8003c80:	6831      	ldr	r1, [r6, #0]
 8003c82:	6011      	str	r1, [r2, #0]
  ldat_cnt = ((ldat_cnt + 1)  & BUFFMSK) ;
 8003c84:	3301      	adds	r3, #1
 8003c86:	f3c3 0309 	ubfx	r3, r3, #0, #10
 8003c8a:	6023      	str	r3, [r4, #0]
}
 8003c8c:	bdf8      	pop	{r3, r4, r5, r6, r7, pc}
 8003c8e:	bf00      	nop
 8003c90:	40000c00 	.word	0x40000c00
 8003c94:	20003cbc 	.word	0x20003cbc
 8003c98:	20001cb4 	.word	0x20001cb4
 8003c9c:	20001cbc 	.word	0x20001cbc
 8003ca0:	08006538 	.word	0x08006538
 8003ca4:	200013ac 	.word	0x200013ac
 8003ca8:	20001ab0 	.word	0x20001ab0
 8003cac:	00000000 	.word	0x00000000

08003cb0 <Listener1>:

static THD_WORKING_AREA(waListener1, 512);
static THD_FUNCTION(Listener1, arg) {
 8003cb0:	b500      	push	{lr}
 8003cb2:	4b0a      	ldr	r3, [pc, #40]	; (8003cdc <Listener1+0x2c>)
 8003cb4:	4a0a      	ldr	r2, [pc, #40]	; (8003ce0 <Listener1+0x30>)
 8003cb6:	695b      	ldr	r3, [r3, #20]

  (void)arg;
  uint8_t c;
  chRegSetThreadName("listener1");
  while (true) {
    sdRead(&SD1, (uint8_t *)&c, 1);
 8003cb8:	4c0a      	ldr	r4, [pc, #40]	; (8003ce4 <Listener1+0x34>)
 8003cba:	619a      	str	r2, [r3, #24]
static THD_FUNCTION(Listener1, arg) {
 8003cbc:	b083      	sub	sp, #12
    sdRead(&SD1, (uint8_t *)&c, 1);
 8003cbe:	f10d 0107 	add.w	r1, sp, #7
 8003cc2:	f04f 33ff 	mov.w	r3, #4294967295	; 0xffffffff
 8003cc6:	2201      	movs	r2, #1
 8003cc8:	4620      	mov	r0, r4
 8003cca:	f7ff fb21 	bl	8003310 <iqReadTimeout>
    //chprintf(dbg, "1: %c\r\n", c);
    got_char(c, 1);
 8003cce:	f89d 0007 	ldrb.w	r0, [sp, #7]
 8003cd2:	2101      	movs	r1, #1
 8003cd4:	f7ff ffa4 	bl	8003c20 <got_char>
  while (true) {
 8003cd8:	e7f1      	b.n	8003cbe <Listener1+0xe>
 8003cda:	bf00      	nop
 8003cdc:	2000189c 	.word	0x2000189c
 8003ce0:	08006580 	.word	0x08006580
 8003ce4:	20000ca4 	.word	0x20000ca4
	...

08003cf0 <Listener2>:
  }
  chThdSleepMilliseconds(10);
}
static THD_WORKING_AREA(waListener2, 512);
static THD_FUNCTION(Listener2, arg) {
 8003cf0:	b500      	push	{lr}
 8003cf2:	4b0a      	ldr	r3, [pc, #40]	; (8003d1c <Listener2+0x2c>)
 8003cf4:	4a0a      	ldr	r2, [pc, #40]	; (8003d20 <Listener2+0x30>)
 8003cf6:	695b      	ldr	r3, [r3, #20]

  (void)arg;
  uint8_t c;
  chRegSetThreadName("listener2");
  while (true) {
    sdRead(&SD2, (uint8_t *)&c, 1);
 8003cf8:	4c0a      	ldr	r4, [pc, #40]	; (8003d24 <Listener2+0x34>)
 8003cfa:	619a      	str	r2, [r3, #24]
static THD_FUNCTION(Listener2, arg) {
 8003cfc:	b083      	sub	sp, #12
    sdRead(&SD2, (uint8_t *)&c, 1);
 8003cfe:	f10d 0107 	add.w	r1, sp, #7
 8003d02:	f04f 33ff 	mov.w	r3, #4294967295	; 0xffffffff
 8003d06:	2201      	movs	r2, #1
 8003d08:	4620      	mov	r0, r4
 8003d0a:	f7ff fb01 	bl	8003310 <iqReadTimeout>
    //chprintf(dbg, "2: %c\r\n", c);
    got_char(c, 2);
 8003d0e:	f89d 0007 	ldrb.w	r0, [sp, #7]
 8003d12:	2102      	movs	r1, #2
 8003d14:	f7ff ff84 	bl	8003c20 <got_char>
  while (true) {
 8003d18:	e7f1      	b.n	8003cfe <Listener2+0xe>
 8003d1a:	bf00      	nop
 8003d1c:	2000189c 	.word	0x2000189c
 8003d20:	0800658c 	.word	0x0800658c
 8003d24:	20000f00 	.word	0x20000f00
	...

08003d30 <Listener3>:
 8003d30:	4bbd      	ldr	r3, [pc, #756]	; (8004028 <Listener3+0x2f8>)
 8003d32:	4abe      	ldr	r2, [pc, #760]	; (800402c <Listener3+0x2fc>)
 8003d34:	695b      	ldr	r3, [r3, #20]
 8003d36:	f8df a340 	ldr.w	sl, [pc, #832]	; 8004078 <Listener3+0x348>
  chprintf(dbg, "%d->%d cnt: %d \r\n", src, (src==1?2:1), cnt);
 8003d3a:	4ebd      	ldr	r6, [pc, #756]	; (8004030 <Listener3+0x300>)
  }
  chThdSleepMilliseconds(10);
}
static THD_WORKING_AREA(waListener3, 128);
static THD_FUNCTION(Listener3, arg) {
 8003d3c:	e92d 4880 	stmdb	sp!, {r7, fp, lr}
 8003d40:	619a      	str	r2, [r3, #24]

  (void)arg;
  static uint8_t disable = 0;
  chRegSetThreadName("listener3");
  while (true) {
    if (palReadPad(GPIOA, 0) == PAL_LOW){
 8003d42:	4bbc      	ldr	r3, [pc, #752]	; (8004034 <Listener3+0x304>)
 8003d44:	f8df b334 	ldr.w	fp, [pc, #820]	; 800407c <Listener3+0x34c>
 8003d48:	691b      	ldr	r3, [r3, #16]
 8003d4a:	07d9      	lsls	r1, r3, #31
static THD_FUNCTION(Listener3, arg) {
 8003d4c:	b085      	sub	sp, #20
    if (palReadPad(GPIOA, 0) == PAL_LOW){
 8003d4e:	d44a      	bmi.n	8003de6 <Listener3+0xb6>
      if (disable == 0){
 8003d50:	4bb9      	ldr	r3, [pc, #740]	; (8004038 <Listener3+0x308>)
 8003d52:	781b      	ldrb	r3, [r3, #0]
 8003d54:	2b00      	cmp	r3, #0
 8003d56:	d04a      	beq.n	8003dee <Listener3+0xbe>
      }
    }
    else{
      disable = 0;
    }
    if (dump_in_progress == 0)
 8003d58:	4bb8      	ldr	r3, [pc, #736]	; (800403c <Listener3+0x30c>)
 8003d5a:	781b      	ldrb	r3, [r3, #0]
 8003d5c:	2b00      	cmp	r3, #0
 8003d5e:	d13a      	bne.n	8003dd6 <Listener3+0xa6>
  if (ldat_cnt == oldcnt) return;
 8003d60:	4bb7      	ldr	r3, [pc, #732]	; (8004040 <Listener3+0x310>)
  src = ldat[oldcnt & BUFFMSK].src;
 8003d62:	f8da 5000 	ldr.w	r5, [sl]
  if (ldat_cnt == oldcnt) return;
 8003d66:	681a      	ldr	r2, [r3, #0]
 8003d68:	4295      	cmp	r5, r2
  src = ldat[oldcnt & BUFFMSK].src;
 8003d6a:	f3c5 0309 	ubfx	r3, r5, #0, #10
  if (ldat_cnt == oldcnt) return;
 8003d6e:	d032      	beq.n	8003dd6 <Listener3+0xa6>
  src = ldat[oldcnt & BUFFMSK].src;
 8003d70:	eb0b 03c3 	add.w	r3, fp, r3, lsl #3
 8003d74:	f893 8001 	ldrb.w	r8, [r3, #1]
  if (ldat[oldcnt & BUFFMSK].src == 0) return -2;
 8003d78:	f1b8 0f00 	cmp.w	r8, #0
 8003d7c:	d02b      	beq.n	8003dd6 <Listener3+0xa6>
 8003d7e:	4642      	mov	r2, r8
 8003d80:	462b      	mov	r3, r5
    next = ldat[(i+1) & BUFFMSK].src;
 8003d82:	461c      	mov	r4, r3
 8003d84:	3301      	adds	r3, #1
 8003d86:	f3c3 0109 	ubfx	r1, r3, #0, #10
 8003d8a:	eb0b 01c1 	add.w	r1, fp, r1, lsl #3
 8003d8e:	4610      	mov	r0, r2
 8003d90:	784a      	ldrb	r2, [r1, #1]
    if (src != next){ // we have a change in source
 8003d92:	4282      	cmp	r2, r0
 8003d94:	d0f5      	beq.n	8003d82 <Listener3+0x52>
      if (next == 0) return -1; // block not finished
 8003d96:	2a00      	cmp	r2, #0
 8003d98:	f000 811e 	beq.w	8003fd8 <Listener3+0x2a8>
      else return (i - oldcnt + 1); // block is finished
 8003d9c:	f1c5 0301 	rsb	r3, r5, #1
 8003da0:	441c      	add	r4, r3
  if (temp == -2) return; // no data
 8003da2:	1ca2      	adds	r2, r4, #2
 8003da4:	d017      	beq.n	8003dd6 <Listener3+0xa6>
  if (temp == -1){
 8003da6:	1c63      	adds	r3, r4, #1
 8003da8:	f000 8116 	beq.w	8003fd8 <Listener3+0x2a8>
  switch(dump_format){
 8003dac:	4ba5      	ldr	r3, [pc, #660]	; (8004044 <Listener3+0x314>)
 8003dae:	781f      	ldrb	r7, [r3, #0]
 8003db0:	2f01      	cmp	r7, #1
 8003db2:	f000 80d2 	beq.w	8003f5a <Listener3+0x22a>
 8003db6:	2f02      	cmp	r7, #2
 8003db8:	d06c      	beq.n	8003e94 <Listener3+0x164>
 8003dba:	b307      	cbz	r7, 8003dfe <Listener3+0xce>
 8003dbc:	462c      	mov	r4, r5
  if (oldcnt > BUFFMSK) oldcnt = (oldcnt & BUFFMSK);
 8003dbe:	f5b4 6f80 	cmp.w	r4, #1024	; 0x400
  dump_in_progress = 0;
 8003dc2:	4a9e      	ldr	r2, [pc, #632]	; (800403c <Listener3+0x30c>)
  if (oldcnt > BUFFMSK) oldcnt = (oldcnt & BUFFMSK);
 8003dc4:	bf28      	it	cs
 8003dc6:	f3c4 0409 	ubfxcs	r4, r4, #0, #10
  dump_in_progress = 0;
 8003dca:	f04f 0300 	mov.w	r3, #0
  if (oldcnt > BUFFMSK) oldcnt = (oldcnt & BUFFMSK);
 8003dce:	bf28      	it	cs
 8003dd0:	f8ca 4000 	strcs.w	r4, [sl]
  dump_in_progress = 0;
 8003dd4:	7013      	strb	r3, [r2, #0]
      check_data();
    chThdSleepMilliseconds(50);
 8003dd6:	f44f 70fa 	mov.w	r0, #500	; 0x1f4
 8003dda:	f7fe fe61 	bl	8002aa0 <chThdSleep>
    if (palReadPad(GPIOA, 0) == PAL_LOW){
 8003dde:	4b95      	ldr	r3, [pc, #596]	; (8004034 <Listener3+0x304>)
 8003de0:	691b      	ldr	r3, [r3, #16]
 8003de2:	07d9      	lsls	r1, r3, #31
 8003de4:	d5b4      	bpl.n	8003d50 <Listener3+0x20>
      disable = 0;
 8003de6:	4a94      	ldr	r2, [pc, #592]	; (8004038 <Listener3+0x308>)
 8003de8:	2300      	movs	r3, #0
 8003dea:	7013      	strb	r3, [r2, #0]
 8003dec:	e7b4      	b.n	8003d58 <Listener3+0x28>
        got_char(' ', 3);
 8003dee:	2103      	movs	r1, #3
 8003df0:	2020      	movs	r0, #32
 8003df2:	f7ff ff15 	bl	8003c20 <got_char>
        disable = 1;
 8003df6:	4a90      	ldr	r2, [pc, #576]	; (8004038 <Listener3+0x308>)
 8003df8:	2301      	movs	r3, #1
 8003dfa:	7013      	strb	r3, [r2, #0]
 8003dfc:	e7ac      	b.n	8003d58 <Listener3+0x28>
  if (src == 3){
 8003dfe:	f1b8 0f03 	cmp.w	r8, #3
    chprintf(dbg, "------------------ BREAK @ T: %06d\r\n", tm);
 8003e02:	bf08      	it	eq
 8003e04:	2200      	moveq	r2, #0
  if (src == 3){
 8003e06:	f000 8109 	beq.w	800401c <Listener3+0x2ec>
  chprintf(dbg, "%d->%d cnt: %d \r\n", src, (src==1?2:1), cnt);
 8003e0a:	f1b8 0f01 	cmp.w	r8, #1
 8003e0e:	bf0c      	ite	eq
 8003e10:	2302      	moveq	r3, #2
 8003e12:	2301      	movne	r3, #1
 8003e14:	498c      	ldr	r1, [pc, #560]	; (8004048 <Listener3+0x318>)
 8003e16:	9400      	str	r4, [sp, #0]
 8003e18:	4642      	mov	r2, r8
 8003e1a:	4630      	mov	r0, r6
 8003e1c:	f7ff fc20 	bl	8003660 <chprintf>
  for (i=0;i<cnt;i++){ // go through all the characters
 8003e20:	b33c      	cbz	r4, 8003e72 <Listener3+0x142>
      chprintf(dbg, "%02X T: %06d dT: ----\r\n", ch, tm);
 8003e22:	f8df 925c 	ldr.w	r9, [pc, #604]	; 8004080 <Listener3+0x350>
      chprintf(dbg, "%02X T: %06d dT: %04d\r\n", ch, tm, dt);
 8003e26:	f8df 825c 	ldr.w	r8, [pc, #604]	; 8004084 <Listener3+0x354>
 8003e2a:	e00a      	b.n	8003e42 <Listener3+0x112>
    dt = ldat[idx].timestamp - ldat[(idx-1)].timestamp; // time difference 
 8003e2c:	f85c cc04 	ldr.w	ip, [ip, #-4]
 8003e30:	ebae 0e0c 	sub.w	lr, lr, ip
      chprintf(dbg, "%02X T: %06d dT: %04d\r\n", ch, tm, dt);
 8003e34:	f8cd e000 	str.w	lr, [sp]
  for (i=0;i<cnt;i++){ // go through all the characters
 8003e38:	3701      	adds	r7, #1
      chprintf(dbg, "%02X T: %06d dT: %04d\r\n", ch, tm, dt);
 8003e3a:	f7ff fc11 	bl	8003660 <chprintf>
  for (i=0;i<cnt;i++){ // go through all the characters
 8003e3e:	42bc      	cmp	r4, r7
 8003e40:	d017      	beq.n	8003e72 <Listener3+0x142>
    idx = (i+oldcnt) & BUFFMSK;
 8003e42:	f8da 2000 	ldr.w	r2, [sl]
    tm = ldat[idx].timestamp - firstchar; // tm starts at zero
 8003e46:	4b81      	ldr	r3, [pc, #516]	; (800404c <Listener3+0x31c>)
    idx = (i+oldcnt) & BUFFMSK;
 8003e48:	443a      	add	r2, r7
 8003e4a:	f3c2 0209 	ubfx	r2, r2, #0, #10
    dt = ldat[idx].timestamp - ldat[(idx-1)].timestamp; // time difference 
 8003e4e:	eb0b 0cc2 	add.w	ip, fp, r2, lsl #3
    tm = ldat[idx].timestamp - firstchar; // tm starts at zero
 8003e52:	681b      	ldr	r3, [r3, #0]
 8003e54:	f8dc e004 	ldr.w	lr, [ip, #4]
    ch = ldat[idx].lastchar;
 8003e58:	f81b 2032 	ldrb.w	r2, [fp, r2, lsl #3]
    if (tm)
 8003e5c:	ebbe 0303 	subs.w	r3, lr, r3
      chprintf(dbg, "%02X T: %06d dT: %04d\r\n", ch, tm, dt);
 8003e60:	4641      	mov	r1, r8
 8003e62:	4630      	mov	r0, r6
    if (tm)
 8003e64:	d1e2      	bne.n	8003e2c <Listener3+0xfc>
      chprintf(dbg, "%02X T: %06d dT: ----\r\n", ch, tm);
 8003e66:	4649      	mov	r1, r9
  for (i=0;i<cnt;i++){ // go through all the characters
 8003e68:	3701      	adds	r7, #1
      chprintf(dbg, "%02X T: %06d dT: ----\r\n", ch, tm);
 8003e6a:	f7ff fbf9 	bl	8003660 <chprintf>
  for (i=0;i<cnt;i++){ // go through all the characters
 8003e6e:	42bc      	cmp	r4, r7
 8003e70:	d1e7      	bne.n	8003e42 <Listener3+0x112>
    return cnt+oldcnt;
 8003e72:	f8da 3000 	ldr.w	r3, [sl]
 8003e76:	441c      	add	r4, r3
  for (i=cnt_temp; i<(oldcnt);i++ ){
 8003e78:	42a5      	cmp	r5, r4
    oldcnt = dump_data_2(cnt, src);
 8003e7a:	f8ca 4000 	str.w	r4, [sl]
  for (i=cnt_temp; i<(oldcnt);i++ ){
 8003e7e:	d29e      	bcs.n	8003dbe <Listener3+0x8e>
    ldat[(i & BUFFMSK)].src = 0; // clear the source for the next time the pointer comes around
 8003e80:	2200      	movs	r2, #0
 8003e82:	f3c5 0309 	ubfx	r3, r5, #0, #10
 8003e86:	eb0b 03c3 	add.w	r3, fp, r3, lsl #3
  for (i=cnt_temp; i<(oldcnt);i++ ){
 8003e8a:	3501      	adds	r5, #1
 8003e8c:	42a5      	cmp	r5, r4
    ldat[(i & BUFFMSK)].src = 0; // clear the source for the next time the pointer comes around
 8003e8e:	705a      	strb	r2, [r3, #1]
  for (i=cnt_temp; i<(oldcnt);i++ ){
 8003e90:	d1f7      	bne.n	8003e82 <Listener3+0x152>
 8003e92:	e794      	b.n	8003dbe <Listener3+0x8e>
  tm = ldat[oldcnt].timestamp - firstchar; // tm starts at zero
 8003e94:	4a6d      	ldr	r2, [pc, #436]	; (800404c <Listener3+0x31c>)
 8003e96:	eb0b 03c5 	add.w	r3, fp, r5, lsl #3
 8003e9a:	6811      	ldr	r1, [r2, #0]
 8003e9c:	685a      	ldr	r2, [r3, #4]
  if (src == 3){
 8003e9e:	f1b8 0f03 	cmp.w	r8, #3
  tm = ldat[oldcnt].timestamp - firstchar; // tm starts at zero
 8003ea2:	eba2 0201 	sub.w	r2, r2, r1
  if (src == 3){
 8003ea6:	f000 80b9 	beq.w	800401c <Listener3+0x2ec>
  chprintf(dbg, "%d->%d cnt: %d T: %06d\r\n", src, (src==1?2:1), cnt, tm);
 8003eaa:	f1b8 0f01 	cmp.w	r8, #1
 8003eae:	e9cd 4200 	strd	r4, r2, [sp]
 8003eb2:	bf0c      	ite	eq
 8003eb4:	2302      	moveq	r3, #2
 8003eb6:	2301      	movne	r3, #1
 8003eb8:	4965      	ldr	r1, [pc, #404]	; (8004050 <Listener3+0x320>)
 8003eba:	4642      	mov	r2, r8
 8003ebc:	4630      	mov	r0, r6
 8003ebe:	f7ff fbcf 	bl	8003660 <chprintf>
  for (line=0; line < cnt;line+=16){
 8003ec2:	2c00      	cmp	r4, #0
 8003ec4:	d0d5      	beq.n	8003e72 <Listener3+0x142>
 8003ec6:	2310      	movs	r3, #16
 8003ec8:	2700      	movs	r7, #0
 8003eca:	9503      	str	r5, [sp, #12]
 8003ecc:	4698      	mov	r8, r3
 8003ece:	463d      	mov	r5, r7
 8003ed0:	e004      	b.n	8003edc <Listener3+0x1ac>
 8003ed2:	3501      	adds	r5, #1
        chprintf(dbg, "   "); // fill the space
 8003ed4:	f7ff fbc4 	bl	8003660 <chprintf>
    for (i=0;i<16;i++){
 8003ed8:	45a8      	cmp	r8, r5
 8003eda:	d010      	beq.n	8003efe <Listener3+0x1ce>
      if ((i+line) >= cnt){
 8003edc:	42ac      	cmp	r4, r5
        chprintf(dbg, "   "); // fill the space
 8003ede:	495d      	ldr	r1, [pc, #372]	; (8004054 <Listener3+0x324>)
 8003ee0:	4630      	mov	r0, r6
      if ((i+line) >= cnt){
 8003ee2:	d9f6      	bls.n	8003ed2 <Listener3+0x1a2>
      idx = (line+i+oldcnt) & BUFFMSK;
 8003ee4:	f8da 3000 	ldr.w	r3, [sl]
        chprintf(dbg, "%02X ", ch);
 8003ee8:	495b      	ldr	r1, [pc, #364]	; (8004058 <Listener3+0x328>)
      idx = (line+i+oldcnt) & BUFFMSK;
 8003eea:	442b      	add	r3, r5
 8003eec:	f3c3 0309 	ubfx	r3, r3, #0, #10
 8003ef0:	3501      	adds	r5, #1
        chprintf(dbg, "%02X ", ch);
 8003ef2:	f81b 2033 	ldrb.w	r2, [fp, r3, lsl #3]
 8003ef6:	f7ff fbb3 	bl	8003660 <chprintf>
    for (i=0;i<16;i++){
 8003efa:	45a8      	cmp	r8, r5
 8003efc:	d1ee      	bne.n	8003edc <Listener3+0x1ac>
    chprintf(dbg, " | "); // make separator
 8003efe:	4957      	ldr	r1, [pc, #348]	; (800405c <Listener3+0x32c>)
    chprintf(dbg, "%c",'.');    
 8003f00:	4d57      	ldr	r5, [pc, #348]	; (8004060 <Listener3+0x330>)
    chprintf(dbg, " | "); // make separator
 8003f02:	4630      	mov	r0, r6
 8003f04:	f7ff fbac 	bl	8003660 <chprintf>
 8003f08:	46b9      	mov	r9, r7
 8003f0a:	e003      	b.n	8003f14 <Listener3+0x1e4>
    for (i=0;i<16;i++){
 8003f0c:	f109 0901 	add.w	r9, r9, #1
 8003f10:	45c8      	cmp	r8, r9
 8003f12:	d017      	beq.n	8003f44 <Listener3+0x214>
      if ((i+line) >= cnt){
 8003f14:	454c      	cmp	r4, r9
 8003f16:	d9f9      	bls.n	8003f0c <Listener3+0x1dc>
      idx = (line+i+oldcnt) & BUFFMSK;
 8003f18:	f8da 3000 	ldr.w	r3, [sl]
 8003f1c:	444b      	add	r3, r9
 8003f1e:	f3c3 0309 	ubfx	r3, r3, #0, #10
    chprintf(dbg, "%c", c);
 8003f22:	4629      	mov	r1, r5
        safe_print(ldat[idx].lastchar);
 8003f24:	f81b 2033 	ldrb.w	r2, [fp, r3, lsl #3]
  if ((c > 0x1F) && (c < 128))
 8003f28:	f1a2 0320 	sub.w	r3, r2, #32
 8003f2c:	2b5f      	cmp	r3, #95	; 0x5f
    chprintf(dbg, "%c", c);
 8003f2e:	4630      	mov	r0, r6
    chprintf(dbg, "%c",'.');    
 8003f30:	bf82      	ittt	hi
 8003f32:	222e      	movhi	r2, #46	; 0x2e
 8003f34:	4629      	movhi	r1, r5
 8003f36:	4630      	movhi	r0, r6
 8003f38:	f109 0901 	add.w	r9, r9, #1
 8003f3c:	f7ff fb90 	bl	8003660 <chprintf>
    for (i=0;i<16;i++){
 8003f40:	45c8      	cmp	r8, r9
 8003f42:	d1e7      	bne.n	8003f14 <Listener3+0x1e4>
    chprintf(dbg, "\r\n");
 8003f44:	4947      	ldr	r1, [pc, #284]	; (8004064 <Listener3+0x334>)
  for (line=0; line < cnt;line+=16){
 8003f46:	3710      	adds	r7, #16
    chprintf(dbg, "\r\n");
 8003f48:	4630      	mov	r0, r6
 8003f4a:	f7ff fb89 	bl	8003660 <chprintf>
  for (line=0; line < cnt;line+=16){
 8003f4e:	42bc      	cmp	r4, r7
 8003f50:	f108 0810 	add.w	r8, r8, #16
 8003f54:	d8bb      	bhi.n	8003ece <Listener3+0x19e>
 8003f56:	9d03      	ldr	r5, [sp, #12]
 8003f58:	e78b      	b.n	8003e72 <Listener3+0x142>
  tm = ldat[oldcnt].timestamp - firstchar; // tm starts at zero
 8003f5a:	4a3c      	ldr	r2, [pc, #240]	; (800404c <Listener3+0x31c>)
 8003f5c:	eb0b 03c5 	add.w	r3, fp, r5, lsl #3
 8003f60:	6811      	ldr	r1, [r2, #0]
 8003f62:	685a      	ldr	r2, [r3, #4]
  if (src == 3){
 8003f64:	f1b8 0f03 	cmp.w	r8, #3
  tm = ldat[oldcnt].timestamp - firstchar; // tm starts at zero
 8003f68:	eba2 0201 	sub.w	r2, r2, r1
  if (src == 3){
 8003f6c:	d056      	beq.n	800401c <Listener3+0x2ec>
  chprintf(dbg, "%d->%d cnt: %d T: %06d\r\n", src, (src==1?2:1), cnt, tm);
 8003f6e:	f1b8 0f01 	cmp.w	r8, #1
 8003f72:	e9cd 4200 	strd	r4, r2, [sp]
 8003f76:	bf0c      	ite	eq
 8003f78:	2302      	moveq	r3, #2
 8003f7a:	2301      	movne	r3, #1
 8003f7c:	4934      	ldr	r1, [pc, #208]	; (8004050 <Listener3+0x320>)
 8003f7e:	4642      	mov	r2, r8
 8003f80:	4630      	mov	r0, r6
 8003f82:	f7ff fb6d 	bl	8003660 <chprintf>
  for (i=0;i<cnt;i++){ // go through all the characters
 8003f86:	b1fc      	cbz	r4, 8003fc8 <Listener3+0x298>
    if ((i%16 == 0) && (i>0)) chprintf(dbg, "\r\n");
 8003f88:	f8df 80d8 	ldr.w	r8, [pc, #216]	; 8004064 <Listener3+0x334>
    chprintf(dbg, "%02X ", ch);
 8003f8c:	4f32      	ldr	r7, [pc, #200]	; (8004058 <Listener3+0x328>)
  for (i=0;i<cnt;i++){ // go through all the characters
 8003f8e:	f04f 0900 	mov.w	r9, #0
    idx = (i+oldcnt) & BUFFMSK;
 8003f92:	f8da 3000 	ldr.w	r3, [sl]
 8003f96:	444b      	add	r3, r9
 8003f98:	f3c3 0309 	ubfx	r3, r3, #0, #10
    if ((i%16 == 0) && (i>0)) chprintf(dbg, "\r\n");
 8003f9c:	f019 0f0f 	tst.w	r9, #15
    ch = ldat[idx].lastchar;
 8003fa0:	f81b 2033 	ldrb.w	r2, [fp, r3, lsl #3]
    if ((i%16 == 0) && (i>0)) chprintf(dbg, "\r\n");
 8003fa4:	d108      	bne.n	8003fb8 <Listener3+0x288>
 8003fa6:	4641      	mov	r1, r8
 8003fa8:	4630      	mov	r0, r6
 8003faa:	f1b9 0f00 	cmp.w	r9, #0
 8003fae:	d003      	beq.n	8003fb8 <Listener3+0x288>
 8003fb0:	9203      	str	r2, [sp, #12]
 8003fb2:	f7ff fb55 	bl	8003660 <chprintf>
 8003fb6:	9a03      	ldr	r2, [sp, #12]
  for (i=0;i<cnt;i++){ // go through all the characters
 8003fb8:	f109 0901 	add.w	r9, r9, #1
    chprintf(dbg, "%02X ", ch);
 8003fbc:	4639      	mov	r1, r7
 8003fbe:	4630      	mov	r0, r6
 8003fc0:	f7ff fb4e 	bl	8003660 <chprintf>
  for (i=0;i<cnt;i++){ // go through all the characters
 8003fc4:	454c      	cmp	r4, r9
 8003fc6:	d1e4      	bne.n	8003f92 <Listener3+0x262>
  chprintf(dbg, "\r\n");
 8003fc8:	4926      	ldr	r1, [pc, #152]	; (8004064 <Listener3+0x334>)
 8003fca:	4630      	mov	r0, r6
 8003fcc:	f7ff fb48 	bl	8003660 <chprintf>
  return cnt+oldcnt;
 8003fd0:	f8da 3000 	ldr.w	r3, [sl]
 8003fd4:	441c      	add	r4, r3
 8003fd6:	e74f      	b.n	8003e78 <Listener3+0x148>
 8003fd8:	2320      	movs	r3, #32
 8003fda:	f383 8811 	msr	BASEPRI, r3
 8003fde:	4a22      	ldr	r2, [pc, #136]	; (8004068 <Listener3+0x338>)
 8003fe0:	2300      	movs	r3, #0
 8003fe2:	6a52      	ldr	r2, [r2, #36]	; 0x24
 8003fe4:	f383 8811 	msr	BASEPRI, r3
    if (TIME_I2MS(chVTGetSystemTime()) - last_received_char > flush_timeout){
 8003fe8:	f44f 737a 	mov.w	r3, #1000	; 0x3e8
 8003fec:	f242 700f 	movw	r0, #9999	; 0x270f
 8003ff0:	2100      	movs	r1, #0
 8003ff2:	fbe3 0102 	umlal	r0, r1, r3, r2
 8003ff6:	f242 7210 	movw	r2, #10000	; 0x2710
 8003ffa:	2300      	movs	r3, #0
 8003ffc:	f7fc fffc 	bl	8000ff8 <__aeabi_uldivmod>
 8004000:	4b1a      	ldr	r3, [pc, #104]	; (800406c <Listener3+0x33c>)
 8004002:	681a      	ldr	r2, [r3, #0]
 8004004:	4b1a      	ldr	r3, [pc, #104]	; (8004070 <Listener3+0x340>)
 8004006:	881b      	ldrh	r3, [r3, #0]
 8004008:	1a80      	subs	r0, r0, r2
 800400a:	4298      	cmp	r0, r3
 800400c:	f67f aee3 	bls.w	8003dd6 <Listener3+0xa6>
      cnt = ldat_cnt - oldcnt;
 8004010:	4b0b      	ldr	r3, [pc, #44]	; (8004040 <Listener3+0x310>)
 8004012:	f8da 5000 	ldr.w	r5, [sl]
 8004016:	681c      	ldr	r4, [r3, #0]
 8004018:	1b64      	subs	r4, r4, r5
 800401a:	e6c7      	b.n	8003dac <Listener3+0x7c>
    chprintf(dbg, "------------------ BREAK @ T: %06d\r\n", tm);
 800401c:	4915      	ldr	r1, [pc, #84]	; (8004074 <Listener3+0x344>)
 800401e:	4630      	mov	r0, r6
 8004020:	f7ff fb1e 	bl	8003660 <chprintf>
 8004024:	e725      	b.n	8003e72 <Listener3+0x142>
 8004026:	bf00      	nop
 8004028:	2000189c 	.word	0x2000189c
 800402c:	08006598 	.word	0x08006598
 8004030:	200013ac 	.word	0x200013ac
 8004034:	40020000 	.word	0x40020000
 8004038:	20001a64 	.word	0x20001a64
 800403c:	20001a65 	.word	0x20001a65
 8004040:	20003cbc 	.word	0x20003cbc
 8004044:	20000800 	.word	0x20000800
 8004048:	080065cc 	.word	0x080065cc
 800404c:	20001ab0 	.word	0x20001ab0
 8004050:	08006610 	.word	0x08006610
 8004054:	08006634 	.word	0x08006634
 8004058:	0800662c 	.word	0x0800662c
 800405c:	08006638 	.word	0x08006638
 8004060:	0800663c 	.word	0x0800663c
 8004064:	080067cc 	.word	0x080067cc
 8004068:	40000c00 	.word	0x40000c00
 800406c:	20001cb4 	.word	0x20001cb4
 8004070:	20000802 	.word	0x20000802
 8004074:	080065a4 	.word	0x080065a4
 8004078:	20003cc0 	.word	0x20003cc0
 800407c:	20001cbc 	.word	0x20001cbc
 8004080:	080065f8 	.word	0x080065f8
 8004084:	080065e0 	.word	0x080065e0
	...

08004090 <cmd_format>:

void cmd_format(BaseSequentialStream *chp, int argc, char *argv[]) {
  (void)* argv;
  (void)argc;
  int32_t stat;
  if(argc <1){
 8004090:	2900      	cmp	r1, #0
void cmd_format(BaseSequentialStream *chp, int argc, char *argv[]) {
 8004092:	b510      	push	{r4, lr}
 8004094:	4604      	mov	r4, r0
  if(argc <1){
 8004096:	dd0a      	ble.n	80040ae <cmd_format+0x1e>
    chprintf(chp, "Changes Dump Format.\r\n");
    chprintf(chp, "Format is now: %d \r\n", dump_format);
    chprintf(chp, "Usage: format [0..3]\r\n");
    return;
  }
  stat = strtol(argv[0], NULL, 0);
 8004098:	4613      	mov	r3, r2
 800409a:	2200      	movs	r2, #0
 800409c:	6818      	ldr	r0, [r3, #0]
 800409e:	4611      	mov	r1, r2
 80040a0:	f001 fed6 	bl	8005e50 <strtol>
  if ((stat < 0) || (stat > 3)){
 80040a4:	2803      	cmp	r0, #3
 80040a6:	d811      	bhi.n	80040cc <cmd_format+0x3c>
    chprintf(chp, "Only 0..3 allowed. (%d) \r\n", stat);
    return;
  }
  dump_format = (uint8_t)stat;
 80040a8:	4b0c      	ldr	r3, [pc, #48]	; (80040dc <cmd_format+0x4c>)
 80040aa:	7018      	strb	r0, [r3, #0]
}
 80040ac:	bd10      	pop	{r4, pc}
    chprintf(chp, "Changes Dump Format.\r\n");
 80040ae:	490c      	ldr	r1, [pc, #48]	; (80040e0 <cmd_format+0x50>)
 80040b0:	f7ff fad6 	bl	8003660 <chprintf>
    chprintf(chp, "Format is now: %d \r\n", dump_format);
 80040b4:	4b09      	ldr	r3, [pc, #36]	; (80040dc <cmd_format+0x4c>)
 80040b6:	490b      	ldr	r1, [pc, #44]	; (80040e4 <cmd_format+0x54>)
 80040b8:	781a      	ldrb	r2, [r3, #0]
 80040ba:	4620      	mov	r0, r4
 80040bc:	f7ff fad0 	bl	8003660 <chprintf>
    chprintf(chp, "Usage: format [0..3]\r\n");
 80040c0:	4620      	mov	r0, r4
 80040c2:	4909      	ldr	r1, [pc, #36]	; (80040e8 <cmd_format+0x58>)
}
 80040c4:	e8bd 4010 	ldmia.w	sp!, {r4, lr}
    chprintf(chp, "Usage: format [0..3]\r\n");
 80040c8:	f7ff baca 	b.w	8003660 <chprintf>
    chprintf(chp, "Only 0..3 allowed. (%d) \r\n", stat);
 80040cc:	4602      	mov	r2, r0
 80040ce:	4907      	ldr	r1, [pc, #28]	; (80040ec <cmd_format+0x5c>)
 80040d0:	4620      	mov	r0, r4
}
 80040d2:	e8bd 4010 	ldmia.w	sp!, {r4, lr}
    chprintf(chp, "Only 0..3 allowed. (%d) \r\n", stat);
 80040d6:	f7ff bac3 	b.w	8003660 <chprintf>
 80040da:	bf00      	nop
 80040dc:	20000800 	.word	0x20000800
 80040e0:	08006640 	.word	0x08006640
 80040e4:	08006658 	.word	0x08006658
 80040e8:	08006670 	.word	0x08006670
 80040ec:	08006688 	.word	0x08006688

080040f0 <cmd_stt>:
  if(argc <1){
 80040f0:	2900      	cmp	r1, #0
void cmd_stt(BaseSequentialStream *chp, int argc, char *argv[]) {
 80040f2:	b510      	push	{r4, lr}
 80040f4:	4604      	mov	r4, r0
  if(argc <1){
 80040f6:	dd1a      	ble.n	800412e <cmd_stt+0x3e>
  temp = (uint32_t)strtol(argv[0], NULL, 0);
 80040f8:	4613      	mov	r3, r2
 80040fa:	2200      	movs	r2, #0
 80040fc:	6818      	ldr	r0, [r3, #0]
 80040fe:	4611      	mov	r1, r2
 8004100:	f001 fea6 	bl	8005e50 <strtol>
  if ((temp < 10) || (temp > 65535)){
 8004104:	f64f 73f5 	movw	r3, #65525	; 0xfff5
 8004108:	f1a0 010a 	sub.w	r1, r0, #10
 800410c:	4299      	cmp	r1, r3
 800410e:	d807      	bhi.n	8004120 <cmd_stt+0x30>
  flush_timeout = temp;
 8004110:	4b0e      	ldr	r3, [pc, #56]	; (800414c <cmd_stt+0x5c>)
  chprintf(chp, "Timeout updated.\r\n");
 8004112:	490f      	ldr	r1, [pc, #60]	; (8004150 <cmd_stt+0x60>)
  flush_timeout = temp;
 8004114:	8018      	strh	r0, [r3, #0]
  chprintf(chp, "Timeout updated.\r\n");
 8004116:	4620      	mov	r0, r4
}
 8004118:	e8bd 4010 	ldmia.w	sp!, {r4, lr}
  chprintf(chp, "Timeout updated.\r\n");
 800411c:	f7ff baa0 	b.w	8003660 <chprintf>
    chprintf(chp, "Timeout out of Range: (%d) \r\n", temp);
 8004120:	4602      	mov	r2, r0
 8004122:	490c      	ldr	r1, [pc, #48]	; (8004154 <cmd_stt+0x64>)
 8004124:	4620      	mov	r0, r4
}
 8004126:	e8bd 4010 	ldmia.w	sp!, {r4, lr}
    chprintf(chp, "Timeout out of Range: (%d) \r\n", temp);
 800412a:	f7ff ba99 	b.w	8003660 <chprintf>
    chprintf(chp, "Sets Timeout for buffer flush.\r\n");
 800412e:	490a      	ldr	r1, [pc, #40]	; (8004158 <cmd_stt+0x68>)
 8004130:	f7ff fa96 	bl	8003660 <chprintf>
    chprintf(chp, "Timeout in ms now: %d \r\n", flush_timeout);
 8004134:	4b05      	ldr	r3, [pc, #20]	; (800414c <cmd_stt+0x5c>)
 8004136:	4909      	ldr	r1, [pc, #36]	; (800415c <cmd_stt+0x6c>)
 8004138:	881a      	ldrh	r2, [r3, #0]
 800413a:	4620      	mov	r0, r4
 800413c:	f7ff fa90 	bl	8003660 <chprintf>
    chprintf(chp, "Usage: stt [TIMEOUT in ms]\r\n");
 8004140:	4620      	mov	r0, r4
 8004142:	4907      	ldr	r1, [pc, #28]	; (8004160 <cmd_stt+0x70>)
}
 8004144:	e8bd 4010 	ldmia.w	sp!, {r4, lr}
    chprintf(chp, "Usage: stt [TIMEOUT in ms]\r\n");
 8004148:	f7ff ba8a 	b.w	8003660 <chprintf>
 800414c:	20000802 	.word	0x20000802
 8004150:	08006724 	.word	0x08006724
 8004154:	08006704 	.word	0x08006704
 8004158:	080066a4 	.word	0x080066a4
 800415c:	080066c8 	.word	0x080066c8
 8004160:	080066e4 	.word	0x080066e4
	...

08004170 <cmd_sbr>:
  if(argc <1){
 8004170:	2900      	cmp	r1, #0
void cmd_sbr(BaseSequentialStream *chp, int argc, char *argv[]) {
 8004172:	b538      	push	{r3, r4, r5, lr}
 8004174:	4604      	mov	r4, r0
  if(argc <1){
 8004176:	dd1f      	ble.n	80041b8 <cmd_sbr+0x48>
  baud = (uint32_t)strtol(argv[0], NULL, 0);
 8004178:	4613      	mov	r3, r2
 800417a:	2200      	movs	r2, #0
 800417c:	4611      	mov	r1, r2
 800417e:	6818      	ldr	r0, [r3, #0]
 8004180:	f001 fe66 	bl	8005e50 <strtol>
  if ((baud < 300) || (baud > 115200)){
 8004184:	4b14      	ldr	r3, [pc, #80]	; (80041d8 <cmd_sbr+0x68>)
 8004186:	f5a0 7196 	sub.w	r1, r0, #300	; 0x12c
 800418a:	4299      	cmp	r1, r3
  baud = (uint32_t)strtol(argv[0], NULL, 0);
 800418c:	4602      	mov	r2, r0
  if ((baud < 300) || (baud > 115200)){
 800418e:	d80d      	bhi.n	80041ac <cmd_sbr+0x3c>
  serial_config.speed = baud;
 8004190:	4b12      	ldr	r3, [pc, #72]	; (80041dc <cmd_sbr+0x6c>)
  sdStart(&SD1, &serial_config);
 8004192:	4813      	ldr	r0, [pc, #76]	; (80041e0 <cmd_sbr+0x70>)
  serial_config.speed = baud;
 8004194:	601a      	str	r2, [r3, #0]
  sdStart(&SD1, &serial_config);
 8004196:	f7fd f8fb 	bl	8001390 <sdStart.constprop.0>
  sdStart(&SD2, &serial_config);
 800419a:	4812      	ldr	r0, [pc, #72]	; (80041e4 <cmd_sbr+0x74>)
 800419c:	f7fd f8f8 	bl	8001390 <sdStart.constprop.0>
  chprintf(chp, "UARTs updated.\r\n");
 80041a0:	4620      	mov	r0, r4
 80041a2:	4911      	ldr	r1, [pc, #68]	; (80041e8 <cmd_sbr+0x78>)
}
 80041a4:	e8bd 4038 	ldmia.w	sp!, {r3, r4, r5, lr}
  chprintf(chp, "UARTs updated.\r\n");
 80041a8:	f7ff ba5a 	b.w	8003660 <chprintf>
    chprintf(chp, "Baudrate out of Range: (%d) \r\n", baud);
 80041ac:	4620      	mov	r0, r4
 80041ae:	490f      	ldr	r1, [pc, #60]	; (80041ec <cmd_sbr+0x7c>)
}
 80041b0:	e8bd 4038 	ldmia.w	sp!, {r3, r4, r5, lr}
    chprintf(chp, "Baudrate out of Range: (%d) \r\n", baud);
 80041b4:	f7ff ba54 	b.w	8003660 <chprintf>
  baud = serial_config.speed;
 80041b8:	4b08      	ldr	r3, [pc, #32]	; (80041dc <cmd_sbr+0x6c>)
    chprintf(chp, "Sets Baudrate of listeners.\r\n");
 80041ba:	490d      	ldr	r1, [pc, #52]	; (80041f0 <cmd_sbr+0x80>)
  baud = serial_config.speed;
 80041bc:	681d      	ldr	r5, [r3, #0]
    chprintf(chp, "Sets Baudrate of listeners.\r\n");
 80041be:	f7ff fa4f 	bl	8003660 <chprintf>
    chprintf(chp, "Baudrate now: %d \r\n", baud);
 80041c2:	490c      	ldr	r1, [pc, #48]	; (80041f4 <cmd_sbr+0x84>)
 80041c4:	462a      	mov	r2, r5
 80041c6:	4620      	mov	r0, r4
 80041c8:	f7ff fa4a 	bl	8003660 <chprintf>
    chprintf(chp, "Usage: sbr [BAUDRATE]\r\n");
 80041cc:	4620      	mov	r0, r4
 80041ce:	490a      	ldr	r1, [pc, #40]	; (80041f8 <cmd_sbr+0x88>)
}
 80041d0:	e8bd 4038 	ldmia.w	sp!, {r3, r4, r5, lr}
    chprintf(chp, "Usage: sbr [BAUDRATE]\r\n");
 80041d4:	f7ff ba44 	b.w	8003660 <chprintf>
 80041d8:	0001c0d4 	.word	0x0001c0d4
 80041dc:	2000082c 	.word	0x2000082c
 80041e0:	20000c98 	.word	0x20000c98
 80041e4:	20000ef4 	.word	0x20000ef4
 80041e8:	080067a4 	.word	0x080067a4
 80041ec:	08006784 	.word	0x08006784
 80041f0:	08006738 	.word	0x08006738
 80041f4:	08006758 	.word	0x08006758
 80041f8:	0800676c 	.word	0x0800676c
 80041fc:	00000000 	.word	0x00000000

08004200 <cmd_test>:
void cmd_test(BaseSequentialStream *chp, int argc, char *argv[]) {
 8004200:	b510      	push	{r4, lr}
  chprintf(chp, "Enter Number (<256) \r\n");
 8004202:	490b      	ldr	r1, [pc, #44]	; (8004230 <cmd_test+0x30>)
void cmd_test(BaseSequentialStream *chp, int argc, char *argv[]) {
 8004204:	b084      	sub	sp, #16
 8004206:	4604      	mov	r4, r0
  chprintf(chp, "Enter Number (<256) \r\n");
 8004208:	f7ff fa2a 	bl	8003660 <chprintf>
  val = (uint16_t)strtol(text, NULL, 0);
 800420c:	2200      	movs	r2, #0
 800420e:	4611      	mov	r1, r2
 8004210:	a801      	add	r0, sp, #4
 8004212:	f001 fe1d 	bl	8005e50 <strtol>
 8004216:	4603      	mov	r3, r0
  chprintf(chp, "You entered text: %s Val: %04x got: %02x\r\n",
 8004218:	aa01      	add	r2, sp, #4
 800421a:	b29b      	uxth	r3, r3
 800421c:	4905      	ldr	r1, [pc, #20]	; (8004234 <cmd_test+0x34>)
 800421e:	4620      	mov	r0, r4
 8004220:	f7ff fa1e 	bl	8003660 <chprintf>
  chprintf(dbg, "OK\r\n");
 8004224:	4904      	ldr	r1, [pc, #16]	; (8004238 <cmd_test+0x38>)
 8004226:	4805      	ldr	r0, [pc, #20]	; (800423c <cmd_test+0x3c>)
 8004228:	f7ff fa1a 	bl	8003660 <chprintf>
}
 800422c:	b004      	add	sp, #16
 800422e:	bd10      	pop	{r4, pc}
 8004230:	080067b8 	.word	0x080067b8
 8004234:	080067d0 	.word	0x080067d0
 8004238:	080067fc 	.word	0x080067fc
 800423c:	200013ac 	.word	0x200013ac

08004240 <cmd_echo>:

#if (SHELL_CMD_ECHO_ENABLED == TRUE) || defined(__DOXYGEN__)
static void cmd_echo(BaseSequentialStream *chp, int argc, char *argv[]) {

  (void)argv;
  if (argc != 1) {
 8004240:	2901      	cmp	r1, #1
 8004242:	d003      	beq.n	800424c <cmd_echo+0xc>
    shellUsage(chp, "echo \"message\"");
 8004244:	4a03      	ldr	r2, [pc, #12]	; (8004254 <cmd_echo+0x14>)
 8004246:	4904      	ldr	r1, [pc, #16]	; (8004258 <cmd_echo+0x18>)
 8004248:	f7ff ba0a 	b.w	8003660 <chprintf>
    return;
  }
  chprintf(chp, "%s" SHELL_NEWLINE_STR, argv[0]);
 800424c:	6812      	ldr	r2, [r2, #0]
 800424e:	4903      	ldr	r1, [pc, #12]	; (800425c <cmd_echo+0x1c>)
 8004250:	f7ff ba06 	b.w	8003660 <chprintf>
 8004254:	08006804 	.word	0x08006804
 8004258:	08006814 	.word	0x08006814
 800425c:	08006820 	.word	0x08006820

08004260 <shellThread>:
/**
 * @brief   Shell thread function.
 *
 * @param[in] p         pointer to a @p BaseSequentialStream object
 */
THD_FUNCTION(shellThread, p) {
 8004260:	e92d 4ff0 	stmdb	sp!, {r4, r5, r6, r7, r8, r9, sl, fp, lr}
 8004264:	4dbc      	ldr	r5, [pc, #752]	; (8004558 <shellThread+0x2f8>)
  int n;
  ShellConfig *scfg = p;
  BaseSequentialStream *chp = scfg->sc_channel;
 8004266:	f8d0 a000 	ldr.w	sl, [r0]
#if !defined(_CHIBIOS_NIL_)
  chRegSetThreadName(SHELL_THREAD_NAME);
#endif

#if SHELL_USE_HISTORY == TRUE
  *(scfg->sc_histbuf) = 0;
 800426a:	6883      	ldr	r3, [r0, #8]
 800426c:	696a      	ldr	r2, [r5, #20]
 800426e:	49bb      	ldr	r1, [pc, #748]	; (800455c <shellThread+0x2fc>)
THD_FUNCTION(shellThread, p) {
 8004270:	b0a7      	sub	sp, #156	; 0x9c
 8004272:	4604      	mov	r4, r0
 8004274:	9001      	str	r0, [sp, #4]
  const ShellCommand *scp = scfg->sc_commands;
 8004276:	6840      	ldr	r0, [r0, #4]
 8004278:	9006      	str	r0, [sp, #24]
  *(scfg->sc_histbuf) = 0;
 800427a:	2000      	movs	r0, #0
 800427c:	6191      	str	r1, [r2, #24]
 800427e:	7018      	strb	r0, [r3, #0]
  ShellHistory hist = {
 8004280:	e9d4 2302 	ldrd	r2, r3, [r4, #8]
 8004284:	e9cd 000e 	strd	r0, r0, [sp, #56]	; 0x38
  ShellHistory *shp = &hist;
#else
  ShellHistory *shp = NULL;
#endif

  chprintf(chp, SHELL_NEWLINE_STR);
 8004288:	49b5      	ldr	r1, [pc, #724]	; (8004560 <shellThread+0x300>)
  ShellHistory hist = {
 800428a:	9010      	str	r0, [sp, #64]	; 0x40
  chprintf(chp, SHELL_NEWLINE_STR);
 800428c:	4650      	mov	r0, sl
  ShellHistory hist = {
 800428e:	e9cd 230c 	strd	r2, r3, [sp, #48]	; 0x30
  chprintf(chp, SHELL_NEWLINE_STR);
 8004292:	f7ff f9e5 	bl	8003660 <chprintf>
  chprintf(chp, "ChibiOS/RT Shell" SHELL_NEWLINE_STR);
 8004296:	49b3      	ldr	r1, [pc, #716]	; (8004564 <shellThread+0x304>)
 8004298:	4650      	mov	r0, sl
 800429a:	f7ff f9e1 	bl	8003660 <chprintf>
  return (bool)((chThdGetSelfX()->flags & CH_FLAG_TERMINATE) != (tmode_t)0);
 800429e:	696b      	ldr	r3, [r5, #20]
#if !defined(_CHIBIOS_NIL_)
  while (!chThdShouldTerminateX()) {
 80042a0:	f893 3021 	ldrb.w	r3, [r3, #33]	; 0x21
 80042a4:	f013 0304 	ands.w	r3, r3, #4
 80042a8:	f040 8095 	bne.w	80043d6 <shellThread+0x176>
bool shellGetLine(ShellConfig *scfg, char *line, unsigned size, ShellHistory *shp) {
  char *p = line;
  BaseSequentialStream *chp = scfg->sc_channel;
#if SHELL_USE_ESC_SEQ == TRUE
  bool escape = false;
  bool bracket = false;
 80042ac:	9302      	str	r3, [sp, #8]
 80042ae:	f10d 0958 	add.w	r9, sp, #88	; 0x58
 80042b2:	f8cd a000 	str.w	sl, [sp]
    chprintf(chp, SHELL_PROMPT_STR);
 80042b6:	49ac      	ldr	r1, [pc, #688]	; (8004568 <shellThread+0x308>)
 80042b8:	9800      	ldr	r0, [sp, #0]
 80042ba:	f7ff f9d1 	bl	8003660 <chprintf>
  BaseSequentialStream *chp = scfg->sc_channel;
 80042be:	9b01      	ldr	r3, [sp, #4]
  bool bracket = false;
 80042c0:	2500      	movs	r5, #0
  BaseSequentialStream *chp = scfg->sc_channel;
 80042c2:	681c      	ldr	r4, [r3, #0]
  bool escape = false;
 80042c4:	462f      	mov	r7, r5
  char *p = line;
 80042c6:	46c8      	mov	r8, r9
#endif

  while (true) {
    char c;

    if (streamRead(chp, (uint8_t *)&c, 1) == 0)
 80042c8:	6823      	ldr	r3, [r4, #0]
 80042ca:	2201      	movs	r2, #1
 80042cc:	689b      	ldr	r3, [r3, #8]
 80042ce:	f10d 0123 	add.w	r1, sp, #35	; 0x23
 80042d2:	4620      	mov	r0, r4
 80042d4:	4798      	blx	r3
 80042d6:	2800      	cmp	r0, #0
 80042d8:	d046      	beq.n	8004368 <shellThread+0x108>
      return true;
#if SHELL_USE_ESC_SEQ == TRUE
    if (c == 27) {
 80042da:	f89d 1023 	ldrb.w	r1, [sp, #35]	; 0x23
 80042de:	291b      	cmp	r1, #27
 80042e0:	d02a      	beq.n	8004338 <shellThread+0xd8>
      escape = true;
      continue;
    }
    if (escape) {
 80042e2:	b15f      	cbz	r7, 80042fc <shellThread+0x9c>
      escape = false;
      if (c == '[') {
 80042e4:	295b      	cmp	r1, #91	; 0x5b
 80042e6:	d03d      	beq.n	8004364 <shellThread+0x104>
        escape = true;
        bracket = true;
        continue;
      }
      if (bracket) {
 80042e8:	b135      	cbz	r5, 80042f8 <shellThread+0x98>
        bracket = false;
#if SHELL_USE_HISTORY == TRUE
        if (c == 'A') {
 80042ea:	2941      	cmp	r1, #65	; 0x41
 80042ec:	f000 812a 	beq.w	8004544 <shellThread+0x2e4>
            chprintf(chp, "%s", line);
            p = line + len;
          }
          continue;
        }
        if (c == 'B') {
 80042f0:	2942      	cmp	r1, #66	; 0x42
 80042f2:	f000 810a 	beq.w	800450a <shellThread+0x2aa>
        bracket = false;
 80042f6:	2500      	movs	r5, #0
      escape = false;
 80042f8:	462f      	mov	r7, r5
 80042fa:	e7e5      	b.n	80042c8 <shellThread+0x68>
    if (c == 4) {
      chprintf(chp, "^D");
      return true;
    }
#endif
    if ((c == 8) || (c == 127)) {
 80042fc:	2908      	cmp	r1, #8
 80042fe:	d01d      	beq.n	800433c <shellThread+0xdc>
 8004300:	297f      	cmp	r1, #127	; 0x7f
 8004302:	d01b      	beq.n	800433c <shellThread+0xdc>
        streamPut(chp, 0x08);
        p--;
      }
      continue;
    }
    if (c == '\r') {
 8004304:	290d      	cmp	r1, #13
 8004306:	f000 8168 	beq.w	80045da <shellThread+0x37a>
#endif
      *p = 0;
      return false;
    }
#if SHELL_USE_COMPLETION == TRUE
    if (c == '\t') {
 800430a:	2909      	cmp	r1, #9
 800430c:	d077      	beq.n	80043fe <shellThread+0x19e>
      }
      continue;
    }
#endif
#if SHELL_USE_HISTORY == TRUE
    if (c == 14) {
 800430e:	290e      	cmp	r1, #14
 8004310:	f000 813f 	beq.w	8004592 <shellThread+0x332>
        chprintf(chp, "%s", line);
        p = line + len;
      }
      continue;
    }
    if (c == 16) {
 8004314:	2910      	cmp	r1, #16
 8004316:	f000 8157 	beq.w	80045c8 <shellThread+0x368>
        p = line + len;
      }
      continue;
    }
#endif
    if (c < 0x20)
 800431a:	291f      	cmp	r1, #31
 800431c:	d9d4      	bls.n	80042c8 <shellThread+0x68>
      continue;
    if (p < line + size - 1) {
 800431e:	f10d 0397 	add.w	r3, sp, #151	; 0x97
 8004322:	4598      	cmp	r8, r3
 8004324:	d2d0      	bcs.n	80042c8 <shellThread+0x68>
      streamPut(chp, c);
 8004326:	6823      	ldr	r3, [r4, #0]
 8004328:	4620      	mov	r0, r4
 800432a:	68db      	ldr	r3, [r3, #12]
 800432c:	4798      	blx	r3
      *p++ = (char)c;
 800432e:	f89d 3023 	ldrb.w	r3, [sp, #35]	; 0x23
 8004332:	f808 3b01 	strb.w	r3, [r8], #1
 8004336:	e7c7      	b.n	80042c8 <shellThread+0x68>
      escape = true;
 8004338:	2701      	movs	r7, #1
 800433a:	e7c5      	b.n	80042c8 <shellThread+0x68>
      if (p != line) {
 800433c:	45c8      	cmp	r8, r9
 800433e:	d0c3      	beq.n	80042c8 <shellThread+0x68>
        streamPut(chp, 0x08);
 8004340:	6823      	ldr	r3, [r4, #0]
 8004342:	2108      	movs	r1, #8
 8004344:	68db      	ldr	r3, [r3, #12]
 8004346:	4620      	mov	r0, r4
 8004348:	4798      	blx	r3
        streamPut(chp, 0x20);
 800434a:	6823      	ldr	r3, [r4, #0]
 800434c:	2120      	movs	r1, #32
 800434e:	68db      	ldr	r3, [r3, #12]
 8004350:	4620      	mov	r0, r4
 8004352:	4798      	blx	r3
        streamPut(chp, 0x08);
 8004354:	6823      	ldr	r3, [r4, #0]
 8004356:	2108      	movs	r1, #8
 8004358:	68db      	ldr	r3, [r3, #12]
 800435a:	4620      	mov	r0, r4
        p--;
 800435c:	f108 38ff 	add.w	r8, r8, #4294967295	; 0xffffffff
        streamPut(chp, 0x08);
 8004360:	4798      	blx	r3
 8004362:	e7b1      	b.n	80042c8 <shellThread+0x68>
        bracket = true;
 8004364:	463d      	mov	r5, r7
 8004366:	e7af      	b.n	80042c8 <shellThread+0x68>
  chThdSleep(delay);
 8004368:	f44f 707a 	mov.w	r0, #1000	; 0x3e8
 800436c:	f7fe fb98 	bl	8002aa0 <chThdSleep>
    lp = parse_arguments(line, &tokp);
 8004370:	a909      	add	r1, sp, #36	; 0x24
 8004372:	4648      	mov	r0, r9
 8004374:	f7ff f944 	bl	8003600 <parse_arguments>
    while ((lp = parse_arguments(NULL, &tokp)) != NULL) {
 8004378:	a909      	add	r1, sp, #36	; 0x24
    lp = parse_arguments(line, &tokp);
 800437a:	4605      	mov	r5, r0
    while ((lp = parse_arguments(NULL, &tokp)) != NULL) {
 800437c:	2000      	movs	r0, #0
 800437e:	ac11      	add	r4, sp, #68	; 0x44
    n = 0;
 8004380:	2600      	movs	r6, #0
    while ((lp = parse_arguments(NULL, &tokp)) != NULL) {
 8004382:	f7ff f93d 	bl	8003600 <parse_arguments>
 8004386:	b150      	cbz	r0, 800439e <shellThread+0x13e>
      if (n >= SHELL_MAX_ARGUMENTS) {
 8004388:	2e04      	cmp	r6, #4
 800438a:	d031      	beq.n	80043f0 <shellThread+0x190>
      args[n++] = lp;
 800438c:	f844 0b04 	str.w	r0, [r4], #4
    while ((lp = parse_arguments(NULL, &tokp)) != NULL) {
 8004390:	a909      	add	r1, sp, #36	; 0x24
 8004392:	2000      	movs	r0, #0
      args[n++] = lp;
 8004394:	3601      	adds	r6, #1
    while ((lp = parse_arguments(NULL, &tokp)) != NULL) {
 8004396:	f7ff f933 	bl	8003600 <parse_arguments>
 800439a:	2800      	cmp	r0, #0
 800439c:	d1f4      	bne.n	8004388 <shellThread+0x128>
    args[n] = NULL;
 800439e:	ab26      	add	r3, sp, #152	; 0x98
 80043a0:	eb03 0386 	add.w	r3, r3, r6, lsl #2
 80043a4:	f843 0c54 	str.w	r0, [r3, #-84]
    if (cmd != NULL) {
 80043a8:	b175      	cbz	r5, 80043c8 <shellThread+0x168>
      if (strcmp(cmd, "help") == 0) {
 80043aa:	4970      	ldr	r1, [pc, #448]	; (800456c <shellThread+0x30c>)
 80043ac:	4628      	mov	r0, r5
 80043ae:	f7fc f84b 	bl	8000448 <strcmp>
 80043b2:	2800      	cmp	r0, #0
 80043b4:	f040 81bd 	bne.w	8004732 <shellThread+0x4d2>
        if (n > 0) {
 80043b8:	2e00      	cmp	r6, #0
 80043ba:	f000 8172 	beq.w	80046a2 <shellThread+0x442>
          shellUsage(chp, "help");
 80043be:	4a6b      	ldr	r2, [pc, #428]	; (800456c <shellThread+0x30c>)
 80043c0:	496b      	ldr	r1, [pc, #428]	; (8004570 <shellThread+0x310>)
 80043c2:	9800      	ldr	r0, [sp, #0]
 80043c4:	f7ff f94c 	bl	8003660 <chprintf>
 80043c8:	4b63      	ldr	r3, [pc, #396]	; (8004558 <shellThread+0x2f8>)
 80043ca:	695b      	ldr	r3, [r3, #20]
  while (!chThdShouldTerminateX()) {
 80043cc:	f893 3021 	ldrb.w	r3, [r3, #33]	; 0x21
 80043d0:	075b      	lsls	r3, r3, #29
 80043d2:	f57f af70 	bpl.w	80042b6 <shellThread+0x56>
 80043d6:	2320      	movs	r3, #32
 80043d8:	f383 8811 	msr	BASEPRI, r3
 *
 * @iclass
 */
static inline void chEvtBroadcastI(event_source_t *esp) {

  chEvtBroadcastFlagsI(esp, (eventflags_t)0);
 80043dc:	2100      	movs	r1, #0
 80043de:	4865      	ldr	r0, [pc, #404]	; (8004574 <shellThread+0x314>)
 80043e0:	f7fd fa9e 	bl	8001920 <chEvtBroadcastFlagsI>
  chThdExitS(msg);
 80043e4:	2000      	movs	r0, #0
 80043e6:	f7fe f953 	bl	8002690 <chThdExitS>
}
 80043ea:	b027      	add	sp, #156	; 0x9c
 80043ec:	e8bd 8ff0 	ldmia.w	sp!, {r4, r5, r6, r7, r8, r9, sl, fp, pc}
        chprintf(chp, "too many arguments" SHELL_NEWLINE_STR);
 80043f0:	4961      	ldr	r1, [pc, #388]	; (8004578 <shellThread+0x318>)
 80043f2:	9800      	ldr	r0, [sp, #0]
 80043f4:	f7ff f934 	bl	8003660 <chprintf>
    args[n] = NULL;
 80043f8:	2300      	movs	r3, #0
 80043fa:	9315      	str	r3, [sp, #84]	; 0x54
    if (cmd != NULL) {
 80043fc:	e7e4      	b.n	80043c8 <shellThread+0x168>
      if (p < line + size - 1) {
 80043fe:	f10d 0697 	add.w	r6, sp, #151	; 0x97
 8004402:	45b0      	cmp	r8, r6
 8004404:	f4bf af60 	bcs.w	80042c8 <shellThread+0x68>
  char help_cmp[] = "help";
 8004408:	4b58      	ldr	r3, [pc, #352]	; (800456c <shellThread+0x30c>)
        *p = 0;
 800440a:	f888 7000 	strb.w	r7, [r8]
  char help_cmp[] = "help";
 800440e:	e893 0003 	ldmia.w	r3, {r0, r1}
  if (strstr(help_cmp, line) == help_cmp) {
 8004412:	f10d 0b28 	add.w	fp, sp, #40	; 0x28
  char help_cmp[] = "help";
 8004416:	900a      	str	r0, [sp, #40]	; 0x28
 8004418:	f88d 102c 	strb.w	r1, [sp, #44]	; 0x2c
  if (strstr(help_cmp, line) == help_cmp) {
 800441c:	4658      	mov	r0, fp
 800441e:	4649      	mov	r1, r9
 8004420:	f001 ff68 	bl	80062f4 <strstr>
        get_completions(scfg, line);
 8004424:	9b01      	ldr	r3, [sp, #4]
 8004426:	f8d3 a010 	ldr.w	sl, [r3, #16]
 800442a:	685a      	ldr	r2, [r3, #4]
  if (strstr(help_cmp, line) == help_cmp) {
 800442c:	9203      	str	r2, [sp, #12]
 800442e:	4558      	cmp	r0, fp
    *scmp++ = help_cmp;
 8004430:	f10a 0304 	add.w	r3, sl, #4
 8004434:	bf08      	it	eq
 8004436:	469b      	moveq	fp, r3
 8004438:	9304      	str	r3, [sp, #16]
 800443a:	4b50      	ldr	r3, [pc, #320]	; (800457c <shellThread+0x31c>)
 800443c:	bf08      	it	eq
 800443e:	f8ca 0000 	streq.w	r0, [sl]
 8004442:	4649      	mov	r1, r9
 8004444:	4618      	mov	r0, r3
        get_completions(scfg, line);
 8004446:	bf18      	it	ne
 8004448:	46d3      	movne	fp, sl
  while (lcp->sc_name != NULL) {
 800444a:	f001 ff53 	bl	80062f4 <strstr>
    if (strstr(lcp->sc_name, line) == lcp->sc_name) {
 800444e:	4b4b      	ldr	r3, [pc, #300]	; (800457c <shellThread+0x31c>)
 8004450:	9a03      	ldr	r2, [sp, #12]
 8004452:	4298      	cmp	r0, r3
      *scmp++ = (char *)lcp->sc_name;
 8004454:	465b      	mov	r3, fp
 8004456:	bf08      	it	eq
 8004458:	f843 0b04 	streq.w	r0, [r3], #4
  if (scp != NULL) {
 800445c:	b1c2      	cbz	r2, 8004490 <shellThread+0x230>
    while (scp->sc_name != NULL) {
 800445e:	f8d2 b000 	ldr.w	fp, [r2]
 8004462:	f1bb 0f00 	cmp.w	fp, #0
 8004466:	d013      	beq.n	8004490 <shellThread+0x230>
 8004468:	9403      	str	r4, [sp, #12]
 800446a:	9505      	str	r5, [sp, #20]
 800446c:	465c      	mov	r4, fp
 800446e:	4615      	mov	r5, r2
 8004470:	469b      	mov	fp, r3
      if (strstr(scp->sc_name, line) == scp->sc_name) {
 8004472:	4620      	mov	r0, r4
 8004474:	4649      	mov	r1, r9
 8004476:	f001 ff3d 	bl	80062f4 <strstr>
 800447a:	4284      	cmp	r4, r0
        *scmp++ = (char *)scp->sc_name;
 800447c:	bf08      	it	eq
 800447e:	f84b 4b04 	streq.w	r4, [fp], #4
    while (scp->sc_name != NULL) {
 8004482:	f855 4f08 	ldr.w	r4, [r5, #8]!
 8004486:	2c00      	cmp	r4, #0
 8004488:	d1f3      	bne.n	8004472 <shellThread+0x212>
 800448a:	9c03      	ldr	r4, [sp, #12]
 800448c:	9d05      	ldr	r5, [sp, #20]
 800448e:	465b      	mov	r3, fp
  *scmp = NULL;
 8004490:	9a02      	ldr	r2, [sp, #8]
 8004492:	601a      	str	r2, [r3, #0]
  if (*scmp != NULL) {
 8004494:	f8da b000 	ldr.w	fp, [sl]
 8004498:	f1bb 0f00 	cmp.w	fp, #0
 800449c:	f43f af14 	beq.w	80042c8 <shellThread+0x68>
    if (*cmp == NULL) {
 80044a0:	f8da 3004 	ldr.w	r3, [sl, #4]
        int len = process_completions(scfg, line, p - line, size);
 80044a4:	eba8 0109 	sub.w	r1, r8, r9
 80044a8:	9103      	str	r1, [sp, #12]
    if (*cmp == NULL) {
 80044aa:	2b00      	cmp	r3, #0
 80044ac:	f000 8170 	beq.w	8004790 <shellThread+0x530>
      while (*(*scmp + clen) != 0) {
 80044b0:	f89b c000 	ldrb.w	ip, [fp]
 80044b4:	f1bc 0f00 	cmp.w	ip, #0
 80044b8:	f000 81b8 	beq.w	800482c <shellThread+0x5cc>
  int clen = 0;
 80044bc:	9405      	str	r4, [sp, #20]
 80044be:	9507      	str	r5, [sp, #28]
 80044c0:	4664      	mov	r4, ip
 80044c2:	9d03      	ldr	r5, [sp, #12]
 80044c4:	f8dd c010 	ldr.w	ip, [sp, #16]
      while (*(*scmp + clen) != 0) {
 80044c8:	46c6      	mov	lr, r8
  int clen = 0;
 80044ca:	2100      	movs	r1, #0
        while ((*(*scmp + clen) == *(*cmp + clen)) &&
 80044cc:	5c5a      	ldrb	r2, [r3, r1]
 80044ce:	42a2      	cmp	r2, r4
 80044d0:	bf08      	it	eq
 80044d2:	4662      	moveq	r2, ip
 80044d4:	d105      	bne.n	80044e2 <shellThread+0x282>
               (*(*cmp + clen) != 0) && (*cmp != NULL)) {
 80044d6:	b13b      	cbz	r3, 80044e8 <shellThread+0x288>
        while ((*(*scmp + clen) == *(*cmp + clen)) &&
 80044d8:	f852 3f04 	ldr.w	r3, [r2, #4]!
 80044dc:	5c58      	ldrb	r0, [r3, r1]
 80044de:	42a0      	cmp	r0, r4
 80044e0:	d0f9      	beq.n	80044d6 <shellThread+0x276>
        if (*cmp == NULL) {
 80044e2:	2b00      	cmp	r3, #0
 80044e4:	f040 80f0 	bne.w	80046c8 <shellThread+0x468>
          if ((c < line + size - 1) && (clen >= length))
 80044e8:	45b6      	cmp	lr, r6
 80044ea:	d205      	bcs.n	80044f8 <shellThread+0x298>
 80044ec:	428d      	cmp	r5, r1
            *c++ = *(*scmp + clen);
 80044ee:	bfdc      	itt	le
 80044f0:	f80e 4b01 	strble.w	r4, [lr], #1
 80044f4:	f8da b000 	ldrle.w	fp, [sl]
          clen++;
 80044f8:	3101      	adds	r1, #1
      while (*(*scmp + clen) != 0) {
 80044fa:	f81b 4001 	ldrb.w	r4, [fp, r1]
 80044fe:	2c00      	cmp	r4, #0
 8004500:	f000 8132 	beq.w	8004768 <shellThread+0x508>
 8004504:	f8da 3004 	ldr.w	r3, [sl, #4]
 8004508:	e7e0      	b.n	80044cc <shellThread+0x26c>
          int len = get_history(shp, line, SHELL_HIST_DIR_FW);
 800450a:	2201      	movs	r2, #1
 800450c:	4649      	mov	r1, r9
 800450e:	a80c      	add	r0, sp, #48	; 0x30
 8004510:	f7fe fc2e 	bl	8002d70 <get_history>
          if (len == 0)
 8004514:	1e06      	subs	r6, r0, #0
 8004516:	d139      	bne.n	800458c <shellThread+0x32c>
            *line = 0;
 8004518:	f88d 6058 	strb.w	r6, [sp, #88]	; 0x58
            _shell_reset_cur(chp);
 800451c:	2310      	movs	r3, #16
 800451e:	2252      	movs	r2, #82	; 0x52
 8004520:	4917      	ldr	r1, [pc, #92]	; (8004580 <shellThread+0x320>)
 8004522:	4620      	mov	r0, r4
 8004524:	f7ff f89c 	bl	8003660 <chprintf>
            _shell_clr_line(chp);
 8004528:	4916      	ldr	r1, [pc, #88]	; (8004584 <shellThread+0x324>)
 800452a:	4620      	mov	r0, r4
 800452c:	f7ff f898 	bl	8003660 <chprintf>
        bracket = false;
 8004530:	2500      	movs	r5, #0
            chprintf(chp, "%s", line);
 8004532:	4915      	ldr	r1, [pc, #84]	; (8004588 <shellThread+0x328>)
 8004534:	464a      	mov	r2, r9
 8004536:	4620      	mov	r0, r4
 8004538:	f7ff f892 	bl	8003660 <chprintf>
            p = line + len;
 800453c:	eb09 0806 	add.w	r8, r9, r6
      escape = false;
 8004540:	462f      	mov	r7, r5
 8004542:	e6c1      	b.n	80042c8 <shellThread+0x68>
          int len = get_history(shp, line, SHELL_HIST_DIR_BK);
 8004544:	2200      	movs	r2, #0
 8004546:	4649      	mov	r1, r9
 8004548:	a80c      	add	r0, sp, #48	; 0x30
 800454a:	f7fe fc11 	bl	8002d70 <get_history>
          if (len > 0) {
 800454e:	1e06      	subs	r6, r0, #0
 8004550:	f77f aed1 	ble.w	80042f6 <shellThread+0x96>
 8004554:	e7e2      	b.n	800451c <shellThread+0x2bc>
 8004556:	bf00      	nop
 8004558:	2000189c 	.word	0x2000189c
 800455c:	08006828 	.word	0x08006828
 8004560:	080067cc 	.word	0x080067cc
 8004564:	08006830 	.word	0x08006830
 8004568:	08006844 	.word	0x08006844
 800456c:	08006890 	.word	0x08006890
 8004570:	08006814 	.word	0x08006814
 8004574:	20003cc4 	.word	0x20003cc4
 8004578:	08006878 	.word	0x08006878
 800457c:	0800686c 	.word	0x0800686c
 8004580:	08006858 	.word	0x08006858
 8004584:	08006864 	.word	0x08006864
 8004588:	08006868 	.word	0x08006868
          if (len >= 0) {
 800458c:	f6ff aeb3 	blt.w	80042f6 <shellThread+0x96>
 8004590:	e7c4      	b.n	800451c <shellThread+0x2bc>
      int len = get_history(shp, line, SHELL_HIST_DIR_FW);
 8004592:	2201      	movs	r2, #1
 8004594:	4649      	mov	r1, r9
 8004596:	a80c      	add	r0, sp, #48	; 0x30
 8004598:	f7fe fbea 	bl	8002d70 <get_history>
      if (len == 0)
 800459c:	1e06      	subs	r6, r0, #0
 800459e:	d178      	bne.n	8004692 <shellThread+0x432>
        *line = 0;
 80045a0:	f88d 7058 	strb.w	r7, [sp, #88]	; 0x58
        _shell_reset_cur(chp);
 80045a4:	2310      	movs	r3, #16
 80045a6:	2252      	movs	r2, #82	; 0x52
 80045a8:	49a3      	ldr	r1, [pc, #652]	; (8004838 <shellThread+0x5d8>)
 80045aa:	4620      	mov	r0, r4
 80045ac:	f7ff f858 	bl	8003660 <chprintf>
        _shell_clr_line(chp);
 80045b0:	49a2      	ldr	r1, [pc, #648]	; (800483c <shellThread+0x5dc>)
 80045b2:	4620      	mov	r0, r4
 80045b4:	f7ff f854 	bl	8003660 <chprintf>
        chprintf(chp, "%s", line);
 80045b8:	49a1      	ldr	r1, [pc, #644]	; (8004840 <shellThread+0x5e0>)
 80045ba:	464a      	mov	r2, r9
 80045bc:	4620      	mov	r0, r4
        p = line + len;
 80045be:	eb09 0806 	add.w	r8, r9, r6
        chprintf(chp, "%s", line);
 80045c2:	f7ff f84d 	bl	8003660 <chprintf>
 80045c6:	e67f      	b.n	80042c8 <shellThread+0x68>
      int len = get_history(shp, line, SHELL_HIST_DIR_BK);
 80045c8:	463a      	mov	r2, r7
 80045ca:	4649      	mov	r1, r9
 80045cc:	a80c      	add	r0, sp, #48	; 0x30
 80045ce:	f7fe fbcf 	bl	8002d70 <get_history>
      if (len > 0) {
 80045d2:	1e06      	subs	r6, r0, #0
 80045d4:	f77f ae78 	ble.w	80042c8 <shellThread+0x68>
 80045d8:	e7e4      	b.n	80045a4 <shellThread+0x344>
      chprintf(chp, SHELL_NEWLINE_STR);
 80045da:	4620      	mov	r0, r4
 80045dc:	4999      	ldr	r1, [pc, #612]	; (8004844 <shellThread+0x5e4>)
 80045de:	f7ff f83f 	bl	8003660 <chprintf>
  if (length > shp->sh_size - 2)
 80045e2:	9d0d      	ldr	r5, [sp, #52]	; 0x34
      save_history(shp, line, p - line);
 80045e4:	eba8 0409 	sub.w	r4, r8, r9
  if (length > shp->sh_size - 2)
 80045e8:	1e6b      	subs	r3, r5, #1
 80045ea:	429c      	cmp	r4, r3
 80045ec:	da4d      	bge.n	800468a <shellThread+0x42a>
  while ((*(line + length -1) == ' ') && (length > 0))
 80045ee:	1e63      	subs	r3, r4, #1
 80045f0:	eb09 0203 	add.w	r2, r9, r3
 80045f4:	f819 1003 	ldrb.w	r1, [r9, r3]
 80045f8:	2920      	cmp	r1, #32
 80045fa:	d10a      	bne.n	8004612 <shellThread+0x3b2>
 80045fc:	2c00      	cmp	r4, #0
 80045fe:	dc03      	bgt.n	8004608 <shellThread+0x3a8>
 8004600:	e043      	b.n	800468a <shellThread+0x42a>
 8004602:	2b00      	cmp	r3, #0
 8004604:	d041      	beq.n	800468a <shellThread+0x42a>
 8004606:	3b01      	subs	r3, #1
 8004608:	f812 1d01 	ldrb.w	r1, [r2, #-1]!
 800460c:	2920      	cmp	r1, #32
    length--;
 800460e:	461c      	mov	r4, r3
  while ((*(line + length -1) == ' ') && (length > 0))
 8004610:	d0f7      	beq.n	8004602 <shellThread+0x3a2>
  if (length <= 0)
 8004612:	2c00      	cmp	r4, #0
 8004614:	dd39      	ble.n	800468a <shellThread+0x42a>
  if (shp->sh_end >= shp->sh_beg) {
 8004616:	9e0f      	ldr	r6, [sp, #60]	; 0x3c
  int pos = shp->sh_beg + *(shp->sh_buffer + shp->sh_beg) + 1;
 8004618:	980c      	ldr	r0, [sp, #48]	; 0x30
 800461a:	9b0e      	ldr	r3, [sp, #56]	; 0x38
    if (length < (shp->sh_size - (shp->sh_end - shp->sh_beg + 1)))
 800461c:	1af2      	subs	r2, r6, r3
    if (length < (shp->sh_beg - shp->sh_end - 1))
 800461e:	1b99      	subs	r1, r3, r6
    if (length < (shp->sh_size - (shp->sh_end - shp->sh_beg + 1)))
 8004620:	3201      	adds	r2, #1
  if (shp->sh_end >= shp->sh_beg) {
 8004622:	429e      	cmp	r6, r3
    if (length < (shp->sh_size - (shp->sh_end - shp->sh_beg + 1)))
 8004624:	eba5 0202 	sub.w	r2, r5, r2
    if (length < (shp->sh_beg - shp->sh_end - 1))
 8004628:	f101 31ff 	add.w	r1, r1, #4294967295	; 0xffffffff
  if (shp->sh_end >= shp->sh_beg) {
 800462c:	db09      	blt.n	8004642 <shellThread+0x3e2>
    if (length < (shp->sh_size - (shp->sh_end - shp->sh_beg + 1)))
 800462e:	42a2      	cmp	r2, r4
 8004630:	dc09      	bgt.n	8004646 <shellThread+0x3e6>
  int pos = shp->sh_beg + *(shp->sh_buffer + shp->sh_beg) + 1;
 8004632:	5cc2      	ldrb	r2, [r0, r3]
 8004634:	4413      	add	r3, r2
 8004636:	3301      	adds	r3, #1
  if (pos >= shp->sh_size)
 8004638:	429d      	cmp	r5, r3
    pos -= shp->sh_size;
 800463a:	bfd8      	it	le
 800463c:	1b5b      	suble	r3, r3, r5
  shp->sh_beg = pos;
 800463e:	930e      	str	r3, [sp, #56]	; 0x38
 8004640:	e7ec      	b.n	800461c <shellThread+0x3bc>
    if (length < (shp->sh_beg - shp->sh_end - 1))
 8004642:	42a1      	cmp	r1, r4
 8004644:	ddf5      	ble.n	8004632 <shellThread+0x3d2>
  if (length < shp->sh_size - shp->sh_end - 1)
 8004646:	1bad      	subs	r5, r5, r6
 8004648:	3d01      	subs	r5, #1
    memcpy(shp->sh_buffer + shp->sh_end + 1, line, length);
 800464a:	3601      	adds	r6, #1
  if (length < shp->sh_size - shp->sh_end - 1)
 800464c:	42a5      	cmp	r5, r4
    memcpy(shp->sh_buffer + shp->sh_end + 1, line, length);
 800464e:	4430      	add	r0, r6
  if (length < shp->sh_size - shp->sh_end - 1)
 8004650:	dc22      	bgt.n	8004698 <shellThread+0x438>
    memcpy(shp->sh_buffer + shp->sh_end + 1, line, part_len);
 8004652:	462a      	mov	r2, r5
 8004654:	4649      	mov	r1, r9
 8004656:	f7fb fe59 	bl	800030c <memcpy>
    memcpy(shp->sh_buffer, line + part_len, length - part_len);
 800465a:	980c      	ldr	r0, [sp, #48]	; 0x30
 800465c:	1b62      	subs	r2, r4, r5
 800465e:	eb09 0105 	add.w	r1, r9, r5
 8004662:	f7fb fe53 	bl	800030c <memcpy>
  *(shp->sh_buffer + shp->sh_end) = (char)length;
 8004666:	9b0f      	ldr	r3, [sp, #60]	; 0x3c
 8004668:	9a0c      	ldr	r2, [sp, #48]	; 0x30
 800466a:	54d4      	strb	r4, [r2, r3]
  shp->sh_end += length + 1;
 800466c:	9a0f      	ldr	r2, [sp, #60]	; 0x3c
  if (shp->sh_end >= shp->sh_size)
 800466e:	9b0d      	ldr	r3, [sp, #52]	; 0x34
  shp->sh_end += length + 1;
 8004670:	3401      	adds	r4, #1
 8004672:	4414      	add	r4, r2
  if (shp->sh_end >= shp->sh_size)
 8004674:	429c      	cmp	r4, r3
  shp->sh_end += length + 1;
 8004676:	940f      	str	r4, [sp, #60]	; 0x3c
    shp->sh_end -= shp->sh_size;
 8004678:	bfa8      	it	ge
 800467a:	1ae4      	subge	r4, r4, r3
  *(shp->sh_buffer + shp->sh_end) = 0;
 800467c:	9b0c      	ldr	r3, [sp, #48]	; 0x30
 800467e:	9a02      	ldr	r2, [sp, #8]
    shp->sh_end -= shp->sh_size;
 8004680:	bfa8      	it	ge
 8004682:	940f      	strge	r4, [sp, #60]	; 0x3c
  *(shp->sh_buffer + shp->sh_end) = 0;
 8004684:	551a      	strb	r2, [r3, r4]
  shp->sh_cur = 0;
 8004686:	2300      	movs	r3, #0
 8004688:	9310      	str	r3, [sp, #64]	; 0x40
      *p = 0;
 800468a:	9b02      	ldr	r3, [sp, #8]
 800468c:	f888 3000 	strb.w	r3, [r8]
 8004690:	e66e      	b.n	8004370 <shellThread+0x110>
      if (len >= 0) {
 8004692:	f6ff ae19 	blt.w	80042c8 <shellThread+0x68>
 8004696:	e785      	b.n	80045a4 <shellThread+0x344>
    memcpy(shp->sh_buffer + shp->sh_end + 1, line, length);
 8004698:	4622      	mov	r2, r4
 800469a:	4649      	mov	r1, r9
 800469c:	f7fb fe36 	bl	800030c <memcpy>
 80046a0:	e7e1      	b.n	8004666 <shellThread+0x406>
        chprintf(chp, "Commands: help ");
 80046a2:	9c00      	ldr	r4, [sp, #0]
 80046a4:	4968      	ldr	r1, [pc, #416]	; (8004848 <shellThread+0x5e8>)
 80046a6:	4620      	mov	r0, r4
 80046a8:	f7fe ffda 	bl	8003660 <chprintf>
    chprintf(chp, "%s ", scp->sc_name);
 80046ac:	4a67      	ldr	r2, [pc, #412]	; (800484c <shellThread+0x5ec>)
 80046ae:	4968      	ldr	r1, [pc, #416]	; (8004850 <shellThread+0x5f0>)
 80046b0:	4620      	mov	r0, r4
 80046b2:	f7fe ffd5 	bl	8003660 <chprintf>
        if (scp != NULL)
 80046b6:	9b06      	ldr	r3, [sp, #24]
 80046b8:	2b00      	cmp	r3, #0
 80046ba:	f040 8098 	bne.w	80047ee <shellThread+0x58e>
        chprintf(chp, SHELL_NEWLINE_STR);
 80046be:	4961      	ldr	r1, [pc, #388]	; (8004844 <shellThread+0x5e4>)
 80046c0:	9800      	ldr	r0, [sp, #0]
 80046c2:	f7fe ffcd 	bl	8003660 <chprintf>
 80046c6:	e67f      	b.n	80043c8 <shellThread+0x168>
 80046c8:	9c05      	ldr	r4, [sp, #20]
 80046ca:	9d07      	ldr	r5, [sp, #28]
 80046cc:	eb09 0b01 	add.w	fp, r9, r1
    *(line + clen) = 0;
 80046d0:	9b02      	ldr	r3, [sp, #8]
 80046d2:	f88b 3000 	strb.w	r3, [fp]
        if (len > 0) {
 80046d6:	2900      	cmp	r1, #0
 80046d8:	f43f adf6 	beq.w	80042c8 <shellThread+0x68>
          write_completions(scfg, line, p - line);
 80046dc:	9a01      	ldr	r2, [sp, #4]
  if (*(scmp + 1) != NULL) {
 80046de:	f8da 3004 	ldr.w	r3, [sl, #4]
          write_completions(scfg, line, p - line);
 80046e2:	6816      	ldr	r6, [r2, #0]
  if (*(scmp + 1) != NULL) {
 80046e4:	2b00      	cmp	r3, #0
 80046e6:	d04c      	beq.n	8004782 <shellThread+0x522>
    chprintf(chp, SHELL_NEWLINE_STR);
 80046e8:	4956      	ldr	r1, [pc, #344]	; (8004844 <shellThread+0x5e4>)
 80046ea:	4630      	mov	r0, r6
 80046ec:	f7fe ffb8 	bl	8003660 <chprintf>
    while (*scmp != NULL)
 80046f0:	f8da 2000 	ldr.w	r2, [sl]
 80046f4:	b172      	cbz	r2, 8004714 <shellThread+0x4b4>
      chprintf(chp, " %s", *scmp++);
 80046f6:	f8df 8164 	ldr.w	r8, [pc, #356]	; 800485c <shellThread+0x5fc>
 80046fa:	f8dd a010 	ldr.w	sl, [sp, #16]
 80046fe:	e001      	b.n	8004704 <shellThread+0x4a4>
 8004700:	f10a 0a04 	add.w	sl, sl, #4
 8004704:	4641      	mov	r1, r8
 8004706:	4630      	mov	r0, r6
 8004708:	f7fe ffaa 	bl	8003660 <chprintf>
    while (*scmp != NULL)
 800470c:	f8da 2000 	ldr.w	r2, [sl]
 8004710:	2a00      	cmp	r2, #0
 8004712:	d1f5      	bne.n	8004700 <shellThread+0x4a0>
    chprintf(chp, SHELL_NEWLINE_STR);
 8004714:	494b      	ldr	r1, [pc, #300]	; (8004844 <shellThread+0x5e4>)
 8004716:	4630      	mov	r0, r6
 8004718:	f7fe ffa2 	bl	8003660 <chprintf>
    chprintf(chp, SHELL_PROMPT_STR);
 800471c:	494d      	ldr	r1, [pc, #308]	; (8004854 <shellThread+0x5f4>)
 800471e:	4630      	mov	r0, r6
 8004720:	f7fe ff9e 	bl	8003660 <chprintf>
    chprintf(chp, "%s", line);
 8004724:	4946      	ldr	r1, [pc, #280]	; (8004840 <shellThread+0x5e0>)
 8004726:	464a      	mov	r2, r9
 8004728:	4630      	mov	r0, r6
 800472a:	f7fe ff99 	bl	8003660 <chprintf>
          p = line + len;
 800472e:	46d8      	mov	r8, fp
 8004730:	e5ca      	b.n	80042c8 <shellThread+0x68>
 8004732:	4846      	ldr	r0, [pc, #280]	; (800484c <shellThread+0x5ec>)
 8004734:	4629      	mov	r1, r5
 8004736:	f7fb fe87 	bl	8000448 <strcmp>
    if (strcmp(scp->sc_name, name) == 0) {
 800473a:	2800      	cmp	r0, #0
 800473c:	d051      	beq.n	80047e2 <shellThread+0x582>
      else if (cmdexec(shell_local_commands, chp, cmd, n, args) &&
 800473e:	9c06      	ldr	r4, [sp, #24]
 8004740:	2c00      	cmp	r4, #0
 8004742:	d068      	beq.n	8004816 <shellThread+0x5b6>
  while (scp->sc_name != NULL) {
 8004744:	6820      	ldr	r0, [r4, #0]
 8004746:	b920      	cbnz	r0, 8004752 <shellThread+0x4f2>
 8004748:	e065      	b.n	8004816 <shellThread+0x5b6>
 800474a:	f854 0f08 	ldr.w	r0, [r4, #8]!
 800474e:	2800      	cmp	r0, #0
 8004750:	d061      	beq.n	8004816 <shellThread+0x5b6>
    if (strcmp(scp->sc_name, name) == 0) {
 8004752:	4629      	mov	r1, r5
 8004754:	f7fb fe78 	bl	8000448 <strcmp>
 8004758:	2800      	cmp	r0, #0
 800475a:	d1f6      	bne.n	800474a <shellThread+0x4ea>
      scp->sc_function(chp, argc, argv);
 800475c:	6863      	ldr	r3, [r4, #4]
 800475e:	9800      	ldr	r0, [sp, #0]
 8004760:	4631      	mov	r1, r6
 8004762:	aa11      	add	r2, sp, #68	; 0x44
 8004764:	4798      	blx	r3
      return false;
 8004766:	e62f      	b.n	80043c8 <shellThread+0x168>
 8004768:	46a4      	mov	ip, r4
    *(line + clen) = 0;
 800476a:	f809 c001 	strb.w	ip, [r9, r1]
          write_completions(scfg, line, p - line);
 800476e:	9a01      	ldr	r2, [sp, #4]
  if (*(scmp + 1) != NULL) {
 8004770:	f8da 3004 	ldr.w	r3, [sl, #4]
 8004774:	9d07      	ldr	r5, [sp, #28]
 8004776:	9c05      	ldr	r4, [sp, #20]
          write_completions(scfg, line, p - line);
 8004778:	6816      	ldr	r6, [r2, #0]
    *(line + clen) = 0;
 800477a:	eb09 0b01 	add.w	fp, r9, r1
  if (*(scmp + 1) != NULL) {
 800477e:	2b00      	cmp	r3, #0
 8004780:	d1b2      	bne.n	80046e8 <shellThread+0x488>
    chprintf(chp, "%s", line + pos);
 8004782:	4642      	mov	r2, r8
 8004784:	492e      	ldr	r1, [pc, #184]	; (8004840 <shellThread+0x5e0>)
 8004786:	4630      	mov	r0, r6
 8004788:	f7fe ff6a 	bl	8003660 <chprintf>
          p = line + len;
 800478c:	46d8      	mov	r8, fp
 800478e:	e59b      	b.n	80042c8 <shellThread+0x68>
      clen = strlen(*scmp);
 8004790:	4658      	mov	r0, fp
 8004792:	f8cd b014 	str.w	fp, [sp, #20]
 8004796:	f7fb ffd3 	bl	8000740 <strlen>
      while ((c < line + clen) && (c < line + size - 1))
 800479a:	eb09 0b00 	add.w	fp, r9, r0
 800479e:	45d8      	cmp	r8, fp
      clen = strlen(*scmp);
 80047a0:	4686      	mov	lr, r0
 80047a2:	4601      	mov	r1, r0
      while ((c < line + clen) && (c < line + size - 1))
 80047a4:	d245      	bcs.n	8004832 <shellThread+0x5d2>
 80047a6:	9b03      	ldr	r3, [sp, #12]
 80047a8:	9a05      	ldr	r2, [sp, #20]
 80047aa:	eba3 0c08 	sub.w	ip, r3, r8
 80047ae:	4643      	mov	r3, r8
 80047b0:	e003      	b.n	80047ba <shellThread+0x55a>
 80047b2:	42b3      	cmp	r3, r6
 80047b4:	d08c      	beq.n	80046d0 <shellThread+0x470>
 80047b6:	f8da 2000 	ldr.w	r2, [sl]
        *c++ = *(*scmp + i++);
 80047ba:	eb03 000c 	add.w	r0, r3, ip
 80047be:	5c12      	ldrb	r2, [r2, r0]
 80047c0:	f803 2b01 	strb.w	r2, [r3], #1
      while ((c < line + clen) && (c < line + size - 1))
 80047c4:	455b      	cmp	r3, fp
 80047c6:	d1f4      	bne.n	80047b2 <shellThread+0x552>
      if (c < line + size -1) {
 80047c8:	45b3      	cmp	fp, r6
 80047ca:	d281      	bcs.n	80046d0 <shellThread+0x470>
        clen++;
 80047cc:	f10e 0e01 	add.w	lr, lr, #1
        *c = ' ';
 80047d0:	2320      	movs	r3, #32
 80047d2:	f88b 3000 	strb.w	r3, [fp]
    *(line + clen) = 0;
 80047d6:	9b02      	ldr	r3, [sp, #8]
 80047d8:	f809 300e 	strb.w	r3, [r9, lr]
 80047dc:	eb09 0b0e 	add.w	fp, r9, lr
 80047e0:	e77c      	b.n	80046dc <shellThread+0x47c>
      scp->sc_function(chp, argc, argv);
 80047e2:	9800      	ldr	r0, [sp, #0]
 80047e4:	4631      	mov	r1, r6
 80047e6:	aa11      	add	r2, sp, #68	; 0x44
 80047e8:	f7ff fd2a 	bl	8004240 <cmd_echo>
      return false;
 80047ec:	e5ec      	b.n	80043c8 <shellThread+0x168>
  while (scp->sc_name != NULL) {
 80047ee:	9c06      	ldr	r4, [sp, #24]
 80047f0:	6822      	ldr	r2, [r4, #0]
 80047f2:	2a00      	cmp	r2, #0
 80047f4:	f43f af63 	beq.w	80046be <shellThread+0x45e>
    chprintf(chp, "%s ", scp->sc_name);
 80047f8:	4d15      	ldr	r5, [pc, #84]	; (8004850 <shellThread+0x5f0>)
 80047fa:	9e00      	ldr	r6, [sp, #0]
 80047fc:	4629      	mov	r1, r5
 80047fe:	4630      	mov	r0, r6
 8004800:	f7fe ff2e 	bl	8003660 <chprintf>
  while (scp->sc_name != NULL) {
 8004804:	f854 2f08 	ldr.w	r2, [r4, #8]!
 8004808:	2a00      	cmp	r2, #0
 800480a:	d1f7      	bne.n	80047fc <shellThread+0x59c>
        chprintf(chp, SHELL_NEWLINE_STR);
 800480c:	490d      	ldr	r1, [pc, #52]	; (8004844 <shellThread+0x5e4>)
 800480e:	9800      	ldr	r0, [sp, #0]
 8004810:	f7fe ff26 	bl	8003660 <chprintf>
 8004814:	e5d8      	b.n	80043c8 <shellThread+0x168>
        chprintf(chp, "%s", cmd);
 8004816:	9c00      	ldr	r4, [sp, #0]
 8004818:	4909      	ldr	r1, [pc, #36]	; (8004840 <shellThread+0x5e0>)
 800481a:	462a      	mov	r2, r5
 800481c:	4620      	mov	r0, r4
 800481e:	f7fe ff1f 	bl	8003660 <chprintf>
        chprintf(chp, " ?" SHELL_NEWLINE_STR);
 8004822:	490d      	ldr	r1, [pc, #52]	; (8004858 <shellThread+0x5f8>)
 8004824:	4620      	mov	r0, r4
 8004826:	f7fe ff1b 	bl	8003660 <chprintf>
 800482a:	e5cd      	b.n	80043c8 <shellThread+0x168>
    *(line + clen) = 0;
 800482c:	f88d c058 	strb.w	ip, [sp, #88]	; 0x58
 8004830:	e54a      	b.n	80042c8 <shellThread+0x68>
      while ((c < line + clen) && (c < line + size - 1))
 8004832:	46c3      	mov	fp, r8
 8004834:	e7ca      	b.n	80047cc <shellThread+0x56c>
 8004836:	bf00      	nop
 8004838:	08006858 	.word	0x08006858
 800483c:	08006864 	.word	0x08006864
 8004840:	08006868 	.word	0x08006868
 8004844:	080067cc 	.word	0x080067cc
 8004848:	08006898 	.word	0x08006898
 800484c:	0800686c 	.word	0x0800686c
 8004850:	080068a8 	.word	0x080068a8
 8004854:	08006844 	.word	0x08006844
 8004858:	080068ac 	.word	0x080068ac
 800485c:	08006874 	.word	0x08006874

08004860 <SVC_Handler>:
  __ASM volatile ("MRS %0, psp"  : "=r" (result) );
 8004860:	f3ef 8309 	mrs	r3, PSP
    psp += sizeof (struct port_extctx);
 8004864:	3320      	adds	r3, #32
  __ASM volatile ("MSR psp, %0" : : "r" (topOfProcStack) : );
 8004866:	f383 8809 	msr	PSP, r3
  __ASM volatile ("MSR basepri, %0" : : "r" (basePri) : "memory");
 800486a:	2300      	movs	r3, #0
 800486c:	f383 8811 	msr	BASEPRI, r3
}
 8004870:	4770      	bx	lr
 8004872:	bf00      	nop
	...

08004880 <chThdExit>:
 8004880:	2320      	movs	r3, #32
 8004882:	f383 8811 	msr	BASEPRI, r3
  chThdExitS(msg);
 8004886:	f7fd bf03 	b.w	8002690 <chThdExitS>
 800488a:	bf00      	nop
 800488c:	0000      	movs	r0, r0
	...

08004890 <chSchDoReschedule>:
 *          itself.
 *
 * @special
 */
void chSchDoRescheduleAhead(void) {
  thread_t *otp = currp;
 8004890:	4a0d      	ldr	r2, [pc, #52]	; (80048c8 <chSchDoReschedule+0x38>)
  thread_t *tp = tqp->next;
 8004892:	6810      	ldr	r0, [r2, #0]
 8004894:	6951      	ldr	r1, [r2, #20]
  tqp->next             = tp->queue.next;
 8004896:	6803      	ldr	r3, [r0, #0]
void chSchDoRescheduleAhead(void) {
 8004898:	b430      	push	{r4, r5}

  /* Picks the first thread from the ready queue and makes it current.*/
  currp = queue_fifo_remove(&ch.rlist.queue);
  currp->state = CH_STATE_CURRENT;
 800489a:	2401      	movs	r4, #1
  tqp->next->queue.prev = (thread_t *)tqp;
 800489c:	605a      	str	r2, [r3, #4]
  tp->state = CH_STATE_READY;
 800489e:	2500      	movs	r5, #0
  currp->state = CH_STATE_CURRENT;
 80048a0:	f880 4020 	strb.w	r4, [r0, #32]

  /* Handling idle-leave hook.*/
  if (otp->prio == IDLEPRIO) {
 80048a4:	688c      	ldr	r4, [r1, #8]
  tqp->next             = tp->queue.next;
 80048a6:	6013      	str	r3, [r2, #0]
  currp = queue_fifo_remove(&ch.rlist.queue);
 80048a8:	6150      	str	r0, [r2, #20]
  tp->state = CH_STATE_READY;
 80048aa:	f881 5020 	strb.w	r5, [r1, #32]
  cp = (thread_t *)&ch.rlist.queue;
 80048ae:	e000      	b.n	80048b2 <chSchDoReschedule+0x22>
 80048b0:	681b      	ldr	r3, [r3, #0]
  } while (cp->prio > tp->prio);
 80048b2:	689a      	ldr	r2, [r3, #8]
 80048b4:	4294      	cmp	r4, r2
 80048b6:	d3fb      	bcc.n	80048b0 <chSchDoReschedule+0x20>
  tp->queue.prev             = cp->queue.prev;
 80048b8:	685a      	ldr	r2, [r3, #4]
  /* Placing in ready list ahead of peers.*/
  otp = chSchReadyAheadI(otp);

  /* Swap operation as tail call.*/
  chSysSwitch(currp, otp);
}
 80048ba:	bc30      	pop	{r4, r5}
  tp->queue.prev             = cp->queue.prev;
 80048bc:	e9c1 3200 	strd	r3, r2, [r1]
  tp->queue.prev->queue.next = tp;
 80048c0:	6011      	str	r1, [r2, #0]
  cp->queue.prev             = tp;
 80048c2:	6059      	str	r1, [r3, #4]
  chSysSwitch(currp, otp);
 80048c4:	f7fb bd0c 	b.w	80002e0 <_port_switch>
 80048c8:	2000189c 	.word	0x2000189c
 80048cc:	00000000 	.word	0x00000000

080048d0 <chSchRescheduleS>:
 */
static inline bool chSchIsRescRequiredI(void) {

  chDbgCheckClassI();

  return firstprio(&ch.rlist.queue) > currp->prio;
 80048d0:	4b04      	ldr	r3, [pc, #16]	; (80048e4 <chSchRescheduleS+0x14>)
 80048d2:	681a      	ldr	r2, [r3, #0]
 80048d4:	695b      	ldr	r3, [r3, #20]
  if (chSchIsRescRequiredI()) {
 80048d6:	6892      	ldr	r2, [r2, #8]
 80048d8:	689b      	ldr	r3, [r3, #8]
 80048da:	429a      	cmp	r2, r3
 80048dc:	d800      	bhi.n	80048e0 <chSchRescheduleS+0x10>
}
 80048de:	4770      	bx	lr
    chSchDoRescheduleAhead();
 80048e0:	f7ff bfd6 	b.w	8004890 <chSchDoReschedule>
 80048e4:	2000189c 	.word	0x2000189c
	...

080048f0 <cmd_son>:
void cmd_son(BaseSequentialStream *chp, int argc, char *argv[]) {
  (void)* argv;
  (void)argc;
  uint8_t stat;
  stat = serstat;
  if(argc <1){
 80048f0:	2900      	cmp	r1, #0
void cmd_son(BaseSequentialStream *chp, int argc, char *argv[]) {
 80048f2:	b5f8      	push	{r3, r4, r5, r6, r7, lr}
 80048f4:	4604      	mov	r4, r0
  if(argc <1){
 80048f6:	f340 80ad 	ble.w	8004a54 <cmd_son+0x164>
    else
      chprintf(chp, "Listeners are now off. %d \r\n", stat);
    chprintf(chp, "Usage: son [0|1]\r\n");
    return;
  }
  stat = (uint8_t)strtol(argv[0], NULL, 0);
 80048fa:	4613      	mov	r3, r2
 80048fc:	2200      	movs	r2, #0
 80048fe:	4611      	mov	r1, r2
 8004900:	6818      	ldr	r0, [r3, #0]
 8004902:	f001 faa5 	bl	8005e50 <strtol>
 8004906:	b2c2      	uxtb	r2, r0
  if (stat > 1){
 8004908:	2a01      	cmp	r2, #1
 800490a:	f200 80fd 	bhi.w	8004b08 <cmd_son+0x218>
 800490e:	2320      	movs	r3, #32
    chprintf(chp, "Only 0 or 1 allowed. (%d) \r\n", stat);
    return;
  }
  if (stat){
 8004910:	2a00      	cmp	r2, #0
 8004912:	d044      	beq.n	800499e <cmd_son+0xae>
 8004914:	f383 8811 	msr	BASEPRI, r3
  if (icup->state == ICU_READY) {
 8004918:	4b7e      	ldr	r3, [pc, #504]	; (8004b14 <cmd_son+0x224>)
 800491a:	781a      	ldrb	r2, [r3, #0]
 800491c:	2a02      	cmp	r2, #2
 800491e:	f000 80c3 	beq.w	8004aa8 <cmd_son+0x1b8>

  osalDbgAssert((icup->state == ICU_STOP) || (icup->state == ICU_READY),
                "invalid state");

  icu_lld_stop(icup);
  icup->config = NULL;
 8004922:	2200      	movs	r2, #0
  icup->state  = ICU_STOP;
 8004924:	2501      	movs	r5, #1
  icup->config = NULL;
 8004926:	605a      	str	r2, [r3, #4]
  icup->state  = ICU_STOP;
 8004928:	701d      	strb	r5, [r3, #0]
 800492a:	f382 8811 	msr	BASEPRI, r2
 800492e:	2620      	movs	r6, #32
 8004930:	f386 8811 	msr	BASEPRI, r6
  icup->tim->CR1   = 0;
 8004934:	68d9      	ldr	r1, [r3, #12]
 8004936:	600a      	str	r2, [r1, #0]
  icup->tim->DIER &= ~STM32_TIM_DIER_IRQ_MASK;
 8004938:	68c8      	ldr	r0, [r1, #12]

  osalSysLock();
  osalDbgAssert((icup->state == ICU_READY) || (icup->state == ICU_WAITING) ||
                (icup->state == ICU_ACTIVE),
                "invalid state");
  icuStopCaptureI(icup);
 800493a:	2702      	movs	r7, #2
 800493c:	f020 00ff 	bic.w	r0, r0, #255	; 0xff
 8004940:	701f      	strb	r7, [r3, #0]
 8004942:	60c8      	str	r0, [r1, #12]
 8004944:	f382 8811 	msr	BASEPRI, r2
    icuStop(&ICUD2);
    icuStopCapture(&ICUD2);
    palSetPadMode(GPIOA, 2, PAL_MODE_ALTERNATE(7));  // TX2
 8004948:	4873      	ldr	r0, [pc, #460]	; (8004b18 <cmd_son+0x228>)
 800494a:	f240 3282 	movw	r2, #898	; 0x382
 800494e:	2104      	movs	r1, #4
 8004950:	f7fd fa66 	bl	8001e20 <_pal_lld_setgroupmode>
    palSetPadMode(GPIOA, 3, PAL_MODE_ALTERNATE(7));  // RX2
 8004954:	4870      	ldr	r0, [pc, #448]	; (8004b18 <cmd_son+0x228>)
 8004956:	f240 3282 	movw	r2, #898	; 0x382
 800495a:	2108      	movs	r1, #8
 800495c:	f7fd fa60 	bl	8001e20 <_pal_lld_setgroupmode>
    palSetPadMode(GPIOA, 9, PAL_MODE_ALTERNATE(7));  // TX1
 8004960:	486d      	ldr	r0, [pc, #436]	; (8004b18 <cmd_son+0x228>)
 8004962:	f240 3282 	movw	r2, #898	; 0x382
 8004966:	f44f 7100 	mov.w	r1, #512	; 0x200
 800496a:	f7fd fa59 	bl	8001e20 <_pal_lld_setgroupmode>
    palSetPadMode(GPIOA, 10, PAL_MODE_ALTERNATE(7)); // RX1
 800496e:	486a      	ldr	r0, [pc, #424]	; (8004b18 <cmd_son+0x228>)
 8004970:	f240 3282 	movw	r2, #898	; 0x382
 8004974:	f44f 6180 	mov.w	r1, #1024	; 0x400
 8004978:	f7fd fa52 	bl	8001e20 <_pal_lld_setgroupmode>
    palSetPadMode(GPIOA, 0, PAL_MODE_INPUT_PULLUP);  // Button
 800497c:	4629      	mov	r1, r5
 800497e:	4632      	mov	r2, r6
 8004980:	4865      	ldr	r0, [pc, #404]	; (8004b18 <cmd_son+0x228>)
 8004982:	f7fd fa4d 	bl	8001e20 <_pal_lld_setgroupmode>

    sdStart(&SD1, &serial_config);
 8004986:	4865      	ldr	r0, [pc, #404]	; (8004b1c <cmd_son+0x22c>)
 8004988:	f7fc fd02 	bl	8001390 <sdStart.constprop.0>
    sdStart(&SD2, &serial_config);    
 800498c:	4864      	ldr	r0, [pc, #400]	; (8004b20 <cmd_son+0x230>)
 800498e:	f7fc fcff 	bl	8001390 <sdStart.constprop.0>
    chprintf(chp, "UARTs started, Timer stopped.\r\n");
 8004992:	4620      	mov	r0, r4
 8004994:	4963      	ldr	r1, [pc, #396]	; (8004b24 <cmd_son+0x234>)
    icuStart(&ICUD2, &icucfg1);
    icuStartCapture(&ICUD2);
    icuEnableNotifications(&ICUD2);
    chprintf(chp, "UARTs stopped, Timer started.\r\n");
  }
}
 8004996:	e8bd 40f8 	ldmia.w	sp!, {r3, r4, r5, r6, r7, lr}
    chprintf(chp, "UARTs started, Timer stopped.\r\n");
 800499a:	f7fe be61 	b.w	8003660 <chprintf>
 800499e:	f383 8811 	msr	BASEPRI, r3
 *
 * @notapi
 */
void sd_lld_stop(SerialDriver *sdp) {

  if (sdp->state == SD_READY) {
 80049a2:	4d5e      	ldr	r5, [pc, #376]	; (8004b1c <cmd_son+0x22c>)
 80049a4:	7a29      	ldrb	r1, [r5, #8]
 80049a6:	2902      	cmp	r1, #2
 80049a8:	f000 8097 	beq.w	8004ada <cmd_son+0x1ea>
  sdp->state = SD_STOP;
 80049ac:	2301      	movs	r3, #1
  oqResetI(&sdp->oqueue);
 80049ae:	485e      	ldr	r0, [pc, #376]	; (8004b28 <cmd_son+0x238>)
  sdp->state = SD_STOP;
 80049b0:	722b      	strb	r3, [r5, #8]
  oqResetI(&sdp->oqueue);
 80049b2:	f7fd fc35 	bl	8002220 <oqResetI>
  iqp->q_rdptr = iqp->q_buffer;
 80049b6:	69ab      	ldr	r3, [r5, #24]
  chThdDequeueAllI(tqp, msg);
 80049b8:	485c      	ldr	r0, [pc, #368]	; (8004b2c <cmd_son+0x23c>)
  iqp->q_counter = 0;
 80049ba:	2600      	movs	r6, #0
  iqp->q_wrptr = iqp->q_buffer;
 80049bc:	e9c5 3308 	strd	r3, r3, [r5, #32]
  iqp->q_counter = 0;
 80049c0:	616e      	str	r6, [r5, #20]
 80049c2:	f7fc ff85 	bl	80018d0 <chThdDequeueAllI.constprop.0>
  chSchRescheduleS();
 80049c6:	f7ff ff83 	bl	80048d0 <chSchRescheduleS>
 80049ca:	f386 8811 	msr	BASEPRI, r6
 80049ce:	2320      	movs	r3, #32
 80049d0:	f383 8811 	msr	BASEPRI, r3
 80049d4:	4d52      	ldr	r5, [pc, #328]	; (8004b20 <cmd_son+0x230>)
 80049d6:	7a2b      	ldrb	r3, [r5, #8]
 80049d8:	2b02      	cmp	r3, #2
 80049da:	d04d      	beq.n	8004a78 <cmd_son+0x188>
 80049dc:	4854      	ldr	r0, [pc, #336]	; (8004b30 <cmd_son+0x240>)
  sdp->state = SD_STOP;
 80049de:	2701      	movs	r7, #1
 80049e0:	722f      	strb	r7, [r5, #8]
  oqResetI(&sdp->oqueue);
 80049e2:	f7fd fc1d 	bl	8002220 <oqResetI>
  iqp->q_rdptr = iqp->q_buffer;
 80049e6:	69ab      	ldr	r3, [r5, #24]
  chThdDequeueAllI(tqp, msg);
 80049e8:	4852      	ldr	r0, [pc, #328]	; (8004b34 <cmd_son+0x244>)
  iqp->q_counter = 0;
 80049ea:	2600      	movs	r6, #0
  iqp->q_wrptr = iqp->q_buffer;
 80049ec:	e9c5 3308 	strd	r3, r3, [r5, #32]
  iqp->q_counter = 0;
 80049f0:	616e      	str	r6, [r5, #20]
 80049f2:	f7fc ff6d 	bl	80018d0 <chThdDequeueAllI.constprop.0>
  chSchRescheduleS();
 80049f6:	f7ff ff6b 	bl	80048d0 <chSchRescheduleS>
 80049fa:	f386 8811 	msr	BASEPRI, r6
    palSetPadMode(GPIOA, 0, PAL_MODE_ALTERNATE(1));  // TIM2/1
 80049fe:	4846      	ldr	r0, [pc, #280]	; (8004b18 <cmd_son+0x228>)
 8004a00:	4639      	mov	r1, r7
 8004a02:	2282      	movs	r2, #130	; 0x82
 8004a04:	f7fd fa0c 	bl	8001e20 <_pal_lld_setgroupmode>
 8004a08:	2720      	movs	r7, #32
 8004a0a:	f387 8811 	msr	BASEPRI, r7
  icup->config = config;
 8004a0e:	4d41      	ldr	r5, [pc, #260]	; (8004b14 <cmd_son+0x224>)
 8004a10:	4b49      	ldr	r3, [pc, #292]	; (8004b38 <cmd_son+0x248>)
 8004a12:	606b      	str	r3, [r5, #4]
  icu_lld_start(icup);
 8004a14:	f7fd fce4 	bl	80023e0 <icu_lld_start.constprop.0>
  icup->state = ICU_READY;
 8004a18:	2302      	movs	r3, #2
 8004a1a:	702b      	strb	r3, [r5, #0]
 8004a1c:	f386 8811 	msr	BASEPRI, r6
 8004a20:	f387 8811 	msr	BASEPRI, r7
  icup->tim->EGR |= STM32_TIM_EGR_UG;
 8004a24:	68eb      	ldr	r3, [r5, #12]
 8004a26:	695a      	ldr	r2, [r3, #20]
 8004a28:	f042 0201 	orr.w	r2, r2, #1
 8004a2c:	615a      	str	r2, [r3, #20]
  icup->tim->CR1 = STM32_TIM_CR1_URS | STM32_TIM_CR1_CEN;
 8004a2e:	2105      	movs	r1, #5
  icuStartCaptureI(icup);
 8004a30:	2203      	movs	r2, #3
  icup->tim->SR = 0;
 8004a32:	611e      	str	r6, [r3, #16]
  icup->tim->CR1 = STM32_TIM_CR1_URS | STM32_TIM_CR1_CEN;
 8004a34:	6019      	str	r1, [r3, #0]
 8004a36:	702a      	strb	r2, [r5, #0]
 8004a38:	f386 8811 	msr	BASEPRI, r6
 8004a3c:	f387 8811 	msr	BASEPRI, r7
  osalDbgCheck(icup != NULL);

  osalSysLock();
  osalDbgAssert((icup->state == ICU_WAITING) || (icup->state == ICU_ACTIVE),
                "invalid state");
  icuEnableNotificationsI(icup);
 8004a40:	f7fc fc86 	bl	8001350 <icu_lld_enable_notifications.constprop.0>
 8004a44:	f386 8811 	msr	BASEPRI, r6
    chprintf(chp, "UARTs stopped, Timer started.\r\n");
 8004a48:	493c      	ldr	r1, [pc, #240]	; (8004b3c <cmd_son+0x24c>)
 8004a4a:	4620      	mov	r0, r4
}
 8004a4c:	e8bd 40f8 	ldmia.w	sp!, {r3, r4, r5, r6, r7, lr}
    chprintf(chp, "UARTs stopped, Timer started.\r\n");
 8004a50:	f7fe be06 	b.w	8003660 <chprintf>
    chprintf(chp, "Turns Listeners on or off.\r\n");
 8004a54:	493a      	ldr	r1, [pc, #232]	; (8004b40 <cmd_son+0x250>)
 8004a56:	f7fe fe03 	bl	8003660 <chprintf>
    chprintf(chp, "If Listeners are off, timer is on and vice versa.\r\n");
 8004a5a:	493a      	ldr	r1, [pc, #232]	; (8004b44 <cmd_son+0x254>)
 8004a5c:	4620      	mov	r0, r4
 8004a5e:	f7fe fdff 	bl	8003660 <chprintf>
      chprintf(chp, "Listeners are now on. %d \r\n", stat);
 8004a62:	4939      	ldr	r1, [pc, #228]	; (8004b48 <cmd_son+0x258>)
 8004a64:	4620      	mov	r0, r4
 8004a66:	2201      	movs	r2, #1
 8004a68:	f7fe fdfa 	bl	8003660 <chprintf>
    chprintf(chp, "Usage: son [0|1]\r\n");
 8004a6c:	4620      	mov	r0, r4
 8004a6e:	4937      	ldr	r1, [pc, #220]	; (8004b4c <cmd_son+0x25c>)
}
 8004a70:	e8bd 40f8 	ldmia.w	sp!, {r3, r4, r5, r6, r7, lr}
    chprintf(chp, "Usage: son [0|1]\r\n");
 8004a74:	f7fe bdf4 	b.w	8003660 <chprintf>
    usart_deinit(sdp->usart);
 8004a78:	f8d5 2254 	ldr.w	r2, [r5, #596]	; 0x254
      return;
    }
#endif
#if STM32_SERIAL_USE_USART2
    if (&SD2 == sdp) {
      rccDisableUSART2();
 8004a7c:	4b34      	ldr	r3, [pc, #208]	; (8004b50 <cmd_son+0x260>)
  u->CR1 = 0;
 8004a7e:	60d6      	str	r6, [r2, #12]
  u->CR2 = 0;
 8004a80:	6116      	str	r6, [r2, #16]
  u->CR3 = 0;
 8004a82:	6156      	str	r6, [r2, #20]
      rccDisableUSART2();
 8004a84:	6c19      	ldr	r1, [r3, #64]	; 0x40
 *
 * @param[in] n         the interrupt number
 */
void nvicDisableVector(uint32_t n) {

  NVIC->__ICER[n >> 5U] = 1U << (n & 0x1FU);
 8004a86:	4a33      	ldr	r2, [pc, #204]	; (8004b54 <cmd_son+0x264>)
 8004a88:	f421 3100 	bic.w	r1, r1, #131072	; 0x20000
 8004a8c:	6419      	str	r1, [r3, #64]	; 0x40
 8004a8e:	6e19      	ldr	r1, [r3, #96]	; 0x60
 8004a90:	f421 3100 	bic.w	r1, r1, #131072	; 0x20000
 8004a94:	6619      	str	r1, [r3, #96]	; 0x60
 8004a96:	2140      	movs	r1, #64	; 0x40
 8004a98:	6e1b      	ldr	r3, [r3, #96]	; 0x60
 8004a9a:	f8c2 1084 	str.w	r1, [r2, #132]	; 0x84
  NVIC->__ICPR[n >> 5U] = 1U << (n & 0x1FU);
 8004a9e:	f8c2 1184 	str.w	r1, [r2, #388]	; 0x184
#if defined(__CORE_CM0_H_GENERIC) || defined(__CORE_CM23_H_GENERIC)
  NVIC->__IPR[_IP_IDX(n)] = NVIC->__IPR[_IP_IDX(n)] & ~(0xFFU << _BIT_SHIFT(n));
#else
  NVIC->__IPR[n] = 0U;
 8004aa2:	f882 6326 	strb.w	r6, [r2, #806]	; 0x326
 8004aa6:	e799      	b.n	80049dc <cmd_son+0xec>
    icup->tim->CR1  = 0;                    /* Timer disabled.              */
 8004aa8:	68dd      	ldr	r5, [r3, #12]
  NVIC->__ICER[n >> 5U] = 1U << (n & 0x1FU);
 8004aaa:	482a      	ldr	r0, [pc, #168]	; (8004b54 <cmd_son+0x264>)
      rccDisableTIM2();
 8004aac:	4a28      	ldr	r2, [pc, #160]	; (8004b50 <cmd_son+0x260>)
    icup->tim->CR1  = 0;                    /* Timer disabled.              */
 8004aae:	2100      	movs	r1, #0
 8004ab0:	6029      	str	r1, [r5, #0]
    icup->tim->DIER = 0;                    /* All IRQs disabled.           */
 8004ab2:	60e9      	str	r1, [r5, #12]
    icup->tim->SR   = 0;                    /* Clear eventual pending IRQs. */
 8004ab4:	6129      	str	r1, [r5, #16]
 8004ab6:	f04f 5580 	mov.w	r5, #268435456	; 0x10000000
 8004aba:	f8c0 5080 	str.w	r5, [r0, #128]	; 0x80
  NVIC->__ICPR[n >> 5U] = 1U << (n & 0x1FU);
 8004abe:	f8c0 5180 	str.w	r5, [r0, #384]	; 0x180
  NVIC->__IPR[n] = 0U;
 8004ac2:	f880 131c 	strb.w	r1, [r0, #796]	; 0x31c
      rccDisableTIM2();
 8004ac6:	6c11      	ldr	r1, [r2, #64]	; 0x40
 8004ac8:	f021 0101 	bic.w	r1, r1, #1
 8004acc:	6411      	str	r1, [r2, #64]	; 0x40
 8004ace:	6e11      	ldr	r1, [r2, #96]	; 0x60
 8004ad0:	f021 0101 	bic.w	r1, r1, #1
 8004ad4:	6611      	str	r1, [r2, #96]	; 0x60
 8004ad6:	6e12      	ldr	r2, [r2, #96]	; 0x60
 8004ad8:	e723      	b.n	8004922 <cmd_son+0x32>
    usart_deinit(sdp->usart);
 8004ada:	f8d5 0254 	ldr.w	r0, [r5, #596]	; 0x254
      rccDisableUSART1();
 8004ade:	491c      	ldr	r1, [pc, #112]	; (8004b50 <cmd_son+0x260>)
  u->CR1 = 0;
 8004ae0:	60c2      	str	r2, [r0, #12]
  u->CR2 = 0;
 8004ae2:	6102      	str	r2, [r0, #16]
  u->CR3 = 0;
 8004ae4:	6142      	str	r2, [r0, #20]
      rccDisableUSART1();
 8004ae6:	6c4e      	ldr	r6, [r1, #68]	; 0x44
  NVIC->__ICER[n >> 5U] = 1U << (n & 0x1FU);
 8004ae8:	481a      	ldr	r0, [pc, #104]	; (8004b54 <cmd_son+0x264>)
 8004aea:	f026 0610 	bic.w	r6, r6, #16
 8004aee:	644e      	str	r6, [r1, #68]	; 0x44
 8004af0:	6e4e      	ldr	r6, [r1, #100]	; 0x64
 8004af2:	f026 0610 	bic.w	r6, r6, #16
 8004af6:	664e      	str	r6, [r1, #100]	; 0x64
 8004af8:	6e49      	ldr	r1, [r1, #100]	; 0x64
 8004afa:	f8c0 3084 	str.w	r3, [r0, #132]	; 0x84
  NVIC->__ICPR[n >> 5U] = 1U << (n & 0x1FU);
 8004afe:	f8c0 3184 	str.w	r3, [r0, #388]	; 0x184
  NVIC->__IPR[n] = 0U;
 8004b02:	f880 2325 	strb.w	r2, [r0, #805]	; 0x325
 8004b06:	e751      	b.n	80049ac <cmd_son+0xbc>
    chprintf(chp, "Only 0 or 1 allowed. (%d) \r\n", stat);
 8004b08:	4620      	mov	r0, r4
 8004b0a:	4913      	ldr	r1, [pc, #76]	; (8004b58 <cmd_son+0x268>)
}
 8004b0c:	e8bd 40f8 	ldmia.w	sp!, {r3, r4, r5, r6, r7, lr}
    chprintf(chp, "Only 0 or 1 allowed. (%d) \r\n", stat);
 8004b10:	f7fe bda6 	b.w	8003660 <chprintf>
 8004b14:	20000c80 	.word	0x20000c80
 8004b18:	40020000 	.word	0x40020000
 8004b1c:	20000c98 	.word	0x20000c98
 8004b20:	20000ef4 	.word	0x20000ef4
 8004b24:	08006958 	.word	0x08006958
 8004b28:	20000cc8 	.word	0x20000cc8
 8004b2c:	20000ca4 	.word	0x20000ca4
 8004b30:	20000f24 	.word	0x20000f24
 8004b34:	20000f00 	.word	0x20000f00
 8004b38:	20000804 	.word	0x20000804
 8004b3c:	08006978 	.word	0x08006978
 8004b40:	080068b4 	.word	0x080068b4
 8004b44:	080068d4 	.word	0x080068d4
 8004b48:	08006908 	.word	0x08006908
 8004b4c:	08006924 	.word	0x08006924
 8004b50:	40023800 	.word	0x40023800
 8004b54:	e000e100 	.word	0xe000e100
 8004b58:	08006938 	.word	0x08006938
 8004b5c:	00000000 	.word	0x00000000

08004b60 <chMtxUnlock>:
 *
 * @param[in] mp        pointer to the @p mutex_t structure
 *
 * @api
 */
void chMtxUnlock(mutex_t *mp) {
 8004b60:	b538      	push	{r3, r4, r5, lr}
  thread_t *ctp = currp;
 8004b62:	4b16      	ldr	r3, [pc, #88]	; (8004bbc <chMtxUnlock+0x5c>)
void chMtxUnlock(mutex_t *mp) {
 8004b64:	4601      	mov	r1, r0
  thread_t *ctp = currp;
 8004b66:	695d      	ldr	r5, [r3, #20]
 8004b68:	2320      	movs	r3, #32
 8004b6a:	f383 8811 	msr	BASEPRI, r3
  return (bool)(tqp->next != (const thread_t *)tqp);
 8004b6e:	6800      	ldr	r0, [r0, #0]
    chDbgAssert(ctp->mtxlist == mp, "not next in list");

    /* Removes the top mutex from the thread's owned mutexes list and marks
       it as not owned. Note, it is assumed to be the same mutex passed as
       parameter of this function.*/
    ctp->mtxlist = mp->next;
 8004b70:	68cb      	ldr	r3, [r1, #12]
 8004b72:	63ab      	str	r3, [r5, #56]	; 0x38

    /* If a thread is waiting on the mutex then the fun part begins.*/
    if (chMtxQueueNotEmptyS(mp)) {
 8004b74:	4288      	cmp	r0, r1
 8004b76:	d01b      	beq.n	8004bb0 <chMtxUnlock+0x50>
      thread_t *tp;

      /* Recalculates the optimal thread priority by scanning the owned
         mutexes list.*/
      tprio_t newprio = ctp->realprio;
 8004b78:	6bec      	ldr	r4, [r5, #60]	; 0x3c
      lmp = ctp->mtxlist;
      while (lmp != NULL) {
 8004b7a:	b14b      	cbz	r3, 8004b90 <chMtxUnlock+0x30>
 8004b7c:	681a      	ldr	r2, [r3, #0]
        /* If the highest priority thread waiting in the mutexes list has a
           greater priority than the current thread base priority then the
           final priority will have at least that priority.*/
        if (chMtxQueueNotEmptyS(lmp) &&
 8004b7e:	4293      	cmp	r3, r2
 8004b80:	d003      	beq.n	8004b8a <chMtxUnlock+0x2a>
 8004b82:	6892      	ldr	r2, [r2, #8]
 8004b84:	4294      	cmp	r4, r2
 8004b86:	bf38      	it	cc
 8004b88:	4614      	movcc	r4, r2
            (lmp->queue.next->prio > newprio)) {
          newprio = lmp->queue.next->prio;
        }
        lmp = lmp->next;
 8004b8a:	68db      	ldr	r3, [r3, #12]
      while (lmp != NULL) {
 8004b8c:	2b00      	cmp	r3, #0
 8004b8e:	d1f5      	bne.n	8004b7c <chMtxUnlock+0x1c>
#if CH_CFG_USE_MUTEXES_RECURSIVE == TRUE
      mp->cnt = (cnt_t)1;
#endif
      tp = queue_fifo_remove(&mp->queue);
      mp->owner = tp;
      mp->next = tp->mtxlist;
 8004b90:	6b82      	ldr	r2, [r0, #56]	; 0x38
  tqp->next             = tp->queue.next;
 8004b92:	6803      	ldr	r3, [r0, #0]
      ctp->prio = newprio;
 8004b94:	60ac      	str	r4, [r5, #8]
 8004b96:	600b      	str	r3, [r1, #0]
  tqp->next->queue.prev = (thread_t *)tqp;
 8004b98:	6059      	str	r1, [r3, #4]
      mp->next = tp->mtxlist;
 8004b9a:	e9c1 0202 	strd	r0, r2, [r1, #8]
      tp->mtxlist = mp;
 8004b9e:	6381      	str	r1, [r0, #56]	; 0x38

      /* Note, not using chSchWakeupS() because that function expects the
         current thread to have the higher or equal priority than the ones
         in the ready list. This is not necessarily true here because we
         just changed priority.*/
      (void) chSchReadyI(tp);
 8004ba0:	f7fc fe7e 	bl	80018a0 <chSchReadyI>
      chSchRescheduleS();
 8004ba4:	f7ff fe94 	bl	80048d0 <chSchRescheduleS>
 8004ba8:	2300      	movs	r3, #0
 8004baa:	f383 8811 	msr	BASEPRI, r3
#if CH_CFG_USE_MUTEXES_RECURSIVE == TRUE
  }
#endif

  chSysUnlock();
}
 8004bae:	bd38      	pop	{r3, r4, r5, pc}
      mp->owner = NULL;
 8004bb0:	2300      	movs	r3, #0
 8004bb2:	6083      	str	r3, [r0, #8]
 8004bb4:	2300      	movs	r3, #0
 8004bb6:	f383 8811 	msr	BASEPRI, r3
}
 8004bba:	bd38      	pop	{r3, r4, r5, pc}
 8004bbc:	2000189c 	.word	0x2000189c

08004bc0 <main>:

  /* Reset of all peripherals. AHB3 is not reseted because it could have
     been initialized in the board initialization file (board.c).
     Note, GPIOs are not reset because initialized before this point in
     board files.*/
  rccResetAHB1(~STM32_GPIO_EN_MASK);
 8004bc0:	4bba      	ldr	r3, [pc, #744]	; (8004eac <main+0x2ec>)
  PWR->CR |= PWR_CR_DBP;
 8004bc2:	48bb      	ldr	r0, [pc, #748]	; (8004eb0 <main+0x2f0>)
  rccResetAHB1(~STM32_GPIO_EN_MASK);
 8004bc4:	691a      	ldr	r2, [r3, #16]
 8004bc6:	f062 021f 	orn	r2, r2, #31
}

/*
 * Application entry point.
 */
int main(void) {
 8004bca:	e92d 4880 	stmdb	sp!, {r7, fp, lr}
 8004bce:	611a      	str	r2, [r3, #16]
 8004bd0:	691a      	ldr	r2, [r3, #16]
 8004bd2:	f002 021f 	and.w	r2, r2, #31
 8004bd6:	611a      	str	r2, [r3, #16]
#if !defined(STM32F410xx)
  rccResetAHB2(~0);
 8004bd8:	f04f 34ff 	mov.w	r4, #4294967295	; 0xffffffff
  rccResetAHB1(~STM32_GPIO_EN_MASK);
 8004bdc:	691a      	ldr	r2, [r3, #16]
  rccResetAHB2(~0);
 8004bde:	695a      	ldr	r2, [r3, #20]
 8004be0:	615c      	str	r4, [r3, #20]
 8004be2:	2200      	movs	r2, #0
 8004be4:	6959      	ldr	r1, [r3, #20]
 8004be6:	615a      	str	r2, [r3, #20]
 8004be8:	6959      	ldr	r1, [r3, #20]
#endif
  rccResetAPB1(~RCC_APB1RSTR_PWRRST);
 8004bea:	6a19      	ldr	r1, [r3, #32]
 8004bec:	f061 5180 	orn	r1, r1, #268435456	; 0x10000000
 8004bf0:	6219      	str	r1, [r3, #32]
 8004bf2:	6a19      	ldr	r1, [r3, #32]
 8004bf4:	f001 5180 	and.w	r1, r1, #268435456	; 0x10000000
 8004bf8:	6219      	str	r1, [r3, #32]
 8004bfa:	6a19      	ldr	r1, [r3, #32]
  rccResetAPB2(~0);
 8004bfc:	6a59      	ldr	r1, [r3, #36]	; 0x24
 8004bfe:	625c      	str	r4, [r3, #36]	; 0x24
 8004c00:	6a59      	ldr	r1, [r3, #36]	; 0x24
 8004c02:	625a      	str	r2, [r3, #36]	; 0x24
 8004c04:	6a59      	ldr	r1, [r3, #36]	; 0x24

  /* PWR clock enabled.*/
  rccEnablePWRInterface(true);
 8004c06:	6c19      	ldr	r1, [r3, #64]	; 0x40
 8004c08:	f041 5180 	orr.w	r1, r1, #268435456	; 0x10000000
 8004c0c:	6419      	str	r1, [r3, #64]	; 0x40
 8004c0e:	6e19      	ldr	r1, [r3, #96]	; 0x60
 8004c10:	f041 5180 	orr.w	r1, r1, #268435456	; 0x10000000
 8004c14:	6619      	str	r1, [r3, #96]	; 0x60
 8004c16:	6e19      	ldr	r1, [r3, #96]	; 0x60
  PWR->CR |= PWR_CR_DBP;
 8004c18:	6801      	ldr	r1, [r0, #0]
 8004c1a:	f441 7180 	orr.w	r1, r1, #256	; 0x100
 8004c1e:	6001      	str	r1, [r0, #0]
  if ((RCC->BDCR & STM32_RTCSEL_MASK) != STM32_RTCSEL) {
 8004c20:	6f19      	ldr	r1, [r3, #112]	; 0x70
 8004c22:	f401 7140 	and.w	r1, r1, #768	; 0x300
 8004c26:	f5b1 7f00 	cmp.w	r1, #512	; 0x200
 8004c2a:	b091      	sub	sp, #68	; 0x44
 8004c2c:	d003      	beq.n	8004c36 <main+0x76>
    RCC->BDCR = RCC_BDCR_BDRST;
 8004c2e:	f44f 3180 	mov.w	r1, #65536	; 0x10000
 8004c32:	6719      	str	r1, [r3, #112]	; 0x70
    RCC->BDCR = 0;
 8004c34:	671a      	str	r2, [r3, #112]	; 0x70
  PWR->CSR &= ~PWR_CSR_BRE;
 8004c36:	4f9e      	ldr	r7, [pc, #632]	; (8004eb0 <main+0x2f0>)
  NVIC->__IPR[n] = NVIC_PRIORITY_MASK(prio);
 8004c38:	f8df 82e8 	ldr.w	r8, [pc, #744]	; 8004f24 <main+0x364>
 8004c3c:	687a      	ldr	r2, [r7, #4]
  icup->state  = ICU_STOP;
 8004c3e:	4d9d      	ldr	r5, [pc, #628]	; (8004eb4 <main+0x2f4>)
 8004c40:	499d      	ldr	r1, [pc, #628]	; (8004eb8 <main+0x2f8>)
  sdObjectInit(&SD1, NULL, notify1);
 8004c42:	489e      	ldr	r0, [pc, #632]	; (8004ebc <main+0x2fc>)
  sdObjectInit(&SD2, NULL, notify2);
 8004c44:	4c9e      	ldr	r4, [pc, #632]	; (8004ec0 <main+0x300>)
  sdObjectInit(&SD6, NULL, notify6);
 8004c46:	f8df 92e0 	ldr.w	r9, [pc, #736]	; 8004f28 <main+0x368>
 8004c4a:	2360      	movs	r3, #96	; 0x60
  NVIC->__ICPR[n >> 5U] = 1U << (n & 0x1FU);
 8004c4c:	2640      	movs	r6, #64	; 0x40
 8004c4e:	f422 7200 	bic.w	r2, r2, #512	; 0x200
 8004c52:	607a      	str	r2, [r7, #4]
 8004c54:	f04f 0a80 	mov.w	sl, #128	; 0x80
  NVIC->__IPR[n] = NVIC_PRIORITY_MASK(prio);
 8004c58:	f888 3306 	strb.w	r3, [r8, #774]	; 0x306
  NVIC->__ICPR[n >> 5U] = 1U << (n & 0x1FU);
 8004c5c:	f44f 7280 	mov.w	r2, #256	; 0x100
 8004c60:	f8c8 6180 	str.w	r6, [r8, #384]	; 0x180
  NVIC->__ISER[n >> 5U] = 1U << (n & 0x1FU);
 8004c64:	f8c8 6000 	str.w	r6, [r8]
  NVIC->__ICPR[n >> 5U] = 1U << (n & 0x1FU);
 8004c68:	f44f 7600 	mov.w	r6, #512	; 0x200
  NVIC->__IPR[n] = NVIC_PRIORITY_MASK(prio);
 8004c6c:	f888 3307 	strb.w	r3, [r8, #775]	; 0x307
  NVIC->__ICPR[n >> 5U] = 1U << (n & 0x1FU);
 8004c70:	f8c8 a180 	str.w	sl, [r8, #384]	; 0x180
  NVIC->__ISER[n >> 5U] = 1U << (n & 0x1FU);
 8004c74:	f8c8 a000 	str.w	sl, [r8]
  NVIC->__IPR[n] = NVIC_PRIORITY_MASK(prio);
 8004c78:	f888 3308 	strb.w	r3, [r8, #776]	; 0x308
  NVIC->__ICPR[n >> 5U] = 1U << (n & 0x1FU);
 8004c7c:	f8c8 2180 	str.w	r2, [r8, #384]	; 0x180
  NVIC->__ISER[n >> 5U] = 1U << (n & 0x1FU);
 8004c80:	f8c8 2000 	str.w	r2, [r8]
  NVIC->__IPR[n] = NVIC_PRIORITY_MASK(prio);
 8004c84:	f888 3309 	strb.w	r3, [r8, #777]	; 0x309
  NVIC->__ICPR[n >> 5U] = 1U << (n & 0x1FU);
 8004c88:	f8c8 6180 	str.w	r6, [r8, #384]	; 0x180
  NVIC->__ISER[n >> 5U] = 1U << (n & 0x1FU);
 8004c8c:	f8c8 6000 	str.w	r6, [r8]
  NVIC->__ICPR[n >> 5U] = 1U << (n & 0x1FU);
 8004c90:	f44f 6680 	mov.w	r6, #1024	; 0x400
  NVIC->__IPR[n] = NVIC_PRIORITY_MASK(prio);
 8004c94:	f888 330a 	strb.w	r3, [r8, #778]	; 0x30a
  NVIC->__ICPR[n >> 5U] = 1U << (n & 0x1FU);
 8004c98:	f8c8 6180 	str.w	r6, [r8, #384]	; 0x180
  NVIC->__ISER[n >> 5U] = 1U << (n & 0x1FU);
 8004c9c:	f8c8 6000 	str.w	r6, [r8]
  NVIC->__ICPR[n >> 5U] = 1U << (n & 0x1FU);
 8004ca0:	f44f 0600 	mov.w	r6, #8388608	; 0x800000
  NVIC->__IPR[n] = NVIC_PRIORITY_MASK(prio);
 8004ca4:	f888 3317 	strb.w	r3, [r8, #791]	; 0x317
  NVIC->__ICPR[n >> 5U] = 1U << (n & 0x1FU);
 8004ca8:	f8c8 6180 	str.w	r6, [r8, #384]	; 0x180
  NVIC->__ISER[n >> 5U] = 1U << (n & 0x1FU);
 8004cac:	f8c8 6000 	str.w	r6, [r8]
  NVIC->__IPR[n] = NVIC_PRIORITY_MASK(prio);
 8004cb0:	f888 3328 	strb.w	r3, [r8, #808]	; 0x328
  ICUD1.tim = STM32_TIM1;
 8004cb4:	4b83      	ldr	r3, [pc, #524]	; (8004ec4 <main+0x304>)
  NVIC->__ICPR[n >> 5U] = 1U << (n & 0x1FU);
 8004cb6:	f8c8 2184 	str.w	r2, [r8, #388]	; 0x184
  icup->config = NULL;
 8004cba:	2700      	movs	r7, #0
  NVIC->__ISER[n >> 5U] = 1U << (n & 0x1FU);
 8004cbc:	f8c8 2004 	str.w	r2, [r8, #4]
  icup->state  = ICU_STOP;
 8004cc0:	f04f 0b01 	mov.w	fp, #1
 8004cc4:	60eb      	str	r3, [r5, #12]
  ICUD2.tim = STM32_TIM2;
 8004cc6:	f04f 4380 	mov.w	r3, #1073741824	; 0x40000000
 8004cca:	60cb      	str	r3, [r1, #12]
 8004ccc:	f881 b000 	strb.w	fp, [r1]
  icup->config = NULL;
 8004cd0:	604f      	str	r7, [r1, #4]
  sdObjectInit(&SD1, NULL, notify1);
 8004cd2:	497d      	ldr	r1, [pc, #500]	; (8004ec8 <main+0x308>)
  icup->state  = ICU_STOP;
 8004cd4:	f885 b000 	strb.w	fp, [r5]
  icup->config = NULL;
 8004cd8:	606f      	str	r7, [r5, #4]
 8004cda:	f7fc fb09 	bl	80012f0 <sdObjectInit.constprop.0>
  SD1.usart = USART1;
 8004cde:	4b7b      	ldr	r3, [pc, #492]	; (8004ecc <main+0x30c>)
 8004ce0:	f8c0 3254 	str.w	r3, [r0, #596]	; 0x254
  sdObjectInit(&SD2, NULL, notify2);
 8004ce4:	497a      	ldr	r1, [pc, #488]	; (8004ed0 <main+0x310>)
  usbp->state        = USB_STOP;
 8004ce6:	4e7b      	ldr	r6, [pc, #492]	; (8004ed4 <main+0x314>)
 *
 * @notapi
 */
void _heap_init(void) {

  default_heap.provider = chCoreAllocAlignedWithOffset;
 8004ce8:	4d7b      	ldr	r5, [pc, #492]	; (8004ed8 <main+0x318>)
 8004cea:	4620      	mov	r0, r4
 8004cec:	f7fc fb00 	bl	80012f0 <sdObjectInit.constprop.0>
  SD2.usart = USART2;
 8004cf0:	4b7a      	ldr	r3, [pc, #488]	; (8004edc <main+0x31c>)
  sdObjectInit(&SD6, NULL, notify6);
 8004cf2:	497b      	ldr	r1, [pc, #492]	; (8004ee0 <main+0x320>)
  SD2.usart = USART2;
 8004cf4:	f8c4 3254 	str.w	r3, [r4, #596]	; 0x254
  sdObjectInit(&SD6, NULL, notify6);
 8004cf8:	4648      	mov	r0, r9
 8004cfa:	f7fc faf9 	bl	80012f0 <sdObjectInit.constprop.0>

#if OSAL_ST_MODE == OSAL_ST_MODE_FREERUNNING
  /* Free running counter mode.*/

  /* Enabling timer clock.*/
  ST_ENABLE_CLOCK();
 8004cfe:	4b6b      	ldr	r3, [pc, #428]	; (8004eac <main+0x2ec>)
 8004d00:	f886 b000 	strb.w	fp, [r6]
 8004d04:	6c1a      	ldr	r2, [r3, #64]	; 0x40
    usbp->in_params[i]  = NULL;
 8004d06:	61f7      	str	r7, [r6, #28]
 8004d08:	f042 0208 	orr.w	r2, r2, #8
 8004d0c:	641a      	str	r2, [r3, #64]	; 0x40
 8004d0e:	6e1a      	ldr	r2, [r3, #96]	; 0x60

  /* Enabling the stop mode during debug for this timer.*/
  ST_ENABLE_STOP();
 8004d10:	4974      	ldr	r1, [pc, #464]	; (8004ee4 <main+0x324>)
    usbp->out_params[i] = NULL;
 8004d12:	62b7      	str	r7, [r6, #40]	; 0x28
  ST_ENABLE_CLOCK();
 8004d14:	f042 0208 	orr.w	r2, r2, #8
 8004d18:	661a      	str	r2, [r3, #96]	; 0x60
 8004d1a:	6e1b      	ldr	r3, [r3, #96]	; 0x60
  ST_ENABLE_STOP();
 8004d1c:	688a      	ldr	r2, [r1, #8]
  tqp->next = (thread_t *)tqp;
 8004d1e:	4c72      	ldr	r4, [pc, #456]	; (8004ee8 <main+0x328>)
    usbp->in_params[i]  = NULL;
 8004d20:	6237      	str	r7, [r6, #32]
 8004d22:	f042 0208 	orr.w	r2, r2, #8
  usbp->transmitting = 0;
 8004d26:	e9c6 7701 	strd	r7, r7, [r6, #4]
    usbp->out_params[i] = NULL;
 8004d2a:	62f7      	str	r7, [r6, #44]	; 0x2c
    usbp->in_params[i]  = NULL;
 8004d2c:	6277      	str	r7, [r6, #36]	; 0x24
    usbp->out_params[i] = NULL;
 8004d2e:	6337      	str	r7, [r6, #48]	; 0x30
 8004d30:	608a      	str	r2, [r1, #8]

  /* Initializing the counter in free running mode.*/
  STM32_ST_TIM->PSC    = (ST_CLOCK_SRC / OSAL_ST_FREQUENCY) - 1;
 8004d32:	4a6e      	ldr	r2, [pc, #440]	; (8004eec <main+0x32c>)
  tqp->prev = (thread_t *)tqp;
 8004d34:	6064      	str	r4, [r4, #4]
  STM32_ST_TIM->ARR    = ST_ARR_INIT;
 8004d36:	f04f 3cff 	mov.w	ip, #4294967295	; 0xffffffff
  STM32_ST_TIM->PSC    = (ST_CLOCK_SRC / OSAL_ST_FREQUENCY) - 1;
 8004d3a:	f242 01cf 	movw	r1, #8399	; 0x20cf
 8004d3e:	6291      	str	r1, [r2, #40]	; 0x28
  STM32_ST_TIM->ARR    = ST_ARR_INIT;
 8004d40:	f8c2 c02c 	str.w	ip, [r2, #44]	; 0x2c
  STM32_ST_TIM->CCMR1  = 0;
 8004d44:	6197      	str	r7, [r2, #24]
  STM32_ST_TIM->CCR[0] = 0;
 8004d46:	6357      	str	r7, [r2, #52]	; 0x34
  STM32_ST_TIM->CCR[2] = 0;
#endif
#if ST_LLD_NUM_ALARMS > 3
  STM32_ST_TIM->CCR[3] = 0;
#endif
  STM32_ST_TIM->DIER   = 0;
 8004d48:	60d7      	str	r7, [r2, #12]
  STM32_ST_TIM->CR2    = 0;
 8004d4a:	6057      	str	r7, [r2, #4]
  STM32_ST_TIM->EGR    = TIM_EGR_UG;
 8004d4c:	f8c2 b014 	str.w	fp, [r2, #20]
  STM32_ST_TIM->CR1    = TIM_CR1_CEN;
 8004d50:	f8c2 b000 	str.w	fp, [r2]
  SD6.usart = USART6;
 8004d54:	f502 3284 	add.w	r2, r2, #67584	; 0x10800
  NVIC->__IPR[n] = NVIC_PRIORITY_MASK(prio);
 8004d58:	f888 a332 	strb.w	sl, [r8, #818]	; 0x332
 8004d5c:	f8c9 2254 	str.w	r2, [r9, #596]	; 0x254
  USBD1.otgparams = &fsparams;
 8004d60:	4a63      	ldr	r2, [pc, #396]	; (8004ef0 <main+0x330>)
 8004d62:	65b2      	str	r2, [r6, #88]	; 0x58
  USBD1.otg       = OTG_FS;
 8004d64:	f04f 42a0 	mov.w	r2, #1342177280	; 0x50000000
 8004d68:	6572      	str	r2, [r6, #84]	; 0x54
  NVIC->__ICPR[n >> 5U] = 1U << (n & 0x1FU);
 8004d6a:	f44f 2280 	mov.w	r2, #262144	; 0x40000
  tqp->next = (thread_t *)tqp;
 8004d6e:	4b61      	ldr	r3, [pc, #388]	; (8004ef4 <main+0x334>)
 8004d70:	f8c8 2184 	str.w	r2, [r8, #388]	; 0x184
  NVIC->__ISER[n >> 5U] = 1U << (n & 0x1FU);
 8004d74:	f8c8 2004 	str.w	r2, [r8, #4]
 8004d78:	4a5f      	ldr	r2, [pc, #380]	; (8004ef8 <main+0x338>)
 8004d7a:	6024      	str	r4, [r4, #0]
  ch.rlist.newer = (thread_t *)&ch.rlist;
 8004d7c:	e9c4 7402 	strd	r7, r4, [r4, #8]
 8004d80:	602a      	str	r2, [r5, #0]
 8004d82:	f105 020c 	add.w	r2, r5, #12
  tqp->prev = (thread_t *)tqp;
 8004d86:	e9c5 2203 	strd	r2, r2, [r5, #12]
/* Module local functions.                                                   */
/*===========================================================================*/

static inline void dyn_list_init(dyn_list_t *dlp) {

  dlp->next = (dyn_element_t *)dlp;
 8004d8a:	f103 0210 	add.w	r2, r3, #16
 8004d8e:	611a      	str	r2, [r3, #16]
             (size >= sizeof(void *)) &&
             (align >= PORT_NATURAL_ALIGN) &&
             MEM_IS_VALID_ALIGNMENT(align));

  mp->next = NULL;
  mp->object_size = size;
 8004d90:	2214      	movs	r2, #20
 8004d92:	619a      	str	r2, [r3, #24]
 8004d94:	f103 0224 	add.w	r2, r3, #36	; 0x24
 8004d98:	625a      	str	r2, [r3, #36]	; 0x24
 8004d9a:	f103 0228 	add.w	r2, r3, #40	; 0x28
 8004d9e:	629a      	str	r2, [r3, #40]	; 0x28
 8004da0:	221c      	movs	r2, #28
 8004da2:	631a      	str	r2, [r3, #48]	; 0x30
 8004da4:	f103 023c 	add.w	r2, r3, #60	; 0x3c
 8004da8:	63da      	str	r2, [r3, #60]	; 0x3c
 8004daa:	f103 0240 	add.w	r2, r3, #64	; 0x40
 8004dae:	641a      	str	r2, [r3, #64]	; 0x40
 8004db0:	f103 0244 	add.w	r2, r3, #68	; 0x44
 8004db4:	645a      	str	r2, [r3, #68]	; 0x44
  ch.vtlist.next = (virtual_timer_t *)&ch.vtlist;
 8004db6:	f104 0218 	add.w	r2, r4, #24
  mp->align = align;
  mp->provider = provider;
 8004dba:	4850      	ldr	r0, [pc, #320]	; (8004efc <main+0x33c>)
 8004dbc:	6218      	str	r0, [r3, #32]
  ch.vtlist.prev = (virtual_timer_t *)&ch.vtlist;
 8004dbe:	e9c4 2206 	strd	r2, r2, [r4, #24]
  mp->align = align;
 8004dc2:	2204      	movs	r2, #4
  mp->provider = provider;
 8004dc4:	6398      	str	r0, [r3, #56]	; 0x38
 8004dc6:	e9c3 3300 	strd	r3, r3, [r3]
  ch_memcore.basemem = __heap_base__;
 8004dca:	494d      	ldr	r1, [pc, #308]	; (8004f00 <main+0x340>)
 8004dcc:	484d      	ldr	r0, [pc, #308]	; (8004f04 <main+0x344>)
  mp->owner = NULL;
 8004dce:	609f      	str	r7, [r3, #8]
  mp->next = NULL;
 8004dd0:	615f      	str	r7, [r3, #20]
 8004dd2:	62df      	str	r7, [r3, #44]	; 0x2c
  mp->align = align;
 8004dd4:	61da      	str	r2, [r3, #28]
 8004dd6:	635a      	str	r2, [r3, #52]	; 0x34
  ch_memcore.topmem  = __heap_end__;
 8004dd8:	4b4b      	ldr	r3, [pc, #300]	; (8004f08 <main+0x348>)
  ch.rlist.older = (thread_t *)&ch.rlist;
 8004dda:	6124      	str	r4, [r4, #16]
 8004ddc:	e9c1 0300 	strd	r0, r3, [r1]
  tmp->cumulative = (rttime_t)0;
 8004de0:	2000      	movs	r0, #0
 8004de2:	2100      	movs	r1, #0
  ch.vtlist.lasttime = (systime_t)0;
 8004de4:	e9c4 c708 	strd	ip, r7, [r4, #32]
  H_NEXT(&default_heap.header) = NULL;
  H_PAGES(&default_heap.header) = 0;
 8004de8:	e9c5 7701 	strd	r7, r7, [r5, #4]
  ch.tm.offset = (rtcnt_t)0;
 8004dec:	6727      	str	r7, [r4, #112]	; 0x70
 8004dee:	616f      	str	r7, [r5, #20]
  tmp->best       = (rtcnt_t)-1;
 8004df0:	f8cd c028 	str.w	ip, [sp, #40]	; 0x28
  tmp->cumulative = (rttime_t)0;
 8004df4:	e9cd 010e 	strd	r0, r1, [sp, #56]	; 0x38
  tmp->last       = (rtcnt_t)0;
 8004df8:	e9cd 770b 	strd	r7, r7, [sp, #44]	; 0x2c
  tmp->cumulative = (rttime_t)0;
 8004dfc:	4690      	mov	r8, r2
  tmp->n          = (ucnt_t)0;
 8004dfe:	970d      	str	r7, [sp, #52]	; 0x34
    chTMStartMeasurementX(&tm);
 8004e00:	a80a      	add	r0, sp, #40	; 0x28
 8004e02:	f7fc fccd 	bl	80017a0 <chTMStartMeasurementX>
    chTMStopMeasurementX(&tm);
 8004e06:	a80a      	add	r0, sp, #40	; 0x28
 8004e08:	f7fc fca2 	bl	8001750 <chTMStopMeasurementX>
  } while (i > 0U);
 8004e0c:	f1b8 0801 	subs.w	r8, r8, #1
 8004e10:	d1f6      	bne.n	8004e00 <main+0x240>
  REG_INSERT(tp);
 8004e12:	4b3e      	ldr	r3, [pc, #248]	; (8004f0c <main+0x34c>)
 8004e14:	6921      	ldr	r1, [r4, #16]
  ch.tm.offset = tm.best;
 8004e16:	9a0a      	ldr	r2, [sp, #40]	; 0x28
 8004e18:	6722      	str	r2, [r4, #112]	; 0x70
  tp->prio      = prio;
 8004e1a:	2080      	movs	r0, #128	; 0x80
  tp->refs      = (trefs_t)1;
 8004e1c:	2701      	movs	r7, #1
  tqp->next = (thread_t *)tqp;
 8004e1e:	f103 022c 	add.w	r2, r3, #44	; 0x2c
  tp->name      = name;
 8004e22:	f8df e108 	ldr.w	lr, [pc, #264]	; 8004f2c <main+0x36c>
  tp->flags     = CH_FLAG_MODE_STATIC;
 8004e26:	f884 804d 	strb.w	r8, [r4, #77]	; 0x4d
  tlp->next = (thread_t *)tlp;
 8004e2a:	f103 0c28 	add.w	ip, r3, #40	; 0x28
  tp->epending  = (eventmask_t)0;
 8004e2e:	e9c4 8818 	strd	r8, r8, [r4, #96]	; 0x60
  REG_INSERT(tp);
 8004e32:	e9c4 410e 	strd	r4, r1, [r4, #56]	; 0x38
  tp->prio      = prio;
 8004e36:	6360      	str	r0, [r4, #52]	; 0x34
  tp->realprio  = prio;
 8004e38:	66a0      	str	r0, [r4, #104]	; 0x68
  tp->refs      = (trefs_t)1;
 8004e3a:	f884 704e 	strb.w	r7, [r4, #78]	; 0x4e
  tp->name      = name;
 8004e3e:	f8c4 e044 	str.w	lr, [r4, #68]	; 0x44
 8004e42:	f04f 0920 	mov.w	r9, #32
  REG_INSERT(tp);
 8004e46:	60cb      	str	r3, [r1, #12]
  currp = _thread_init(&ch.mainthread, (const char *)&ch_debug, NORMALPRIO);
 8004e48:	e9c4 3304 	strd	r3, r3, [r4, #16]
  tqp->next = (thread_t *)tqp;
 8004e4c:	e9c4 c215 	strd	ip, r2, [r4, #84]	; 0x54
  currp->state = CH_STATE_CURRENT;
 8004e50:	f884 704c 	strb.w	r7, [r4, #76]	; 0x4c
  currp->wabase = NULL;
 8004e54:	f8c4 8048 	str.w	r8, [r4, #72]	; 0x48
  tqp->prev = (thread_t *)tqp;
 8004e58:	65e2      	str	r2, [r4, #92]	; 0x5c
 8004e5a:	f389 8811 	msr	BASEPRI, r9
  __ASM volatile ("cpsie i" : : : "memory");
 8004e5e:	b662      	cpsie	i
__STATIC_INLINE void __NVIC_SetPriorityGrouping(uint32_t PriorityGroup)
{
  uint32_t reg_value;
  uint32_t PriorityGroupTmp = (PriorityGroup & (uint32_t)0x07UL);             /* only values 0..7 are used          */

  reg_value  =  SCB->AIRCR;                                                   /* read old register configuration    */
 8004e60:	4b2b      	ldr	r3, [pc, #172]	; (8004f10 <main+0x350>)
  reg_value &= ~((uint32_t)(SCB_AIRCR_VECTKEY_Msk | SCB_AIRCR_PRIGROUP_Msk)); /* clear bits to change               */
  reg_value  =  (reg_value                                   |
 8004e62:	4a2c      	ldr	r2, [pc, #176]	; (8004f14 <main+0x354>)
  reg_value  =  SCB->AIRCR;                                                   /* read old register configuration    */
 8004e64:	68d9      	ldr	r1, [r3, #12]
  reg_value &= ~((uint32_t)(SCB_AIRCR_VECTKEY_Msk | SCB_AIRCR_PRIGROUP_Msk)); /* clear bits to change               */
 8004e66:	f64f 00ff 	movw	r0, #63743	; 0xf8ff
 8004e6a:	4001      	ands	r1, r0
  CoreDebug->DEMCR |= CoreDebug_DEMCR_TRCENA_Msk;
 8004e6c:	f100 4060 	add.w	r0, r0, #3758096384	; 0xe0000000
  reg_value  =  (reg_value                                   |
 8004e70:	430a      	orrs	r2, r1
 8004e72:	f6a0 300f 	subw	r0, r0, #2831	; 0xb0f
                ((uint32_t)0x5FAUL << SCB_AIRCR_VECTKEY_Pos) |
                (PriorityGroupTmp << SCB_AIRCR_PRIGROUP_Pos)  );              /* Insert write key and priority group */
  SCB->AIRCR =  reg_value;
 8004e76:	60da      	str	r2, [r3, #12]
 8004e78:	68c2      	ldr	r2, [r0, #12]
  DWT->CTRL |= DWT_CTRL_CYCCNTENA_Msk;
 8004e7a:	4927      	ldr	r1, [pc, #156]	; (8004f18 <main+0x358>)
  CoreDebug->DEMCR |= CoreDebug_DEMCR_TRCENA_Msk;
 8004e7c:	f042 7280 	orr.w	r2, r2, #16777216	; 0x1000000
 8004e80:	60c2      	str	r2, [r0, #12]
  DWT->CTRL |= DWT_CTRL_CYCCNTENA_Msk;
 8004e82:	680a      	ldr	r2, [r1, #0]
  {
    NVIC->IP[((uint32_t)IRQn)]               = (uint8_t)((priority << (8U - __NVIC_PRIO_BITS)) & (uint32_t)0xFFUL);
  }
  else
  {
    SCB->SHP[(((uint32_t)IRQn) & 0xFUL)-4UL] = (uint8_t)((priority << (8U - __NVIC_PRIO_BITS)) & (uint32_t)0xFFUL);
 8004e84:	2010      	movs	r0, #16
 8004e86:	433a      	orrs	r2, r7
 8004e88:	600a      	str	r2, [r1, #0]
 8004e8a:	77d8      	strb	r0, [r3, #31]
 8004e8c:	f883 9022 	strb.w	r9, [r3, #34]	; 0x22
  __ASM volatile ("MSR basepri, %0" : : "r" (basePri) : "memory");
 8004e90:	f388 8811 	msr	BASEPRI, r8
  __ASM volatile ("cpsie i" : : : "memory");
 8004e94:	b662      	cpsie	i
  __ASM volatile ("MSR basepri, %0" : : "r" (basePri) : "memory");
 8004e96:	f389 8811 	msr	BASEPRI, r9
  tp = chThdCreateSuspendedI(tdp);
 8004e9a:	4820      	ldr	r0, [pc, #128]	; (8004f1c <main+0x35c>)
 8004e9c:	f7fc fc88 	bl	80017b0 <chThdCreateSuspendedI>
  chSchWakeupS(tp, MSG_OK);
 8004ea0:	f7fd fb16 	bl	80024d0 <chSchWakeupS.constprop.0>
 8004ea4:	f388 8811 	msr	BASEPRI, r8
   *   RTOS is active.
   */
  halInit();
  chSysInit();

  palSetPadMode(GPIOC, 13, PAL_MODE_OUTPUT_PUSHPULL ); // LED
 8004ea8:	481d      	ldr	r0, [pc, #116]	; (8004f20 <main+0x360>)
 8004eaa:	e041      	b.n	8004f30 <main+0x370>
 8004eac:	40023800 	.word	0x40023800
 8004eb0:	40007000 	.word	0x40007000
 8004eb4:	20000c68 	.word	0x20000c68
 8004eb8:	20000c80 	.word	0x20000c80
 8004ebc:	20000c98 	.word	0x20000c98
 8004ec0:	20000ef4 	.word	0x20000ef4
 8004ec4:	40010000 	.word	0x40010000
 8004ec8:	080015a1 	.word	0x080015a1
 8004ecc:	40011000 	.word	0x40011000
 8004ed0:	080015b1 	.word	0x080015b1
 8004ed4:	2000183c 	.word	0x2000183c
 8004ed8:	20001a48 	.word	0x20001a48
 8004edc:	40004400 	.word	0x40004400
 8004ee0:	080015c1 	.word	0x080015c1
 8004ee4:	e0042000 	.word	0xe0042000
 8004ee8:	2000189c 	.word	0x2000189c
 8004eec:	40000c00 	.word	0x40000c00
 8004ef0:	08006a8c 	.word	0x08006a8c
 8004ef4:	20001910 	.word	0x20001910
 8004ef8:	08001561 	.word	0x08001561
 8004efc:	08001721 	.word	0x08001721
 8004f00:	20001a30 	.word	0x20001a30
 8004f04:	200044e8 	.word	0x200044e8
 8004f08:	20010000 	.word	0x20010000
 8004f0c:	200018c8 	.word	0x200018c8
 8004f10:	e000ed00 	.word	0xe000ed00
 8004f14:	05fa0300 	.word	0x05fa0300
 8004f18:	e0001000 	.word	0xe0001000
 8004f1c:	08006a9c 	.word	0x08006a9c
 8004f20:	40020800 	.word	0x40020800
 8004f24:	e000e100 	.word	0xe000e100
 8004f28:	20001150 	.word	0x20001150
 8004f2c:	080069d0 	.word	0x080069d0
  sdup->vmt = &vmt;
 8004f30:	f8df a39c 	ldr.w	sl, [pc, #924]	; 80052d0 <main+0x710>
 8004f34:	463a      	mov	r2, r7
 8004f36:	f44f 5100 	mov.w	r1, #8192	; 0x2000
 8004f3a:	f7fc ff71 	bl	8001e20 <_pal_lld_setgroupmode>
  palSetPadMode(GPIOC, 14, PAL_MODE_OUTPUT_PUSHPULL ); // Debug
 8004f3e:	463a      	mov	r2, r7
 8004f40:	48c9      	ldr	r0, [pc, #804]	; (8005268 <main+0x6a8>)
 8004f42:	f44f 4180 	mov.w	r1, #16384	; 0x4000
 8004f46:	f7fc ff6b 	bl	8001e20 <_pal_lld_setgroupmode>
  palSetPadMode(GPIOC, 15, PAL_MODE_OUTPUT_PUSHPULL ); // Debug
 8004f4a:	463a      	mov	r2, r7
 8004f4c:	48c6      	ldr	r0, [pc, #792]	; (8005268 <main+0x6a8>)
 8004f4e:	f44f 4100 	mov.w	r1, #32768	; 0x8000
 8004f52:	f7fc ff65 	bl	8001e20 <_pal_lld_setgroupmode>
 8004f56:	4651      	mov	r1, sl
 8004f58:	4bc4      	ldr	r3, [pc, #784]	; (800526c <main+0x6ac>)
 8004f5a:	f841 3b04 	str.w	r3, [r1], #4
  obqp->btop      = bp + ((size + sizeof (size_t)) * n);
 8004f5e:	f20a 438c 	addw	r3, sl, #1164	; 0x48c
  ibqp->notify    = infy;
 8004f62:	48c3      	ldr	r0, [pc, #780]	; (8005270 <main+0x6b0>)
  obqp->notify    = onfy;
 8004f64:	4ac3      	ldr	r2, [pc, #780]	; (8005274 <main+0x6b4>)
  obqp->btop      = bp + ((size + sizeof (size_t)) * n);
 8004f66:	f8ca 305c 	str.w	r3, [sl, #92]	; 0x5c
  ibqp->brdptr    = bp;
 8004f6a:	f10a 037c 	add.w	r3, sl, #124	; 0x7c
  ibqp->bwrptr    = bp;
 8004f6e:	e9ca 3307 	strd	r3, r3, [sl, #28]
  sdup->state = SDU_STOP;
 8004f72:	f88a 7008 	strb.w	r7, [sl, #8]
  ibqp->suspended = suspended;
 8004f76:	f88a 7014 	strb.w	r7, [sl, #20]
  obqp->suspended = suspended;
 8004f7a:	f88a 704c 	strb.w	r7, [sl, #76]	; 0x4c
  ibqp->notify    = infy;
 8004f7e:	f8ca 003c 	str.w	r0, [sl, #60]	; 0x3c
  tqp->next = (thread_t *)tqp;
 8004f82:	f10a 070c 	add.w	r7, sl, #12
  obqp->notify    = onfy;
 8004f86:	f8ca 2074 	str.w	r2, [sl, #116]	; 0x74
  esp->next = (event_listener_t *)esp;
 8004f8a:	f8ca 1004 	str.w	r1, [sl, #4]
  ibqp->btop      = bp + ((size + sizeof (size_t)) * n);
 8004f8e:	f50a 7221 	add.w	r2, sl, #644	; 0x284
  ibqp->bsize     = size + sizeof (size_t);
 8004f92:	f44f 7182 	mov.w	r1, #260	; 0x104
 8004f96:	f10a 0044 	add.w	r0, sl, #68	; 0x44
  ibqp->buffers   = bp;
 8004f9a:	f8ca 3030 	str.w	r3, [sl, #48]	; 0x30
  ibqp->bn        = n;
 8004f9e:	2302      	movs	r3, #2
  ibqp->bcounter  = 0;
 8004fa0:	f8ca 8018 	str.w	r8, [sl, #24]
  ibqp->top       = NULL;
 8004fa4:	e9ca 880d 	strd	r8, r8, [sl, #52]	; 0x34
  obqp->top       = NULL;
 8004fa8:	e9ca 881b 	strd	r8, r8, [sl, #108]	; 0x6c
  tqp->prev = (thread_t *)tqp;
 8004fac:	e9ca 7703 	strd	r7, r7, [sl, #12]
  obqp->bwrptr    = bp;
 8004fb0:	e9ca 2215 	strd	r2, r2, [sl, #84]	; 0x54
 8004fb4:	e9ca 0011 	strd	r0, r0, [sl, #68]	; 0x44
  ibqp->link      = link;
 8004fb8:	f8ca a040 	str.w	sl, [sl, #64]	; 0x40
  obqp->link      = link;
 8004fbc:	f8ca a078 	str.w	sl, [sl, #120]	; 0x78
  ibqp->btop      = bp + ((size + sizeof (size_t)) * n);
 8004fc0:	f8ca 2024 	str.w	r2, [sl, #36]	; 0x24
  obqp->buffers   = bp;
 8004fc4:	f8ca 2068 	str.w	r2, [sl, #104]	; 0x68
  ibqp->bsize     = size + sizeof (size_t);
 8004fc8:	f8ca 1028 	str.w	r1, [sl, #40]	; 0x28
  obqp->bsize     = size + sizeof (size_t);
 8004fcc:	f8ca 1060 	str.w	r1, [sl, #96]	; 0x60
  ibqp->bn        = n;
 8004fd0:	f8ca 302c 	str.w	r3, [sl, #44]	; 0x2c
  obqp->bcounter  = n;
 8004fd4:	f8ca 3050 	str.w	r3, [sl, #80]	; 0x50
  obqp->bn        = n;
 8004fd8:	f8ca 3064 	str.w	r3, [sl, #100]	; 0x64
 8004fdc:	f389 8811 	msr	BASEPRI, r9
  sdup->config = config;
 8004fe0:	4aa5      	ldr	r2, [pc, #660]	; (8005278 <main+0x6b8>)
  usbp->in_params[config->bulk_in - 1U]   = sdup;
 8004fe2:	f8c6 a020 	str.w	sl, [r6, #32]
  usbp->out_params[config->bulk_out - 1U] = sdup;
 8004fe6:	f8c6 a02c 	str.w	sl, [r6, #44]	; 0x2c
    usbp->in_params[config->int_in - 1U]  = sdup;
 8004fea:	f8c6 a01c 	str.w	sl, [r6, #28]
  sdup->state = SDU_READY;
 8004fee:	f88a 3008 	strb.w	r3, [sl, #8]
  sdup->config = config;
 8004ff2:	f8ca 248c 	str.w	r2, [sl, #1164]	; 0x48c
 8004ff6:	f388 8811 	msr	BASEPRI, r8


  sduObjectInit(&SHELLPORT);
  sduStart(&SHELLPORT, &serusbcfg1);

  usbDisconnectBus(serusbcfg1.usbp);
 8004ffa:	6d72      	ldr	r2, [r6, #84]	; 0x54
 8004ffc:	6b93      	ldr	r3, [r2, #56]	; 0x38
 8004ffe:	f423 2300 	bic.w	r3, r3, #524288	; 0x80000
 8005002:	6393      	str	r3, [r2, #56]	; 0x38
  chThdSleepMilliseconds(1500);
 8005004:	f643 2098 	movw	r0, #15000	; 0x3a98
 8005008:	f7fd fd4a 	bl	8002aa0 <chThdSleep>
 800500c:	f389 8811 	msr	BASEPRI, r9
  if (usbp->state == USB_STOP) {
 8005010:	7833      	ldrb	r3, [r6, #0]
  usbp->config = config;
 8005012:	4a9a      	ldr	r2, [pc, #616]	; (800527c <main+0x6bc>)
 8005014:	6072      	str	r2, [r6, #4]
 8005016:	2b01      	cmp	r3, #1
    usbp->epc[i] = NULL;
 8005018:	e9c6 8803 	strd	r8, r8, [r6, #12]
 800501c:	e9c6 8805 	strd	r8, r8, [r6, #20]
 8005020:	f000 81fa 	beq.w	8005418 <main+0x858>
  usbp->state = USB_READY;
 8005024:	2302      	movs	r3, #2
 8005026:	7033      	strb	r3, [r6, #0]
 8005028:	2700      	movs	r7, #0
 800502a:	f387 8811 	msr	BASEPRI, r7
  usbStart(serusbcfg1.usbp, &usbcfg);
  usbConnectBus(serusbcfg1.usbp);
 800502e:	6d72      	ldr	r2, [r6, #84]	; 0x54

  //chprintf(dbg, "\r\nSerial Sniffer Programmer: %i.%i \r\nSystem started. (Shell)\r\n", VMAJOR, VMINOR);
  if (serstat){
    //palSetPadMode(GPIOA, 2, PAL_MODE_ALTERNATE(7));  // TX2
    palSetPadMode(GPIOA, 3, PAL_MODE_ALTERNATE(7));  // RX2
 8005030:	4893      	ldr	r0, [pc, #588]	; (8005280 <main+0x6c0>)
  usbConnectBus(serusbcfg1.usbp);
 8005032:	6b93      	ldr	r3, [r2, #56]	; 0x38
 8005034:	f443 2300 	orr.w	r3, r3, #524288	; 0x80000
 8005038:	6393      	str	r3, [r2, #56]	; 0x38
    palSetPadMode(GPIOA, 3, PAL_MODE_ALTERNATE(7));  // RX2
 800503a:	2108      	movs	r1, #8
 800503c:	f240 3282 	movw	r2, #898	; 0x382
 8005040:	f7fc feee 	bl	8001e20 <_pal_lld_setgroupmode>
    //palSetPadMode(GPIOA, 9, PAL_MODE_ALTERNATE(7));  // TX1
    palSetPadMode(GPIOA, 10, PAL_MODE_ALTERNATE(7)); // RX1
 8005044:	488e      	ldr	r0, [pc, #568]	; (8005280 <main+0x6c0>)
 8005046:	f240 3282 	movw	r2, #898	; 0x382
 800504a:	f44f 6180 	mov.w	r1, #1024	; 0x400
 800504e:	f7fc fee7 	bl	8001e20 <_pal_lld_setgroupmode>
    palSetPadMode(GPIOA, 0, PAL_MODE_INPUT_PULLUP);  // Button
 8005052:	2220      	movs	r2, #32
 8005054:	2101      	movs	r1, #1
 8005056:	488a      	ldr	r0, [pc, #552]	; (8005280 <main+0x6c0>)
 8005058:	f7fc fee2 	bl	8001e20 <_pal_lld_setgroupmode>
    sdStart(&SD2, &serial_config);
 800505c:	4889      	ldr	r0, [pc, #548]	; (8005284 <main+0x6c4>)
 800505e:	f7fc f997 	bl	8001390 <sdStart.constprop.0>
    sdStart(&SD1, &serial_config);
 8005062:	4889      	ldr	r0, [pc, #548]	; (8005288 <main+0x6c8>)
 8005064:	f7fc f994 	bl	8001390 <sdStart.constprop.0>
 8005068:	2620      	movs	r6, #32
 800506a:	f386 8811 	msr	BASEPRI, r6
    chSysLock();
    oqResetI(&SD1.oqueue);
 800506e:	4887      	ldr	r0, [pc, #540]	; (800528c <main+0x6cc>)
 8005070:	f7fd f8d6 	bl	8002220 <oqResetI>
    oqResetI(&SD2.oqueue);
 8005074:	4886      	ldr	r0, [pc, #536]	; (8005290 <main+0x6d0>)
 8005076:	f7fd f8d3 	bl	8002220 <oqResetI>
    chSchRescheduleS();
 800507a:	f7ff fc29 	bl	80048d0 <chSchRescheduleS>
 800507e:	f387 8811 	msr	BASEPRI, r7
  ldat_cnt = 0;
 8005082:	4a84      	ldr	r2, [pc, #528]	; (8005294 <main+0x6d4>)
  oldcnt = 0;
 8005084:	4b84      	ldr	r3, [pc, #528]	; (8005298 <main+0x6d8>)
  ldat_cnt = 0;
 8005086:	6017      	str	r7, [r2, #0]
  memset(ldat, 0, sizeof(ldat));
 8005088:	4639      	mov	r1, r7
 800508a:	f44f 5200 	mov.w	r2, #8192	; 0x2000
 800508e:	4883      	ldr	r0, [pc, #524]	; (800529c <main+0x6dc>)
  oldcnt = 0;
 8005090:	601f      	str	r7, [r3, #0]
  memset(ldat, 0, sizeof(ldat));
 8005092:	f000 fee9 	bl	8005e68 <memset>
 8005096:	4b82      	ldr	r3, [pc, #520]	; (80052a0 <main+0x6e0>)
 8005098:	601b      	str	r3, [r3, #0]
 800509a:	f386 8811 	msr	BASEPRI, r6
  esp->next     = elp;
 800509e:	a905      	add	r1, sp, #20
  elp->next     = esp->next;
 80050a0:	6818      	ldr	r0, [r3, #0]
  esp->next     = elp;
 80050a2:	6019      	str	r1, [r3, #0]
  elp->listener = currp;
 80050a4:	6963      	ldr	r3, [r4, #20]
  elp->flags    = (eventflags_t)0;
 80050a6:	9708      	str	r7, [sp, #32]
  elp->events   = events;
 80050a8:	2601      	movs	r6, #1
  elp->wflags   = wflags;
 80050aa:	f04f 32ff 	mov.w	r2, #4294967295	; 0xffffffff
  elp->events   = events;
 80050ae:	e9cd 3606 	strd	r3, r6, [sp, #24]
  elp->next     = esp->next;
 80050b2:	9005      	str	r0, [sp, #20]
  elp->wflags   = wflags;
 80050b4:	9209      	str	r2, [sp, #36]	; 0x24
 80050b6:	f387 8811 	msr	BASEPRI, r7
   * Shell manager initialization.
   * Event zero is shell exit.
   */
  shellInit();
  chEvtRegister(&shell_terminated, &shell_el, 0);
  chThdCreateStatic(waThread1, sizeof(waThread1), NORMALPRIO, Thread1, NULL);
 80050ba:	4a7a      	ldr	r2, [pc, #488]	; (80052a4 <main+0x6e4>)
 80050bc:	487a      	ldr	r0, [pc, #488]	; (80052a8 <main+0x6e8>)
  chMtxLockS(mp);
 80050be:	4e7b      	ldr	r6, [pc, #492]	; (80052ac <main+0x6ec>)
 80050c0:	f8df 9210 	ldr.w	r9, [pc, #528]	; 80052d4 <main+0x714>
 80050c4:	f8df 8210 	ldr.w	r8, [pc, #528]	; 80052d8 <main+0x718>
 80050c8:	f44f 71a4 	mov.w	r1, #328	; 0x148
 80050cc:	f7fd fa30 	bl	8002530 <chThdCreateStatic.constprop.0>
  chThdCreateStatic(waListener1, sizeof(waListener1), NORMALPRIO, Listener1, NULL);
 80050d0:	4a77      	ldr	r2, [pc, #476]	; (80052b0 <main+0x6f0>)
 80050d2:	4878      	ldr	r0, [pc, #480]	; (80052b4 <main+0x6f4>)
 80050d4:	f44f 7132 	mov.w	r1, #712	; 0x2c8
 80050d8:	f7fd fa2a 	bl	8002530 <chThdCreateStatic.constprop.0>
  chThdCreateStatic(waListener2, sizeof(waListener2), NORMALPRIO, Listener2, NULL);
 80050dc:	4a76      	ldr	r2, [pc, #472]	; (80052b8 <main+0x6f8>)
 80050de:	4877      	ldr	r0, [pc, #476]	; (80052bc <main+0x6fc>)
 80050e0:	f44f 7132 	mov.w	r1, #712	; 0x2c8
 80050e4:	f7fd fa24 	bl	8002530 <chThdCreateStatic.constprop.0>
  chThdCreateStatic(waListener3, sizeof(waListener3), NORMALPRIO, Listener3, NULL);
 80050e8:	4a75      	ldr	r2, [pc, #468]	; (80052c0 <main+0x700>)
 80050ea:	4876      	ldr	r0, [pc, #472]	; (80052c4 <main+0x704>)
 80050ec:	f44f 71a4 	mov.w	r1, #328	; 0x148
  thread_t *shelltp = NULL;
 80050f0:	46bb      	mov	fp, r7
  chThdCreateStatic(waListener3, sizeof(waListener3), NORMALPRIO, Listener3, NULL);
 80050f2:	f7fd fa1d 	bl	8002530 <chThdCreateStatic.constprop.0>
   * Normal main() thread activity, in this demo it does nothing except
   * sleeping in a loop and check the button state.
   */
  while (true) {
#if USB_SHELL == 1
    if (SHELLPORT.config->usbp->state == USB_ACTIVE) {
 80050f6:	f8da 348c 	ldr.w	r3, [sl, #1164]	; 0x48c
 80050fa:	681b      	ldr	r3, [r3, #0]
 80050fc:	781b      	ldrb	r3, [r3, #0]
 80050fe:	2b04      	cmp	r3, #4
 8005100:	f040 80a3 	bne.w	800524a <main+0x68a>
      /* Starting shells.*/
      if (shelltp == NULL) {
 8005104:	f1bb 0f00 	cmp.w	fp, #0
 8005108:	d029      	beq.n	800515e <main+0x59e>
 * @return              The mask of the served and cleared events.
 *
 * @api
 */
eventmask_t chEvtWaitAny(eventmask_t events) {
  thread_t *ctp = currp;
 800510a:	6967      	ldr	r7, [r4, #20]
 800510c:	2320      	movs	r3, #32
 800510e:	f383 8811 	msr	BASEPRI, r3
  eventmask_t m;

  chSysLock();
  m = ctp->epending & events;
 8005112:	6b7b      	ldr	r3, [r7, #52]	; 0x34
  if (m == (eventmask_t)0) {
 8005114:	07da      	lsls	r2, r3, #31
 8005116:	f140 809d 	bpl.w	8005254 <main+0x694>
 800511a:	f06f 0201 	mvn.w	r2, #1
    ctp->u.ewmask = events;
    chSchGoSleepS(CH_STATE_WTOREVT);
    m = ctp->epending & events;
  }
  ctp->epending &= ~m;
 800511e:	4013      	ands	r3, r2
 8005120:	637b      	str	r3, [r7, #52]	; 0x34
 8005122:	2700      	movs	r7, #0
 8005124:	f387 8811 	msr	BASEPRI, r7
                                       "shell1", NORMALPRIO + 1,
                                       shellThread, (void *)&shell_cfg1);
      }
    //chThdWait(shelltp);               /* Waiting termination.             */
    chEvtWaitAny(EVENT_MASK(0));
    if (chThdTerminatedX(shelltp)) {
 8005128:	f89b 3020 	ldrb.w	r3, [fp, #32]
 800512c:	2b0f      	cmp	r3, #15
 800512e:	d1e2      	bne.n	80050f6 <main+0x536>
 8005130:	2220      	movs	r2, #32
 8005132:	f382 8811 	msr	BASEPRI, r2
  tp->refs--;
 8005136:	f89b 3022 	ldrb.w	r3, [fp, #34]	; 0x22
 800513a:	3b01      	subs	r3, #1
 800513c:	f88b 3022 	strb.w	r3, [fp, #34]	; 0x22
  if ((tp->refs == (trefs_t)0) && (tp->state == CH_STATE_FINAL)) {
 8005140:	f8db 3020 	ldr.w	r3, [fp, #32]
 8005144:	f003 13ff 	and.w	r3, r3, #16711935	; 0xff00ff
 8005148:	2b0f      	cmp	r3, #15
 800514a:	f000 80c7 	beq.w	80052dc <main+0x71c>
 800514e:	f387 8811 	msr	BASEPRI, r7
    if (SHELLPORT.config->usbp->state == USB_ACTIVE) {
 8005152:	f8da 348c 	ldr.w	r3, [sl, #1164]	; 0x48c
 8005156:	681b      	ldr	r3, [r3, #0]
 8005158:	781b      	ldrb	r3, [r3, #0]
 800515a:	2b04      	cmp	r3, #4
 800515c:	d155      	bne.n	800520a <main+0x64a>
 800515e:	2320      	movs	r3, #32
 8005160:	f383 8811 	msr	BASEPRI, r3
 8005164:	4630      	mov	r0, r6
 8005166:	f7fd fa33 	bl	80025d0 <chMtxLockS>
 800516a:	2300      	movs	r3, #0
 800516c:	f383 8811 	msr	BASEPRI, r3
  /* Taking heap mutex/semaphore.*/
  H_LOCK(heapp);

  /* Start of the free blocks list.*/
  qp = &heapp->header;
  while (H_NEXT(qp) != NULL) {
 8005170:	686a      	ldr	r2, [r5, #4]
 8005172:	b1da      	cbz	r2, 80051ac <main+0x5ec>
  qp = &heapp->header;
 8005174:	4854      	ldr	r0, [pc, #336]	; (80052c8 <main+0x708>)
 8005176:	e000      	b.n	800517a <main+0x5ba>
  while (H_NEXT(qp) != NULL) {
 8005178:	461a      	mov	r2, r3
    hp = H_NEXT(qp);

    /* Pointer aligned to the requested alignment.*/
    ahp = (heap_header_t *)MEM_ALIGN_NEXT(H_BLOCK(hp), align) - 1U;

    if ((ahp < H_LIMIT(hp)) && (pages <= NPAGES(H_LIMIT(hp), ahp + 1U))) {
 800517a:	6851      	ldr	r1, [r2, #4]
    ahp = (heap_header_t *)MEM_ALIGN_NEXT(H_BLOCK(hp), align) - 1U;
 800517c:	f102 030f 	add.w	r3, r2, #15
    if ((ahp < H_LIMIT(hp)) && (pages <= NPAGES(H_LIMIT(hp), ahp + 1U))) {
 8005180:	f101 0c01 	add.w	ip, r1, #1
    ahp = (heap_header_t *)MEM_ALIGN_NEXT(H_BLOCK(hp), align) - 1U;
 8005184:	f023 0307 	bic.w	r3, r3, #7
    if ((ahp < H_LIMIT(hp)) && (pages <= NPAGES(H_LIMIT(hp), ahp + 1U))) {
 8005188:	eb02 0ccc 	add.w	ip, r2, ip, lsl #3
 800518c:	ebac 0e03 	sub.w	lr, ip, r3
 8005190:	461f      	mov	r7, r3
    ahp = (heap_header_t *)MEM_ALIGN_NEXT(H_BLOCK(hp), align) - 1U;
 8005192:	3b08      	subs	r3, #8
    if ((ahp < H_LIMIT(hp)) && (pages <= NPAGES(H_LIMIT(hp), ahp + 1U))) {
 8005194:	4563      	cmp	r3, ip
 8005196:	ea4f 0eee 	mov.w	lr, lr, asr #3
 800519a:	d203      	bcs.n	80051a4 <main+0x5e4>
 800519c:	f5be 7f8c 	cmp.w	lr, #280	; 0x118
 80051a0:	f200 80b7 	bhi.w	8005312 <main+0x752>
  while (H_NEXT(qp) != NULL) {
 80051a4:	6813      	ldr	r3, [r2, #0]
 80051a6:	4610      	mov	r0, r2
 80051a8:	2b00      	cmp	r3, #0
 80051aa:	d1e5      	bne.n	8005178 <main+0x5b8>
    /* Next in the free blocks list.*/
    qp = hp;
  }

  /* Releasing heap mutex/semaphore.*/
  H_UNLOCK(heapp);
 80051ac:	4630      	mov	r0, r6
 80051ae:	f7ff fcd7 	bl	8004b60 <chMtxUnlock>

  /* More memory is required, tries to get it from the associated provider
     else fails.*/
  if (heapp->provider != NULL) {
 80051b2:	682b      	ldr	r3, [r5, #0]
 80051b4:	2b00      	cmp	r3, #0
 80051b6:	f000 80c9 	beq.w	800534c <main+0x78c>
    ahp = heapp->provider(pages * CH_HEAP_ALIGNMENT,
 80051ba:	2208      	movs	r2, #8
 80051bc:	4611      	mov	r1, r2
 80051be:	f640 00c8 	movw	r0, #2248	; 0x8c8
 80051c2:	4798      	blx	r3
                          align,
                          sizeof (heap_header_t));
    if (ahp != NULL) {
 80051c4:	4607      	mov	r7, r0
 80051c6:	2800      	cmp	r0, #0
 80051c8:	f000 80c0 	beq.w	800534c <main+0x78c>
      hp = ahp - 1U;
      H_HEAP(hp) = heapp;
      H_SIZE(hp) = size;
 80051cc:	f640 03c8 	movw	r3, #2248	; 0x8c8
 80051d0:	e940 5302 	strd	r5, r3, [r0, #-8]
  }

  thread_descriptor_t td = {
    name,
    wsp,
    (stkalign_t *)((uint8_t *)wsp + size),
 80051d4:	f607 02c8 	addw	r2, r7, #2248	; 0x8c8
  thread_descriptor_t td = {
 80051d8:	2381      	movs	r3, #129	; 0x81
 80051da:	920c      	str	r2, [sp, #48]	; 0x30
 80051dc:	4a3b      	ldr	r2, [pc, #236]	; (80052cc <main+0x70c>)
 80051de:	930d      	str	r3, [sp, #52]	; 0x34
 80051e0:	e9cd 970a 	strd	r9, r7, [sp, #40]	; 0x28
 80051e4:	f8cd 8038 	str.w	r8, [sp, #56]	; 0x38
 80051e8:	920f      	str	r2, [sp, #60]	; 0x3c
 80051ea:	2320      	movs	r3, #32
 80051ec:	f383 8811 	msr	BASEPRI, r3
                  (uint8_t *)wsp + size,
                  CH_DBG_STACK_FILL_VALUE);
#endif

  chSysLock();
  tp = chThdCreateSuspendedI(&td);
 80051f0:	a80a      	add	r0, sp, #40	; 0x28
 80051f2:	f7fc fadd 	bl	80017b0 <chThdCreateSuspendedI>
  tp->flags = CH_FLAG_MODE_HEAP;
 80051f6:	2301      	movs	r3, #1
 80051f8:	f880 3021 	strb.w	r3, [r0, #33]	; 0x21
  tp = chThdCreateSuspendedI(&td);
 80051fc:	4683      	mov	fp, r0
  chSchWakeupS(tp, MSG_OK);
 80051fe:	f7fd f967 	bl	80024d0 <chSchWakeupS.constprop.0>
 8005202:	2300      	movs	r3, #0
 8005204:	f383 8811 	msr	BASEPRI, r3
 8005208:	e77f      	b.n	800510a <main+0x54a>
    }
#endif
    /* Waiting for an exit event then freeing terminated shells.*/
    }
    else{
      chThdSleepMilliseconds(1000);
 800520a:	f242 7010 	movw	r0, #10000	; 0x2710
 800520e:	f7fd fc47 	bl	8002aa0 <chThdSleep>
    if (SHELLPORT.config->usbp->state == USB_ACTIVE) {
 8005212:	f8da 348c 	ldr.w	r3, [sl, #1164]	; 0x48c
 8005216:	681b      	ldr	r3, [r3, #0]
 8005218:	781b      	ldrb	r3, [r3, #0]
 800521a:	2b04      	cmp	r3, #4
 800521c:	d09f      	beq.n	800515e <main+0x59e>
      chThdSleepMilliseconds(1000);
 800521e:	f242 7010 	movw	r0, #10000	; 0x2710
 8005222:	f7fd fc3d 	bl	8002aa0 <chThdSleep>
    if (SHELLPORT.config->usbp->state == USB_ACTIVE) {
 8005226:	f8da 348c 	ldr.w	r3, [sl, #1164]	; 0x48c
 800522a:	681b      	ldr	r3, [r3, #0]
 800522c:	781b      	ldrb	r3, [r3, #0]
 800522e:	2b04      	cmp	r3, #4
 8005230:	d095      	beq.n	800515e <main+0x59e>
      chThdSleepMilliseconds(1000);
 8005232:	f242 7010 	movw	r0, #10000	; 0x2710
 8005236:	f7fd fc33 	bl	8002aa0 <chThdSleep>
    if (SHELLPORT.config->usbp->state == USB_ACTIVE) {
 800523a:	f8da 348c 	ldr.w	r3, [sl, #1164]	; 0x48c
 800523e:	681b      	ldr	r3, [r3, #0]
 8005240:	781b      	ldrb	r3, [r3, #0]
 8005242:	2b04      	cmp	r3, #4
 8005244:	d08b      	beq.n	800515e <main+0x59e>
      shelltp = NULL;
 8005246:	f04f 0b00 	mov.w	fp, #0
      chThdSleepMilliseconds(1000);
 800524a:	f242 7010 	movw	r0, #10000	; 0x2710
 800524e:	f7fd fc27 	bl	8002aa0 <chThdSleep>
 8005252:	e750      	b.n	80050f6 <main+0x536>
    ctp->u.ewmask = events;
 8005254:	2301      	movs	r3, #1
 8005256:	627b      	str	r3, [r7, #36]	; 0x24
    chSchGoSleepS(CH_STATE_WTOREVT);
 8005258:	200a      	movs	r0, #10
 800525a:	f7fd f9a1 	bl	80025a0 <chSchGoSleepS>
    m = ctp->epending & events;
 800525e:	6b7b      	ldr	r3, [r7, #52]	; 0x34
 8005260:	f003 0201 	and.w	r2, r3, #1
 8005264:	43d2      	mvns	r2, r2
 8005266:	e75a      	b.n	800511e <main+0x55e>
 8005268:	40020800 	.word	0x40020800
 800526c:	08006c84 	.word	0x08006c84
 8005270:	080021a1 	.word	0x080021a1
 8005274:	08002251 	.word	0x08002251
 8005278:	08006b34 	.word	0x08006b34
 800527c:	08006b50 	.word	0x08006b50
 8005280:	40020000 	.word	0x40020000
 8005284:	20000ef4 	.word	0x20000ef4
 8005288:	20000c98 	.word	0x20000c98
 800528c:	20000cc8 	.word	0x20000cc8
 8005290:	20000f24 	.word	0x20000f24
 8005294:	20003cbc 	.word	0x20003cbc
 8005298:	20003cc0 	.word	0x20003cc0
 800529c:	20001cbc 	.word	0x20001cbc
 80052a0:	20003cc4 	.word	0x20003cc4
 80052a4:	08003b11 	.word	0x08003b11
 80052a8:	200043a0 	.word	0x200043a0
 80052ac:	20001a54 	.word	0x20001a54
 80052b0:	08003cb1 	.word	0x08003cb1
 80052b4:	20003cc8 	.word	0x20003cc8
 80052b8:	08003cf1 	.word	0x08003cf1
 80052bc:	20003f90 	.word	0x20003f90
 80052c0:	08003d31 	.word	0x08003d31
 80052c4:	20004258 	.word	0x20004258
 80052c8:	20001a4c 	.word	0x20001a4c
 80052cc:	08006b3c 	.word	0x08006b3c
 80052d0:	200013ac 	.word	0x200013ac
 80052d4:	08006998 	.word	0x08006998
 80052d8:	08004261 	.word	0x08004261
    REG_REMOVE(tp);
 80052dc:	e9db 1303 	ldrd	r1, r3, [fp, #12]
 80052e0:	60d9      	str	r1, [r3, #12]
 80052e2:	f8db 100c 	ldr.w	r1, [fp, #12]
 80052e6:	610b      	str	r3, [r1, #16]
 80052e8:	f387 8811 	msr	BASEPRI, r7
    switch (tp->flags & CH_FLAG_MODE_MASK) {
 80052ec:	f89b 3021 	ldrb.w	r3, [fp, #33]	; 0x21
 80052f0:	f003 0303 	and.w	r3, r3, #3
 80052f4:	2b01      	cmp	r3, #1
 80052f6:	d041      	beq.n	800537c <main+0x7bc>
 80052f8:	2b02      	cmp	r3, #2
 80052fa:	f47f af2a 	bne.w	8005152 <main+0x592>
      chPoolFree(tp->mpool, chThdGetWorkingAreaX(tp));
 80052fe:	f8db 3040 	ldr.w	r3, [fp, #64]	; 0x40
 8005302:	f8db 101c 	ldr.w	r1, [fp, #28]
 8005306:	f382 8811 	msr	BASEPRI, r2
  chDbgCheckClassI();
  chDbgCheck((mp != NULL) &&
             (objp != NULL) &&
             MEM_IS_ALIGNED(objp, mp->align));

  php->next = mp->next;
 800530a:	681a      	ldr	r2, [r3, #0]
 800530c:	600a      	str	r2, [r1, #0]
  mp->next = php;
 800530e:	6019      	str	r1, [r3, #0]
 8005310:	e71d      	b.n	800514e <main+0x58e>
      if (ahp > hp) {
 8005312:	4293      	cmp	r3, r2
 8005314:	d91d      	bls.n	8005352 <main+0x792>
        H_PAGES(hp) = NPAGES(ahp, H_BLOCK(hp));
 8005316:	f102 0108 	add.w	r1, r2, #8
 800531a:	1a59      	subs	r1, r3, r1
        if (bpages > pages) {
 800531c:	f240 1019 	movw	r0, #281	; 0x119
        H_PAGES(hp) = NPAGES(ahp, H_BLOCK(hp));
 8005320:	10c9      	asrs	r1, r1, #3
        if (bpages > pages) {
 8005322:	4586      	cmp	lr, r0
        H_PAGES(hp) = NPAGES(ahp, H_BLOCK(hp));
 8005324:	6051      	str	r1, [r2, #4]
        if (bpages > pages) {
 8005326:	d009      	beq.n	800533c <main+0x77c>
          H_PAGES(fp) = (bpages - pages) - 1U;
 8005328:	f5ae 718d 	sub.w	r1, lr, #282	; 0x11a
          H_NEXT(fp) = H_NEXT(hp);
 800532c:	6810      	ldr	r0, [r2, #0]
          H_PAGES(fp) = (bpages - pages) - 1U;
 800532e:	f8c3 18d4 	str.w	r1, [r3, #2260]	; 0x8d4
          fp = H_BLOCK(ahp) + pages;
 8005332:	f607 01c8 	addw	r1, r7, #2248	; 0x8c8
          H_NEXT(fp) = H_NEXT(hp);
 8005336:	f8c3 08d0 	str.w	r0, [r3, #2256]	; 0x8d0
          H_NEXT(hp) = fp;
 800533a:	6011      	str	r1, [r2, #0]
      H_SIZE(hp) = size;
 800533c:	f640 02c8 	movw	r2, #2248	; 0x8c8
 8005340:	e9c3 5200 	strd	r5, r2, [r3]
      H_UNLOCK(heapp);
 8005344:	4630      	mov	r0, r6
 8005346:	f7ff fc0b 	bl	8004b60 <chMtxUnlock>
 800534a:	e743      	b.n	80051d4 <main+0x614>
    return NULL;
 800534c:	f04f 0b00 	mov.w	fp, #0
 8005350:	e6db      	b.n	800510a <main+0x54a>
        if (H_PAGES(hp) == pages) {
 8005352:	f240 1319 	movw	r3, #281	; 0x119
 8005356:	4299      	cmp	r1, r3
 8005358:	d049      	beq.n	80053ee <main+0x82e>
          H_PAGES(fp) = NPAGES(H_LIMIT(hp), H_BLOCK(fp));
 800535a:	f602 03d8 	addw	r3, r2, #2264	; 0x8d8
 800535e:	ebac 0303 	sub.w	r3, ip, r3
 8005362:	10db      	asrs	r3, r3, #3
          H_NEXT(fp) = H_NEXT(hp);
 8005364:	6811      	ldr	r1, [r2, #0]
          H_PAGES(fp) = NPAGES(H_LIMIT(hp), H_BLOCK(fp));
 8005366:	f8c2 38d4 	str.w	r3, [r2, #2260]	; 0x8d4
          fp = H_BLOCK(hp) + pages;
 800536a:	f502 630d 	add.w	r3, r2, #2256	; 0x8d0
          H_NEXT(fp) = H_NEXT(hp);
 800536e:	f8c2 18d0 	str.w	r1, [r2, #2256]	; 0x8d0
 8005372:	f102 0708 	add.w	r7, r2, #8
          H_NEXT(qp) = fp;
 8005376:	6003      	str	r3, [r0, #0]
 8005378:	4613      	mov	r3, r2
 800537a:	e7df      	b.n	800533c <main+0x77c>
      chHeapFree(chThdGetWorkingAreaX(tp));
 800537c:	f8db 101c 	ldr.w	r1, [fp, #28]
  memory_heap_t *heapp;

  chDbgCheck((p != NULL) && MEM_IS_ALIGNED(p, CH_HEAP_ALIGNMENT));

  /*lint -save -e9087 [11.3] Safe cast.*/
  hp = (heap_header_t *)p - 1U;
 8005380:	9102      	str	r1, [sp, #8]
  /*lint -restore*/
  heapp = H_HEAP(hp);
 8005382:	e951 0302 	ldrd	r0, r3, [r1, #-8]
  qp = &heapp->header;

  /* Size is converted in number of elementary allocation units.*/
  H_PAGES(hp) = MEM_ALIGN_NEXT(H_SIZE(hp),
 8005386:	3307      	adds	r3, #7
                               CH_HEAP_ALIGNMENT) / CH_HEAP_ALIGNMENT;
 8005388:	08db      	lsrs	r3, r3, #3
  H_PAGES(hp) = MEM_ALIGN_NEXT(H_SIZE(hp),
 800538a:	f841 3c04 	str.w	r3, [r1, #-4]
  qp = &heapp->header;
 800538e:	1d03      	adds	r3, r0, #4
 8005390:	9303      	str	r3, [sp, #12]

  /* Taking heap mutex/semaphore.*/
  H_LOCK(heapp);
 8005392:	300c      	adds	r0, #12
  hp = (heap_header_t *)p - 1U;
 8005394:	f1a1 0b08 	sub.w	fp, r1, #8
 8005398:	f382 8811 	msr	BASEPRI, r2
 800539c:	9001      	str	r0, [sp, #4]
 800539e:	f7fd f917 	bl	80025d0 <chMtxLockS>
 80053a2:	f387 8811 	msr	BASEPRI, r7
  qp = &heapp->header;
 80053a6:	9b03      	ldr	r3, [sp, #12]
 80053a8:	e9dd 0101 	ldrd	r0, r1, [sp, #4]
 80053ac:	461a      	mov	r2, r3

  while (true) {
    chDbgAssert((hp < qp) || (hp >= H_LIMIT(qp)), "within free block");

    if (((qp == &heapp->header) || (hp > qp)) &&
 80053ae:	4293      	cmp	r3, r2
        ((H_NEXT(qp) == NULL) || (hp < H_NEXT(qp)))) {
 80053b0:	6817      	ldr	r7, [r2, #0]
    if (((qp == &heapp->header) || (hp > qp)) &&
 80053b2:	d001      	beq.n	80053b8 <main+0x7f8>
 80053b4:	4593      	cmp	fp, r2
 80053b6:	d902      	bls.n	80053be <main+0x7fe>
 80053b8:	b11f      	cbz	r7, 80053c2 <main+0x802>
        ((H_NEXT(qp) == NULL) || (hp < H_NEXT(qp)))) {
 80053ba:	45bb      	cmp	fp, r7
 80053bc:	d301      	bcc.n	80053c2 <main+0x802>
        H_PAGES(qp) += H_PAGES(hp) + 1U;
        H_NEXT(qp) = H_NEXT(hp);
      }
      break;
    }
    qp = H_NEXT(qp);
 80053be:	463a      	mov	r2, r7
 80053c0:	e7f5      	b.n	80053ae <main+0x7ee>
      if (H_LIMIT(hp) == H_NEXT(hp)) {
 80053c2:	f851 3c04 	ldr.w	r3, [r1, #-4]
      H_NEXT(hp) = H_NEXT(qp);
 80053c6:	f841 7c08 	str.w	r7, [r1, #-8]
      H_NEXT(qp) = hp;
 80053ca:	f8c2 b000 	str.w	fp, [r2]
      if (H_LIMIT(hp) == H_NEXT(hp)) {
 80053ce:	1c5f      	adds	r7, r3, #1
 80053d0:	f851 3c08 	ldr.w	r3, [r1, #-8]
 80053d4:	eb0b 0cc7 	add.w	ip, fp, r7, lsl #3
 80053d8:	4563      	cmp	r3, ip
 80053da:	d015      	beq.n	8005408 <main+0x848>
      if ((H_LIMIT(qp) == hp)) {
 80053dc:	6857      	ldr	r7, [r2, #4]
 80053de:	1c7b      	adds	r3, r7, #1
 80053e0:	eb02 03c3 	add.w	r3, r2, r3, lsl #3
 80053e4:	459b      	cmp	fp, r3
 80053e6:	d008      	beq.n	80053fa <main+0x83a>
  }

  /* Releasing heap mutex/semaphore.*/
  H_UNLOCK(heapp);
 80053e8:	f7ff fbba 	bl	8004b60 <chMtxUnlock>
    if (SHELLPORT.config->usbp->state == USB_ACTIVE) {
 80053ec:	e6b1      	b.n	8005152 <main+0x592>
          H_NEXT(qp) = H_NEXT(hp);
 80053ee:	4617      	mov	r7, r2
 80053f0:	4613      	mov	r3, r2
 80053f2:	f857 2b08 	ldr.w	r2, [r7], #8
 80053f6:	6002      	str	r2, [r0, #0]
 80053f8:	e7a0      	b.n	800533c <main+0x77c>
        H_NEXT(qp) = H_NEXT(hp);
 80053fa:	e951 1302 	ldrd	r1, r3, [r1, #-8]
        H_PAGES(qp) += H_PAGES(hp) + 1U;
 80053fe:	3301      	adds	r3, #1
 8005400:	441f      	add	r7, r3
        H_NEXT(qp) = H_NEXT(hp);
 8005402:	6011      	str	r1, [r2, #0]
        H_PAGES(qp) += H_PAGES(hp) + 1U;
 8005404:	6057      	str	r7, [r2, #4]
        H_NEXT(qp) = H_NEXT(hp);
 8005406:	e7ef      	b.n	80053e8 <main+0x828>
        H_NEXT(hp) = H_NEXT(H_NEXT(hp));
 8005408:	e9d3 3c00 	ldrd	r3, ip, [r3]
        H_PAGES(hp) += H_PAGES(H_NEXT(hp)) + 1U;
 800540c:	4467      	add	r7, ip
        H_NEXT(hp) = H_NEXT(H_NEXT(hp));
 800540e:	f841 3c08 	str.w	r3, [r1, #-8]
        H_PAGES(hp) += H_PAGES(H_NEXT(hp)) + 1U;
 8005412:	f841 7c04 	str.w	r7, [r1, #-4]
        H_NEXT(hp) = H_NEXT(H_NEXT(hp));
 8005416:	e7e1      	b.n	80053dc <main+0x81c>
      rccEnableOTG_FS(true);
 8005418:	4b3e      	ldr	r3, [pc, #248]	; (8005514 <main+0x954>)
  stm32_otg_t *otgp = usbp->otg;
 800541a:	6d77      	ldr	r7, [r6, #84]	; 0x54
      rccEnableOTG_FS(true);
 800541c:	6b59      	ldr	r1, [r3, #52]	; 0x34
  NVIC->__IPR[n] = NVIC_PRIORITY_MASK(prio);
 800541e:	4a3e      	ldr	r2, [pc, #248]	; (8005518 <main+0x958>)
 8005420:	f041 0180 	orr.w	r1, r1, #128	; 0x80
 8005424:	6359      	str	r1, [r3, #52]	; 0x34
 8005426:	6d59      	ldr	r1, [r3, #84]	; 0x54
 8005428:	f041 0180 	orr.w	r1, r1, #128	; 0x80
 800542c:	6559      	str	r1, [r3, #84]	; 0x54
 800542e:	6d59      	ldr	r1, [r3, #84]	; 0x54
      rccResetOTG_FS();
 8005430:	6959      	ldr	r1, [r3, #20]
 8005432:	f041 0180 	orr.w	r1, r1, #128	; 0x80
 8005436:	6159      	str	r1, [r3, #20]
 8005438:	6959      	ldr	r1, [r3, #20]
 800543a:	f021 0180 	bic.w	r1, r1, #128	; 0x80
 800543e:	6159      	str	r1, [r3, #20]
 8005440:	695b      	ldr	r3, [r3, #20]
      otgp->GUSBCFG = GUSBCFG_FDMOD | GUSBCFG_TRDT(TRDT_VALUE_FS) |
 8005442:	4936      	ldr	r1, [pc, #216]	; (800551c <main+0x95c>)
 8005444:	23e0      	movs	r3, #224	; 0xe0
 8005446:	f882 3343 	strb.w	r3, [r2, #835]	; 0x343
  NVIC->__ICPR[n >> 5U] = 1U << (n & 0x1FU);
 800544a:	2308      	movs	r3, #8
 800544c:	f8c2 3188 	str.w	r3, [r2, #392]	; 0x188
  NVIC->__ISER[n >> 5U] = 1U << (n & 0x1FU);
 8005450:	6093      	str	r3, [r2, #8]
      otgp->DCFG = 0x02200000 | DCFG_DSPD_FS11;
 8005452:	4b33      	ldr	r3, [pc, #204]	; (8005520 <main+0x960>)
      otgp->GUSBCFG = GUSBCFG_FDMOD | GUSBCFG_TRDT(TRDT_VALUE_FS) |
 8005454:	60f9      	str	r1, [r7, #12]
    otgp->GOTGCTL = GOTGCTL_BVALOEN | GOTGCTL_BVALOVAL;
 8005456:	22c0      	movs	r2, #192	; 0xc0
      otgp->DCFG = 0x02200000 | DCFG_DSPD_FS11;
 8005458:	f8c7 3800 	str.w	r3, [r7, #2048]	; 0x800
    otgp->GCCFG = GCCFG_INIT_VALUE;
 800545c:	f44f 1334 	mov.w	r3, #2949120	; 0x2d0000
    otgp->PCGCCTL = 0;
 8005460:	f8c7 8e00 	str.w	r8, [r7, #3584]	; 0xe00
    otgp->GOTGCTL = GOTGCTL_BVALOEN | GOTGCTL_BVALOVAL;
 8005464:	603a      	str	r2, [r7, #0]
    otgp->GCCFG = GCCFG_INIT_VALUE;
 8005466:	63bb      	str	r3, [r7, #56]	; 0x38
  while ((otgp->GRSTCTL & GRSTCTL_AHBIDL) == 0)
 8005468:	693b      	ldr	r3, [r7, #16]
 800546a:	2b00      	cmp	r3, #0
 800546c:	dafc      	bge.n	8005468 <main+0x8a8>
  otgp->GRSTCTL = GRSTCTL_CSRST;
 800546e:	2301      	movs	r3, #1
 8005470:	613b      	str	r3, [r7, #16]
  chSysPolledDelayX(cycles);
 8005472:	200c      	movs	r0, #12
 8005474:	f7fc fa84 	bl	8001980 <chSysPolledDelayX>
  while ((otgp->GRSTCTL & GRSTCTL_CSRST) != 0)
 8005478:	693b      	ldr	r3, [r7, #16]
 800547a:	f013 0801 	ands.w	r8, r3, #1
 800547e:	d1fb      	bne.n	8005478 <main+0x8b8>
 8005480:	2012      	movs	r0, #18
 8005482:	f7fc fa7d 	bl	8001980 <chSysPolledDelayX>
  while ((otgp->GRSTCTL & GRSTCTL_AHBIDL) == 0)
 8005486:	693b      	ldr	r3, [r7, #16]
 8005488:	2b00      	cmp	r3, #0
 800548a:	dafc      	bge.n	8005486 <main+0x8c6>
    otg_disable_ep(usbp);
 800548c:	e9d6 1315 	ldrd	r1, r3, [r6, #84]	; 0x54
  for (i = 0; i <= usbp->otgparams->num_endpoints; i++) {
 8005490:	f8d3 e008 	ldr.w	lr, [r3, #8]
    otgp->GAHBCFG = 0;
 8005494:	2300      	movs	r3, #0
 8005496:	60bb      	str	r3, [r7, #8]
    otgp->ie[i].DIEPINT = 0xFFFFFFFF;
 8005498:	f04f 3cff 	mov.w	ip, #4294967295	; 0xffffffff
 800549c:	e000      	b.n	80054a0 <main+0x8e0>
  for (i = 0; i <= usbp->otgparams->num_endpoints; i++) {
 800549e:	46c8      	mov	r8, r9
    otgp->ie[i].DIEPINT = 0xFFFFFFFF;
 80054a0:	eb01 1248 	add.w	r2, r1, r8, lsl #5
 80054a4:	4613      	mov	r3, r2
    if ((otgp->ie[i].DIEPCTL & DIEPCTL_EPENA) != 0U) {
 80054a6:	f8d2 0900 	ldr.w	r0, [r2, #2304]	; 0x900
 80054aa:	2800      	cmp	r0, #0
  for (i = 0; i <= usbp->otgparams->num_endpoints; i++) {
 80054ac:	f108 0901 	add.w	r9, r8, #1
    if ((otgp->ie[i].DIEPCTL & DIEPCTL_EPENA) != 0U) {
 80054b0:	da05      	bge.n	80054be <main+0x8fe>
      otgp->ie[i].DIEPCTL |= DIEPCTL_EPDIS;
 80054b2:	f8d2 0900 	ldr.w	r0, [r2, #2304]	; 0x900
 80054b6:	f040 4080 	orr.w	r0, r0, #1073741824	; 0x40000000
 80054ba:	f8c2 0900 	str.w	r0, [r2, #2304]	; 0x900
    if ((otgp->oe[i].DOEPCTL & DIEPCTL_EPENA) != 0U) {
 80054be:	f8d2 0b00 	ldr.w	r0, [r2, #2816]	; 0xb00
 80054c2:	2800      	cmp	r0, #0
 80054c4:	da05      	bge.n	80054d2 <main+0x912>
      otgp->oe[i].DOEPCTL |= DIEPCTL_EPDIS;
 80054c6:	f8d2 0b00 	ldr.w	r0, [r2, #2816]	; 0xb00
 80054ca:	f040 4080 	orr.w	r0, r0, #1073741824	; 0x40000000
 80054ce:	f8c2 0b00 	str.w	r0, [r2, #2816]	; 0xb00
  for (i = 0; i <= usbp->otgparams->num_endpoints; i++) {
 80054d2:	45c6      	cmp	lr, r8
    otgp->ie[i].DIEPINT = 0xFFFFFFFF;
 80054d4:	f8c3 c908 	str.w	ip, [r3, #2312]	; 0x908
    otgp->oe[i].DOEPINT = 0xFFFFFFFF;
 80054d8:	f8c3 cb08 	str.w	ip, [r3, #2824]	; 0xb08
  for (i = 0; i <= usbp->otgparams->num_endpoints; i++) {
 80054dc:	d1df      	bne.n	800549e <main+0x8de>
    if (usbp->config->sof_cb == NULL)
 80054de:	6873      	ldr	r3, [r6, #4]
 80054e0:	68da      	ldr	r2, [r3, #12]
  otgp->DAINTMSK = DAINTMSK_OEPM(0) | DAINTMSK_IEPM(0);
 80054e2:	f04f 1301 	mov.w	r3, #65537	; 0x10001
 80054e6:	f8c1 381c 	str.w	r3, [r1, #2076]	; 0x81c
    otgp->DIEPMSK  = 0;
 80054ea:	2300      	movs	r3, #0
 80054ec:	f8c7 3810 	str.w	r3, [r7, #2064]	; 0x810
    otgp->DOEPMSK  = 0;
 80054f0:	f8c7 3814 	str.w	r3, [r7, #2068]	; 0x814
    otgp->DAINTMSK = 0;
 80054f4:	f8c7 381c 	str.w	r3, [r7, #2076]	; 0x81c
    if (usbp->config->sof_cb == NULL)
 80054f8:	b14a      	cbz	r2, 800550e <main+0x94e>
      otgp->GINTMSK  = GINTMSK_ENUMDNEM | GINTMSK_USBRSTM | GINTMSK_USBSUSPM |
 80054fa:	4b0a      	ldr	r3, [pc, #40]	; (8005524 <main+0x964>)
 80054fc:	61bb      	str	r3, [r7, #24]
    otgp->GINTSTS  = 0xFFFFFFFF;
 80054fe:	f04f 33ff 	mov.w	r3, #4294967295	; 0xffffffff
 8005502:	617b      	str	r3, [r7, #20]
    otgp->GAHBCFG |= GAHBCFG_GINTMSK;
 8005504:	68bb      	ldr	r3, [r7, #8]
 8005506:	f043 0301 	orr.w	r3, r3, #1
 800550a:	60bb      	str	r3, [r7, #8]
 800550c:	e58a      	b.n	8005024 <main+0x464>
      otgp->GINTMSK  = GINTMSK_ENUMDNEM | GINTMSK_USBRSTM | GINTMSK_USBSUSPM |
 800550e:	4b06      	ldr	r3, [pc, #24]	; (8005528 <main+0x968>)
 8005510:	61bb      	str	r3, [r7, #24]
 8005512:	e7f4      	b.n	80054fe <main+0x93e>
 8005514:	40023800 	.word	0x40023800
 8005518:	e000e100 	.word	0xe000e100
 800551c:	40001440 	.word	0x40001440
 8005520:	02200003 	.word	0x02200003
 8005524:	c0303c08 	.word	0xc0303c08
 8005528:	c0303c00 	.word	0xc0303c00
 800552c:	00000000 	.word	0x00000000

08005530 <__early_init>:

static void stm32_gpio_init(void) {

  /* Enabling GPIO-related clocks, the mask comes from the
     registry header file.*/
  rccResetAHB1(STM32_GPIO_EN_MASK);
 8005530:	4b68      	ldr	r3, [pc, #416]	; (80056d4 <__early_init+0x1a4>)
  gpiop->PUPDR   = config->pupdr;
 8005532:	f8df c1e8 	ldr.w	ip, [pc, #488]	; 800571c <__early_init+0x1ec>
  rccResetAHB1(STM32_GPIO_EN_MASK);
 8005536:	691a      	ldr	r2, [r3, #16]
  gpiop->OTYPER  = config->otyper;
 8005538:	4867      	ldr	r0, [pc, #412]	; (80056d8 <__early_init+0x1a8>)
 800553a:	4968      	ldr	r1, [pc, #416]	; (80056dc <__early_init+0x1ac>)
  rccResetAHB1(STM32_GPIO_EN_MASK);
 800553c:	f042 021f 	orr.w	r2, r2, #31
/**
 * @brief   Early initialization code.
 * @details GPIO ports and system clocks are initialized before everything
 *          else.
 */
void __early_init(void) {
 8005540:	b4f0      	push	{r4, r5, r6, r7}
  rccResetAHB1(STM32_GPIO_EN_MASK);
 8005542:	611a      	str	r2, [r3, #16]
 8005544:	691a      	ldr	r2, [r3, #16]
  gpiop->OTYPER  = config->otyper;
 8005546:	4d66      	ldr	r5, [pc, #408]	; (80056e0 <__early_init+0x1b0>)
  gpiop->AFRL    = config->afrl;
 8005548:	4f66      	ldr	r7, [pc, #408]	; (80056e4 <__early_init+0x1b4>)
  gpiop->OTYPER  = config->otyper;
 800554a:	4c67      	ldr	r4, [pc, #412]	; (80056e8 <__early_init+0x1b8>)
  rccResetAHB1(STM32_GPIO_EN_MASK);
 800554c:	f022 021f 	bic.w	r2, r2, #31
 8005550:	611a      	str	r2, [r3, #16]
 8005552:	691a      	ldr	r2, [r3, #16]
  rccEnableAHB1(STM32_GPIO_EN_MASK, true);
 8005554:	6b1a      	ldr	r2, [r3, #48]	; 0x30
 8005556:	f042 021f 	orr.w	r2, r2, #31
 800555a:	631a      	str	r2, [r3, #48]	; 0x30
 800555c:	6d1a      	ldr	r2, [r3, #80]	; 0x50
 800555e:	f042 021f 	orr.w	r2, r2, #31
 8005562:	651a      	str	r2, [r3, #80]	; 0x50
  gpiop->OTYPER  = config->otyper;
 8005564:	f44f 7280 	mov.w	r2, #256	; 0x100
  rccEnableAHB1(STM32_GPIO_EN_MASK, true);
 8005568:	6d1e      	ldr	r6, [r3, #80]	; 0x50
  gpiop->OTYPER  = config->otyper;
 800556a:	606a      	str	r2, [r5, #4]
  gpiop->ODR     = config->odr;
 800556c:	f64f 76ff 	movw	r6, #65535	; 0xffff
  gpiop->OSPEEDR = config->ospeedr;
 8005570:	f06f 0250 	mvn.w	r2, #80	; 0x50
 8005574:	60aa      	str	r2, [r5, #8]
  gpiop->PUPDR   = config->pupdr;
 8005576:	f8c5 c00c 	str.w	ip, [r5, #12]
  gpiop->AFRH    = config->afrh;
 800557a:	f44f 222a 	mov.w	r2, #696320	; 0xaa000
  gpiop->ODR     = config->odr;
 800557e:	616e      	str	r6, [r5, #20]
  gpiop->AFRL    = config->afrl;
 8005580:	622f      	str	r7, [r5, #32]
  gpiop->MODER   = config->moder;
 8005582:	4f5a      	ldr	r7, [pc, #360]	; (80056ec <__early_init+0x1bc>)
  gpiop->AFRH    = config->afrh;
 8005584:	626a      	str	r2, [r5, #36]	; 0x24
  gpiop->OTYPER  = config->otyper;
 8005586:	2200      	movs	r2, #0
  gpiop->MODER   = config->moder;
 8005588:	602f      	str	r7, [r5, #0]
  gpiop->OSPEEDR = config->ospeedr;
 800558a:	f04f 35ff 	mov.w	r5, #4294967295	; 0xffffffff
  gpiop->PUPDR   = config->pupdr;
 800558e:	4f58      	ldr	r7, [pc, #352]	; (80056f0 <__early_init+0x1c0>)
  gpiop->OTYPER  = config->otyper;
 8005590:	6042      	str	r2, [r0, #4]
  gpiop->OSPEEDR = config->ospeedr;
 8005592:	6085      	str	r5, [r0, #8]
  gpiop->PUPDR   = config->pupdr;
 8005594:	60c7      	str	r7, [r0, #12]
  gpiop->MODER   = config->moder;
 8005596:	2780      	movs	r7, #128	; 0x80
  gpiop->ODR     = config->odr;
 8005598:	6146      	str	r6, [r0, #20]
  gpiop->AFRL    = config->afrl;
 800559a:	6202      	str	r2, [r0, #32]
  gpiop->AFRH    = config->afrh;
 800559c:	6242      	str	r2, [r0, #36]	; 0x24
  gpiop->MODER   = config->moder;
 800559e:	6007      	str	r7, [r0, #0]
  gpiop->PUPDR   = config->pupdr;
 80055a0:	4f54      	ldr	r7, [pc, #336]	; (80056f4 <__early_init+0x1c4>)
  gpiop->OTYPER  = config->otyper;
 80055a2:	604a      	str	r2, [r1, #4]
  gpiop->OSPEEDR = config->ospeedr;
 80055a4:	608d      	str	r5, [r1, #8]
  gpiop->PUPDR   = config->pupdr;
 80055a6:	60cf      	str	r7, [r1, #12]
  gpiop->MODER   = config->moder;
 80055a8:	f04f 6780 	mov.w	r7, #67108864	; 0x4000000
  gpiop->ODR     = config->odr;
 80055ac:	614e      	str	r6, [r1, #20]
  gpiop->AFRL    = config->afrl;
 80055ae:	620a      	str	r2, [r1, #32]
  gpiop->AFRH    = config->afrh;
 80055b0:	624a      	str	r2, [r1, #36]	; 0x24
  gpiop->MODER   = config->moder;
 80055b2:	600f      	str	r7, [r1, #0]
  gpiop->OTYPER  = config->otyper;
 80055b4:	f501 51a0 	add.w	r1, r1, #5120	; 0x1400
  gpiop->PUPDR   = config->pupdr;
 80055b8:	f04f 3755 	mov.w	r7, #1431655765	; 0x55555555
  gpiop->OTYPER  = config->otyper;
 80055bc:	6062      	str	r2, [r4, #4]
  gpiop->OSPEEDR = config->ospeedr;
 80055be:	60a5      	str	r5, [r4, #8]
  gpiop->PUPDR   = config->pupdr;
 80055c0:	60e7      	str	r7, [r4, #12]
  gpiop->ODR     = config->odr;
 80055c2:	6166      	str	r6, [r4, #20]
  gpiop->AFRL    = config->afrl;
 80055c4:	6222      	str	r2, [r4, #32]
  gpiop->AFRH    = config->afrh;
 80055c6:	6262      	str	r2, [r4, #36]	; 0x24
  gpiop->MODER   = config->moder;
 80055c8:	6022      	str	r2, [r4, #0]
  gpiop->OTYPER  = config->otyper;
 80055ca:	f8c0 2c04 	str.w	r2, [r0, #3076]	; 0xc04
  RCC->APB1ENR = RCC_APB1ENR_PWREN;
#endif

  /* PWR initialization.*/
#if defined(STM32F4XX) || defined(__DOXYGEN__)
  PWR->CR = STM32_VOS;
 80055ce:	f5a4 34ce 	sub.w	r4, r4, #105472	; 0x19c00
  gpiop->OSPEEDR = config->ospeedr;
 80055d2:	f8c0 5c08 	str.w	r5, [r0, #3080]	; 0xc08
  gpiop->PUPDR   = config->pupdr;
 80055d6:	f8c0 7c0c 	str.w	r7, [r0, #3084]	; 0xc0c
  gpiop->ODR     = config->odr;
 80055da:	f8c0 6c14 	str.w	r6, [r0, #3092]	; 0xc14
  gpiop->AFRL    = config->afrl;
 80055de:	f8c0 2c20 	str.w	r2, [r0, #3104]	; 0xc20
  gpiop->AFRH    = config->afrh;
 80055e2:	f8c0 2c24 	str.w	r2, [r0, #3108]	; 0xc24
  gpiop->MODER   = config->moder;
 80055e6:	f8c0 2c00 	str.w	r2, [r0, #3072]	; 0xc00
  gpiop->PUPDR   = config->pupdr;
 80055ea:	4843      	ldr	r0, [pc, #268]	; (80056f8 <__early_init+0x1c8>)
  gpiop->OTYPER  = config->otyper;
 80055ec:	604a      	str	r2, [r1, #4]
  gpiop->OSPEEDR = config->ospeedr;
 80055ee:	608d      	str	r5, [r1, #8]
  gpiop->PUPDR   = config->pupdr;
 80055f0:	60c8      	str	r0, [r1, #12]
  RCC->APB1ENR = RCC_APB1ENR_PWREN;
 80055f2:	f04f 5580 	mov.w	r5, #268435456	; 0x10000000
  PWR->CR = STM32_VOS;
 80055f6:	f44f 4000 	mov.w	r0, #32768	; 0x8000
  gpiop->ODR     = config->odr;
 80055fa:	614e      	str	r6, [r1, #20]
  gpiop->AFRL    = config->afrl;
 80055fc:	620a      	str	r2, [r1, #32]
  gpiop->AFRH    = config->afrh;
 80055fe:	624a      	str	r2, [r1, #36]	; 0x24
  gpiop->MODER   = config->moder;
 8005600:	600a      	str	r2, [r1, #0]
  RCC->APB1ENR = RCC_APB1ENR_PWREN;
 8005602:	641d      	str	r5, [r3, #64]	; 0x40
  PWR->CR = STM32_VOS;
 8005604:	6020      	str	r0, [r4, #0]
  PWR->CR = 0;
#endif

  /* HSI setup, it enforces the reset situation in order to handle possible
     problems with JTAG probes and re-initializations.*/
  RCC->CR |= RCC_CR_HSION;                  /* Make sure HSI is ON.         */
 8005606:	681a      	ldr	r2, [r3, #0]
 8005608:	f042 0201 	orr.w	r2, r2, #1
 800560c:	601a      	str	r2, [r3, #0]
  while (!(RCC->CR & RCC_CR_HSIRDY))
 800560e:	681a      	ldr	r2, [r3, #0]
 8005610:	0796      	lsls	r6, r2, #30
 8005612:	d5fc      	bpl.n	800560e <__early_init+0xde>
    ;                                       /* Wait until HSI is stable.    */

  /* HSI is selected as new source without touching the other fields in
     CFGR. Clearing the register has to be postponed after HSI is the
     new source.*/
  RCC->CFGR &= ~RCC_CFGR_SW;                /* Reset SW, selecting HSI.     */
 8005614:	6899      	ldr	r1, [r3, #8]
  while ((RCC->CFGR & RCC_CFGR_SWS) != RCC_CFGR_SWS_HSI)
 8005616:	4a2f      	ldr	r2, [pc, #188]	; (80056d4 <__early_init+0x1a4>)
  RCC->CFGR &= ~RCC_CFGR_SW;                /* Reset SW, selecting HSI.     */
 8005618:	f021 0103 	bic.w	r1, r1, #3
 800561c:	6099      	str	r1, [r3, #8]
  while ((RCC->CFGR & RCC_CFGR_SWS) != RCC_CFGR_SWS_HSI)
 800561e:	6893      	ldr	r3, [r2, #8]
 8005620:	f013 030c 	ands.w	r3, r3, #12
 8005624:	d1fb      	bne.n	800561e <__early_init+0xee>
    ;                                       /* Wait until HSI is selected.  */

  /* Registers finally cleared to reset values.*/
  RCC->CR &= RCC_CR_HSITRIM | RCC_CR_HSION; /* CR Reset value.              */
 8005626:	6810      	ldr	r0, [r2, #0]
  RCC->CR |= RCC_CR_HSEON | RCC_CR_HSEBYP;
#else
  /* No HSE Bypass.*/
  RCC->CR |= RCC_CR_HSEON;
#endif
  while ((RCC->CR & RCC_CR_HSERDY) == 0)
 8005628:	492a      	ldr	r1, [pc, #168]	; (80056d4 <__early_init+0x1a4>)
  RCC->CR &= RCC_CR_HSITRIM | RCC_CR_HSION; /* CR Reset value.              */
 800562a:	f000 00f9 	and.w	r0, r0, #249	; 0xf9
 800562e:	6010      	str	r0, [r2, #0]
  RCC->CFGR = 0;                            /* CFGR reset value.            */
 8005630:	6093      	str	r3, [r2, #8]
  RCC->CR |= RCC_CR_HSEON;
 8005632:	6813      	ldr	r3, [r2, #0]
 8005634:	f443 3380 	orr.w	r3, r3, #65536	; 0x10000
 8005638:	6013      	str	r3, [r2, #0]
  while ((RCC->CR & RCC_CR_HSERDY) == 0)
 800563a:	680b      	ldr	r3, [r1, #0]
 800563c:	039d      	lsls	r5, r3, #14
 800563e:	d5fc      	bpl.n	800563a <__early_init+0x10a>
    ;                           /* Waits until HSE is stable.               */
#endif

#if STM32_LSI_ENABLED
  /* LSI activation.*/
  RCC->CSR |= RCC_CSR_LSION;
 8005640:	6f4a      	ldr	r2, [r1, #116]	; 0x74
  while ((RCC->CSR & RCC_CSR_LSIRDY) == 0)
 8005642:	4b24      	ldr	r3, [pc, #144]	; (80056d4 <__early_init+0x1a4>)
  RCC->CSR |= RCC_CSR_LSION;
 8005644:	f042 0201 	orr.w	r2, r2, #1
 8005648:	674a      	str	r2, [r1, #116]	; 0x74
  while ((RCC->CSR & RCC_CSR_LSIRDY) == 0)
 800564a:	6f5a      	ldr	r2, [r3, #116]	; 0x74
 800564c:	0794      	lsls	r4, r2, #30
 800564e:	d5fc      	bpl.n	800564a <__early_init+0x11a>
    ;                           /* Waits until LSI is stable.               */
#endif

#if STM32_ACTIVATE_PLL
  /* PLL activation.*/
  RCC->PLLCFGR = STM32_PLLQ | STM32_PLLSRC | STM32_PLLP | STM32_PLLN |
 8005650:	4a2a      	ldr	r2, [pc, #168]	; (80056fc <__early_init+0x1cc>)
 8005652:	605a      	str	r2, [r3, #4]
                 STM32_PLLM;
  RCC->CR |= RCC_CR_PLLON;
 8005654:	681a      	ldr	r2, [r3, #0]

  /* Synchronization with voltage regulator stabilization.*/
#if defined(STM32F4XX)
  while ((PWR->CSR & PWR_CSR_VOSRDY) == 0)
 8005656:	492a      	ldr	r1, [pc, #168]	; (8005700 <__early_init+0x1d0>)
  RCC->CR |= RCC_CR_PLLON;
 8005658:	f042 7280 	orr.w	r2, r2, #16777216	; 0x1000000
 800565c:	601a      	str	r2, [r3, #0]
  while ((PWR->CSR & PWR_CSR_VOSRDY) == 0)
 800565e:	684b      	ldr	r3, [r1, #4]
 8005660:	0458      	lsls	r0, r3, #17
 8005662:	d5fc      	bpl.n	800565e <__early_init+0x12e>
      ;
#endif /* STM32_OVERDRIVE_REQUIRED */
#endif /* defined(STM32F4XX) */

  /* Waiting for PLL lock.*/
  while (!(RCC->CR & RCC_CR_PLLRDY))
 8005664:	4b1b      	ldr	r3, [pc, #108]	; (80056d4 <__early_init+0x1a4>)
 8005666:	681a      	ldr	r2, [r3, #0]
 8005668:	0192      	lsls	r2, r2, #6
 800566a:	d5fc      	bpl.n	8005666 <__early_init+0x136>
    ;
#endif /* STM32_ACTIVATE_PLLSAI */

  /* Other clock-related settings (dividers, MCO etc).*/
#if !defined(STM32F413xx)
  RCC->CFGR = STM32_MCO2PRE | STM32_MCO2SEL | STM32_MCO1PRE | STM32_MCO1SEL |
 800566c:	4925      	ldr	r1, [pc, #148]	; (8005704 <__early_init+0x1d4>)
 800566e:	6099      	str	r1, [r3, #8]

  /* Flash setup.*/
#if !defined(STM32_REMOVE_REVISION_A_FIX)
  /* Some old revisions of F4x MCUs randomly crashes with compiler
     optimizations enabled AND flash caches enabled. */
  if ((DBGMCU->IDCODE == 0x20006411) && (SCB->CPUID == 0x410FC241))
 8005670:	4a25      	ldr	r2, [pc, #148]	; (8005708 <__early_init+0x1d8>)
    RCC->DCKCFGR = dckcfgr |
 8005672:	2103      	movs	r1, #3
 8005674:	f8c3 108c 	str.w	r1, [r3, #140]	; 0x8c
  if ((DBGMCU->IDCODE == 0x20006411) && (SCB->CPUID == 0x410FC241))
 8005678:	6812      	ldr	r2, [r2, #0]
 800567a:	4b24      	ldr	r3, [pc, #144]	; (800570c <__early_init+0x1dc>)
 800567c:	429a      	cmp	r2, r3
 800567e:	d01e      	beq.n	80056be <__early_init+0x18e>
    FLASH->ACR = FLASH_ACR_PRFTEN | STM32_FLASHBITS;
  else
    FLASH->ACR = FLASH_ACR_PRFTEN | FLASH_ACR_ICEN |
 8005680:	4b23      	ldr	r3, [pc, #140]	; (8005710 <__early_init+0x1e0>)
 8005682:	f240 7202 	movw	r2, #1794	; 0x702
 8005686:	601a      	str	r2, [r3, #0]
                 FLASH_ACR_DCEN | STM32_FLASHBITS;
#else
  FLASH->ACR = FLASH_ACR_PRFTEN | FLASH_ACR_ICEN |
               FLASH_ACR_DCEN | STM32_FLASHBITS;
#endif
  while ((FLASH->ACR & FLASH_ACR_LATENCY_Msk) !=
 8005688:	4a21      	ldr	r2, [pc, #132]	; (8005710 <__early_init+0x1e0>)
 800568a:	6813      	ldr	r3, [r2, #0]
 800568c:	f003 030f 	and.w	r3, r3, #15
 8005690:	2b02      	cmp	r3, #2
 8005692:	d1fa      	bne.n	800568a <__early_init+0x15a>
         (STM32_FLASHBITS & FLASH_ACR_LATENCY_Msk)) {
  }

  /* Switching to the configured clock source if it is different from HSI.*/
#if (STM32_SW != STM32_SW_HSI)
  RCC->CFGR |= STM32_SW;        /* Switches on the selected clock source.   */
 8005694:	4b0f      	ldr	r3, [pc, #60]	; (80056d4 <__early_init+0x1a4>)
 8005696:	689a      	ldr	r2, [r3, #8]
 8005698:	f042 0202 	orr.w	r2, r2, #2
 800569c:	609a      	str	r2, [r3, #8]
  while ((RCC->CFGR & RCC_CFGR_SWS) != (STM32_SW << 2))
 800569e:	689a      	ldr	r2, [r3, #8]
 80056a0:	f002 020c 	and.w	r2, r2, #12
 80056a4:	2a08      	cmp	r2, #8
 80056a6:	d1fa      	bne.n	800569e <__early_init+0x16e>
#endif
#endif /* STM32_NO_INIT */

  /* SYSCFG clock enabled here because it is a multi-functional unit shared
     among multiple drivers.*/
  rccEnableAPB2(RCC_APB2ENR_SYSCFGEN, true);
 80056a8:	6c5a      	ldr	r2, [r3, #68]	; 0x44
 80056aa:	f442 4280 	orr.w	r2, r2, #16384	; 0x4000
 80056ae:	645a      	str	r2, [r3, #68]	; 0x44
 80056b0:	6e5a      	ldr	r2, [r3, #100]	; 0x64
 80056b2:	f442 4280 	orr.w	r2, r2, #16384	; 0x4000
 80056b6:	665a      	str	r2, [r3, #100]	; 0x64

  stm32_gpio_init();
  stm32_clock_init();
}
 80056b8:	bcf0      	pop	{r4, r5, r6, r7}
 80056ba:	6e5b      	ldr	r3, [r3, #100]	; 0x64
 80056bc:	4770      	bx	lr
  if ((DBGMCU->IDCODE == 0x20006411) && (SCB->CPUID == 0x410FC241))
 80056be:	4a15      	ldr	r2, [pc, #84]	; (8005714 <__early_init+0x1e4>)
 80056c0:	4b15      	ldr	r3, [pc, #84]	; (8005718 <__early_init+0x1e8>)
 80056c2:	6812      	ldr	r2, [r2, #0]
 80056c4:	429a      	cmp	r2, r3
 80056c6:	d1db      	bne.n	8005680 <__early_init+0x150>
    FLASH->ACR = FLASH_ACR_PRFTEN | STM32_FLASHBITS;
 80056c8:	4b11      	ldr	r3, [pc, #68]	; (8005710 <__early_init+0x1e0>)
 80056ca:	f44f 7281 	mov.w	r2, #258	; 0x102
 80056ce:	601a      	str	r2, [r3, #0]
 80056d0:	e7da      	b.n	8005688 <__early_init+0x158>
 80056d2:	bf00      	nop
 80056d4:	40023800 	.word	0x40023800
 80056d8:	40020400 	.word	0x40020400
 80056dc:	40020800 	.word	0x40020800
 80056e0:	40020000 	.word	0x40020000
 80056e4:	55507700 	.word	0x55507700
 80056e8:	40020c00 	.word	0x40020c00
 80056ec:	2a80a9a0 	.word	0x2a80a9a0
 80056f0:	55555455 	.word	0x55555455
 80056f4:	01555555 	.word	0x01555555
 80056f8:	55555550 	.word	0x55555550
 80056fc:	07415419 	.word	0x07415419
 8005700:	40007000 	.word	0x40007000
 8005704:	38881000 	.word	0x38881000
 8005708:	e0042000 	.word	0xe0042000
 800570c:	20006411 	.word	0x20006411
 8005710:	40023c00 	.word	0x40023c00
 8005714:	e000ed00 	.word	0xe000ed00
 8005718:	410fc241 	.word	0x410fc241
 800571c:	64150005 	.word	0x64150005

08005720 <Vector15C>:
OSAL_IRQ_HANDLER(STM32_USART6_HANDLER) {
 8005720:	b508      	push	{r3, lr}
  serve_interrupt(&SD6);
 8005722:	4803      	ldr	r0, [pc, #12]	; (8005730 <Vector15C+0x10>)
 8005724:	f7fc f944 	bl	80019b0 <serve_interrupt>
}
 8005728:	e8bd 4008 	ldmia.w	sp!, {r3, lr}
  OSAL_IRQ_EPILOGUE();
 800572c:	f7fb bfd0 	b.w	80016d0 <_port_irq_epilogue>
 8005730:	20001150 	.word	0x20001150
	...

08005740 <VectorD8>:
OSAL_IRQ_HANDLER(STM32_USART2_HANDLER) {
 8005740:	b508      	push	{r3, lr}
  serve_interrupt(&SD2);
 8005742:	4803      	ldr	r0, [pc, #12]	; (8005750 <VectorD8+0x10>)
 8005744:	f7fc f934 	bl	80019b0 <serve_interrupt>
}
 8005748:	e8bd 4008 	ldmia.w	sp!, {r3, lr}
  OSAL_IRQ_EPILOGUE();
 800574c:	f7fb bfc0 	b.w	80016d0 <_port_irq_epilogue>
 8005750:	20000ef4 	.word	0x20000ef4
	...

08005760 <VectorD4>:
OSAL_IRQ_HANDLER(STM32_USART1_HANDLER) {
 8005760:	b508      	push	{r3, lr}
  serve_interrupt(&SD1);
 8005762:	4803      	ldr	r0, [pc, #12]	; (8005770 <VectorD4+0x10>)
 8005764:	f7fc f924 	bl	80019b0 <serve_interrupt>
}
 8005768:	e8bd 4008 	ldmia.w	sp!, {r3, lr}
  OSAL_IRQ_EPILOGUE();
 800576c:	f7fb bfb0 	b.w	80016d0 <_port_irq_epilogue>
 8005770:	20000c98 	.word	0x20000c98
	...

08005780 <VectorB0>:
OSAL_IRQ_HANDLER(STM32_TIM2_HANDLER) {
 8005780:	b508      	push	{r3, lr}
  icu_lld_serve_interrupt(&ICUD2);
 8005782:	4803      	ldr	r0, [pc, #12]	; (8005790 <VectorB0+0x10>)
 8005784:	f7fc f9dc 	bl	8001b40 <icu_lld_serve_interrupt>
}
 8005788:	e8bd 4008 	ldmia.w	sp!, {r3, lr}
  OSAL_IRQ_EPILOGUE();
 800578c:	f7fb bfa0 	b.w	80016d0 <_port_irq_epilogue>
 8005790:	20000c80 	.word	0x20000c80
	...

080057a0 <VectorA4>:
OSAL_IRQ_HANDLER(STM32_TIM1_UP_HANDLER) {
 80057a0:	b508      	push	{r3, lr}
  icu_lld_serve_interrupt(&ICUD1);
 80057a2:	4803      	ldr	r0, [pc, #12]	; (80057b0 <VectorA4+0x10>)
 80057a4:	f7fc f9cc 	bl	8001b40 <icu_lld_serve_interrupt>
}
 80057a8:	e8bd 4008 	ldmia.w	sp!, {r3, lr}
  OSAL_IRQ_EPILOGUE();
 80057ac:	f7fb bf90 	b.w	80016d0 <_port_irq_epilogue>
 80057b0:	20000c68 	.word	0x20000c68
	...

080057c0 <VectorAC>:
 80057c0:	f7ff bfee 	b.w	80057a0 <VectorA4>
	...

080057d0 <Vector108>:
OSAL_IRQ_HANDLER(ST_HANDLER) {
 80057d0:	e92d 43f8 	stmdb	sp!, {r3, r4, r5, r6, r7, r8, r9, lr}
void st_lld_serve_interrupt(void) {
#if OSAL_ST_MODE == OSAL_ST_MODE_FREERUNNING
  uint32_t sr;
  stm32_tim_t *timp = STM32_ST_TIM;

  sr  = timp->SR;
 80057d4:	4c28      	ldr	r4, [pc, #160]	; (8005878 <Vector108+0xa8>)
 80057d6:	6923      	ldr	r3, [r4, #16]
  sr &= timp->DIER & STM32_TIM_DIER_IRQ_MASK;
 80057d8:	68e2      	ldr	r2, [r4, #12]
 80057da:	4013      	ands	r3, r2
 80057dc:	b2da      	uxtb	r2, r3
  timp->SR = ~sr;
 80057de:	43d2      	mvns	r2, r2

  if ((sr & TIM_SR_CC1IF) != 0U)
 80057e0:	079b      	lsls	r3, r3, #30
  timp->SR = ~sr;
 80057e2:	6122      	str	r2, [r4, #16]
  if ((sr & TIM_SR_CC1IF) != 0U)
 80057e4:	d403      	bmi.n	80057ee <Vector108+0x1e>
}
 80057e6:	e8bd 43f8 	ldmia.w	sp!, {r3, r4, r5, r6, r7, r8, r9, lr}
  OSAL_IRQ_EPILOGUE();
 80057ea:	f7fb bf71 	b.w	80016d0 <_port_irq_epilogue>
 80057ee:	2320      	movs	r3, #32
 80057f0:	f383 8811 	msr	BASEPRI, r3
  virtual_timer_t *vtp;
  systime_t now;
  sysinterval_t delta, nowdelta;

  /* Looping through timers.*/
  vtp = ch.vtlist.next;
 80057f4:	4d21      	ldr	r5, [pc, #132]	; (800587c <Vector108+0xac>)
 80057f6:	6a67      	ldr	r7, [r4, #36]	; 0x24
 80057f8:	69ab      	ldr	r3, [r5, #24]
  while (true) {

    /* Getting the system time as reference.*/
    now = chVTGetSystemTimeX();
    nowdelta = chTimeDiffX(ch.vtlist.lasttime, now);
 80057fa:	6a6a      	ldr	r2, [r5, #36]	; 0x24

    /* The list scan is limited by the timers header having
       "ch.vtlist.vt_delta == (sysinterval_t)-1" which is
       greater than all deltas.*/
    if (nowdelta < vtp->delta) {
 80057fc:	6899      	ldr	r1, [r3, #8]
  return (sysinterval_t)((systime_t)(end - start));
 80057fe:	1abe      	subs	r6, r7, r2
 8005800:	42b1      	cmp	r1, r6
 8005802:	f105 0918 	add.w	r9, r5, #24
      nowdelta -= vtp->delta;

      vtp->next->prev = (virtual_timer_t *)&ch.vtlist;
      ch.vtlist.next = vtp->next;
      fn = vtp->func;
      vtp->func = NULL;
 8005806:	bf98      	it	ls
 8005808:	f04f 0800 	movls.w	r8, #0
    if (nowdelta < vtp->delta) {
 800580c:	d820      	bhi.n	8005850 <Vector108+0x80>
 800580e:	2720      	movs	r7, #32
 8005810:	e000      	b.n	8005814 <Vector108+0x44>
 8005812:	6a6a      	ldr	r2, [r5, #36]	; 0x24
      vtp->next->prev = (virtual_timer_t *)&ch.vtlist;
 8005814:	6818      	ldr	r0, [r3, #0]
      ch.vtlist.lasttime += vtp->delta;
 8005816:	440a      	add	r2, r1

      /* If the list becomes empty then the timer is stopped.*/
      if (ch.vtlist.next == (virtual_timer_t *)&ch.vtlist) {
 8005818:	4548      	cmp	r0, r9
      ch.vtlist.lasttime += vtp->delta;
 800581a:	626a      	str	r2, [r5, #36]	; 0x24
      nowdelta -= vtp->delta;
 800581c:	eba6 0601 	sub.w	r6, r6, r1
      fn = vtp->func;
 8005820:	68da      	ldr	r2, [r3, #12]
      vtp->next->prev = (virtual_timer_t *)&ch.vtlist;
 8005822:	f8c0 9004 	str.w	r9, [r0, #4]
      ch.vtlist.next = vtp->next;
 8005826:	61a8      	str	r0, [r5, #24]
      vtp->func = NULL;
 8005828:	f8c3 800c 	str.w	r8, [r3, #12]
  STM32_ST_TIM->DIER = 0U;
 800582c:	bf08      	it	eq
 800582e:	f8c4 800c 	streq.w	r8, [r4, #12]
 8005832:	f388 8811 	msr	BASEPRI, r8
        port_timer_stop_alarm();
      }

      /* The callback is invoked outside the kernel critical zone.*/
      chSysUnlockFromISR();
      fn(vtp->par);
 8005836:	6918      	ldr	r0, [r3, #16]
 8005838:	4790      	blx	r2
 800583a:	f387 8811 	msr	BASEPRI, r7
      chSysLockFromISR();

      /* Next element in the list.*/
      vtp = ch.vtlist.next;
 800583e:	69ab      	ldr	r3, [r5, #24]
    }
    while (vtp->delta <= nowdelta);
 8005840:	6899      	ldr	r1, [r3, #8]
 8005842:	428e      	cmp	r6, r1
 8005844:	d2e5      	bcs.n	8005812 <Vector108+0x42>
  return (systime_t)STM32_ST_TIM->CNT;
 8005846:	6a67      	ldr	r7, [r4, #36]	; 0x24
    nowdelta = chTimeDiffX(ch.vtlist.lasttime, now);
 8005848:	6a6a      	ldr	r2, [r5, #36]	; 0x24
 800584a:	1abe      	subs	r6, r7, r2
    if (nowdelta < vtp->delta) {
 800584c:	428e      	cmp	r6, r1
 800584e:	d2de      	bcs.n	800580e <Vector108+0x3e>
  }

  /* If the list is empty, nothing else to do.*/
  if (ch.vtlist.next == (virtual_timer_t *)&ch.vtlist) {
 8005850:	454b      	cmp	r3, r9
 8005852:	d00a      	beq.n	800586a <Vector108+0x9a>
  }

  /* The "unprocessed nowdelta" time slice is added to "last time"
     and subtracted to next timer's delta.*/
  ch.vtlist.lasttime += nowdelta;
  ch.vtlist.next->delta -= nowdelta;
 8005854:	6899      	ldr	r1, [r3, #8]
  ch.vtlist.lasttime += nowdelta;
 8005856:	626f      	str	r7, [r5, #36]	; 0x24
  ch.vtlist.next->delta -= nowdelta;
 8005858:	1bc9      	subs	r1, r1, r7
 800585a:	440a      	add	r2, r1
  STM32_ST_TIM->CCR[0] = (uint32_t)abstime;
 800585c:	4906      	ldr	r1, [pc, #24]	; (8005878 <Vector108+0xa8>)
 800585e:	609a      	str	r2, [r3, #8]
  return systime + (systime_t)interval;
 8005860:	2a02      	cmp	r2, #2
 8005862:	bf2c      	ite	cs
 8005864:	18bf      	addcs	r7, r7, r2
 8005866:	3702      	addcc	r7, #2
 8005868:	634f      	str	r7, [r1, #52]	; 0x34
 800586a:	2300      	movs	r3, #0
 800586c:	f383 8811 	msr	BASEPRI, r3
}
 8005870:	e8bd 43f8 	ldmia.w	sp!, {r3, r4, r5, r6, r7, r8, r9, lr}
  OSAL_IRQ_EPILOGUE();
 8005874:	f7fb bf2c 	b.w	80016d0 <_port_irq_epilogue>
 8005878:	40000c00 	.word	0x40000c00
 800587c:	2000189c 	.word	0x2000189c

08005880 <Vector14C>:
OSAL_IRQ_HANDLER(STM32_OTG1_HANDLER) {
 8005880:	e92d 4ff8 	stmdb	sp!, {r3, r4, r5, r6, r7, r8, r9, sl, fp, lr}
  stm32_otg_t *otgp = usbp->otg;
 8005884:	4c9f      	ldr	r4, [pc, #636]	; (8005b04 <Vector14C+0x284>)
 8005886:	6d66      	ldr	r6, [r4, #84]	; 0x54
  sts  = otgp->GINTSTS;
 8005888:	6975      	ldr	r5, [r6, #20]
  sts &= otgp->GINTMSK;
 800588a:	69b3      	ldr	r3, [r6, #24]
 800588c:	401d      	ands	r5, r3
  if (sts & GINTSTS_USBRST) {
 800588e:	f415 5880 	ands.w	r8, r5, #4096	; 0x1000
  otgp->GINTSTS = sts;
 8005892:	6175      	str	r5, [r6, #20]
  if (sts & GINTSTS_USBRST) {
 8005894:	f040 8138 	bne.w	8005b08 <Vector14C+0x288>
  if (sts & GINTSTS_WKUPINT) {
 8005898:	2d00      	cmp	r5, #0
 800589a:	f2c0 80c2 	blt.w	8005a22 <Vector14C+0x1a2>
  if (sts & GINTSTS_USBSUSP) {
 800589e:	0529      	lsls	r1, r5, #20
 80058a0:	d538      	bpl.n	8005914 <Vector14C+0x94>
    otg_disable_ep(usbp);
 80058a2:	e9d4 7315 	ldrd	r7, r3, [r4, #84]	; 0x54
  for (i = 0; i <= usbp->otgparams->num_endpoints; i++) {
 80058a6:	2100      	movs	r1, #0
 80058a8:	f8d3 9008 	ldr.w	r9, [r3, #8]
    otgp->ie[i].DIEPINT = 0xFFFFFFFF;
 80058ac:	f04f 3cff 	mov.w	ip, #4294967295	; 0xffffffff
 80058b0:	e000      	b.n	80058b4 <Vector14C+0x34>
  for (i = 0; i <= usbp->otgparams->num_endpoints; i++) {
 80058b2:	4671      	mov	r1, lr
 80058b4:	eb07 1241 	add.w	r2, r7, r1, lsl #5
    otgp->ie[i].DIEPINT = 0xFFFFFFFF;
 80058b8:	4613      	mov	r3, r2
    if ((otgp->ie[i].DIEPCTL & DIEPCTL_EPENA) != 0U) {
 80058ba:	f8d2 0900 	ldr.w	r0, [r2, #2304]	; 0x900
 80058be:	2800      	cmp	r0, #0
  for (i = 0; i <= usbp->otgparams->num_endpoints; i++) {
 80058c0:	f101 0e01 	add.w	lr, r1, #1
    if ((otgp->ie[i].DIEPCTL & DIEPCTL_EPENA) != 0U) {
 80058c4:	da05      	bge.n	80058d2 <Vector14C+0x52>
      otgp->ie[i].DIEPCTL |= DIEPCTL_EPDIS;
 80058c6:	f8d2 0900 	ldr.w	r0, [r2, #2304]	; 0x900
 80058ca:	f040 4080 	orr.w	r0, r0, #1073741824	; 0x40000000
 80058ce:	f8c2 0900 	str.w	r0, [r2, #2304]	; 0x900
    if ((otgp->oe[i].DOEPCTL & DIEPCTL_EPENA) != 0U) {
 80058d2:	f8d2 0b00 	ldr.w	r0, [r2, #2816]	; 0xb00
 80058d6:	2800      	cmp	r0, #0
 80058d8:	da05      	bge.n	80058e6 <Vector14C+0x66>
      otgp->oe[i].DOEPCTL |= DIEPCTL_EPDIS;
 80058da:	f8d2 0b00 	ldr.w	r0, [r2, #2816]	; 0xb00
 80058de:	f040 4080 	orr.w	r0, r0, #1073741824	; 0x40000000
 80058e2:	f8c2 0b00 	str.w	r0, [r2, #2816]	; 0xb00
  for (i = 0; i <= usbp->otgparams->num_endpoints; i++) {
 80058e6:	4589      	cmp	r9, r1
    otgp->ie[i].DIEPINT = 0xFFFFFFFF;
 80058e8:	f8c3 c908 	str.w	ip, [r3, #2312]	; 0x908
    otgp->oe[i].DOEPINT = 0xFFFFFFFF;
 80058ec:	f8c3 cb08 	str.w	ip, [r3, #2824]	; 0xb08
  for (i = 0; i <= usbp->otgparams->num_endpoints; i++) {
 80058f0:	d1df      	bne.n	80058b2 <Vector14C+0x32>
  usbp->saved_state = usbp->state;
 80058f2:	7822      	ldrb	r2, [r4, #0]
 80058f4:	f884 2050 	strb.w	r2, [r4, #80]	; 0x50
  _usb_isr_invoke_event_cb(usbp, USB_EVENT_SUSPEND);
 80058f8:	6863      	ldr	r3, [r4, #4]
  usbp->state       = USB_SUSPENDED;
 80058fa:	2205      	movs	r2, #5
 80058fc:	7022      	strb	r2, [r4, #0]
  _usb_isr_invoke_event_cb(usbp, USB_EVENT_SUSPEND);
 80058fe:	681b      	ldr	r3, [r3, #0]
  otgp->DAINTMSK = DAINTMSK_OEPM(0) | DAINTMSK_IEPM(0);
 8005900:	f04f 1201 	mov.w	r2, #65537	; 0x10001
 8005904:	f8c7 281c 	str.w	r2, [r7, #2076]	; 0x81c
 8005908:	b113      	cbz	r3, 8005910 <Vector14C+0x90>
 800590a:	487e      	ldr	r0, [pc, #504]	; (8005b04 <Vector14C+0x284>)
 800590c:	2104      	movs	r1, #4
 800590e:	4798      	blx	r3
  usbp->transmitting  = 0;
 8005910:	2300      	movs	r3, #0
 8005912:	60a3      	str	r3, [r4, #8]
  if (sts & GINTSTS_ENUMDNE) {
 8005914:	04aa      	lsls	r2, r5, #18
 8005916:	d50c      	bpl.n	8005932 <Vector14C+0xb2>
    if ((otgp->DSTS & DSTS_ENUMSPD_MASK) == DSTS_ENUMSPD_HS_480) {
 8005918:	f8d6 3808 	ldr.w	r3, [r6, #2056]	; 0x808
 800591c:	f013 0f06 	tst.w	r3, #6
      otgp->GUSBCFG = (otgp->GUSBCFG & ~(GUSBCFG_TRDT_MASK)) |
 8005920:	68f3      	ldr	r3, [r6, #12]
 8005922:	f423 5370 	bic.w	r3, r3, #15360	; 0x3c00
 8005926:	bf0c      	ite	eq
 8005928:	f443 5310 	orreq.w	r3, r3, #9216	; 0x2400
      otgp->GUSBCFG = (otgp->GUSBCFG & ~(GUSBCFG_TRDT_MASK)) |
 800592c:	f443 53a0 	orrne.w	r3, r3, #5120	; 0x1400
 8005930:	60f3      	str	r3, [r6, #12]
  if (sts & GINTSTS_SOF) {
 8005932:	072b      	lsls	r3, r5, #28
 8005934:	d429      	bmi.n	800598a <Vector14C+0x10a>
  if (sts & GINTSTS_IISOIXFR) {
 8005936:	02ef      	lsls	r7, r5, #11
 8005938:	d42f      	bmi.n	800599a <Vector14C+0x11a>
  if (sts & GINTSTS_IISOOXFR) {
 800593a:	02a8      	lsls	r0, r5, #10
 800593c:	f100 80b6 	bmi.w	8005aac <Vector14C+0x22c>
  if ((sts & GINTSTS_RXFLVL) != 0U) {
 8005940:	06eb      	lsls	r3, r5, #27
 8005942:	f100 8088 	bmi.w	8005a56 <Vector14C+0x1d6>
  if (sts & GINTSTS_OEPINT) {
 8005946:	0329      	lsls	r1, r5, #12
  src = otgp->DAINT;
 8005948:	f8d6 4818 	ldr.w	r4, [r6, #2072]	; 0x818
  if (sts & GINTSTS_OEPINT) {
 800594c:	d50b      	bpl.n	8005966 <Vector14C+0xe6>
    if (src & (1 << 16))
 800594e:	03e2      	lsls	r2, r4, #15
 8005950:	f100 8194 	bmi.w	8005c7c <Vector14C+0x3fc>
    if (src & (1 << 17))
 8005954:	03a3      	lsls	r3, r4, #14
 8005956:	f100 8187 	bmi.w	8005c68 <Vector14C+0x3e8>
    if (src & (1 << 18))
 800595a:	0367      	lsls	r7, r4, #13
 800595c:	f100 818a 	bmi.w	8005c74 <Vector14C+0x3f4>
    if (src & (1 << 19))
 8005960:	0326      	lsls	r6, r4, #12
 8005962:	f100 8149 	bmi.w	8005bf8 <Vector14C+0x378>
  if (sts & GINTSTS_IEPINT) {
 8005966:	036d      	lsls	r5, r5, #13
 8005968:	d50b      	bpl.n	8005982 <Vector14C+0x102>
    if (src & (1 << 0))
 800596a:	07e0      	lsls	r0, r4, #31
 800596c:	f100 8192 	bmi.w	8005c94 <Vector14C+0x414>
    if (src & (1 << 1))
 8005970:	07a1      	lsls	r1, r4, #30
 8005972:	f100 818b 	bmi.w	8005c8c <Vector14C+0x40c>
    if (src & (1 << 2))
 8005976:	0762      	lsls	r2, r4, #29
 8005978:	f100 8184 	bmi.w	8005c84 <Vector14C+0x404>
    if (src & (1 << 3))
 800597c:	0723      	lsls	r3, r4, #28
 800597e:	f100 8142 	bmi.w	8005c06 <Vector14C+0x386>
}
 8005982:	e8bd 4ff8 	ldmia.w	sp!, {r3, r4, r5, r6, r7, r8, r9, sl, fp, lr}
  OSAL_IRQ_EPILOGUE();
 8005986:	f7fb bea3 	b.w	80016d0 <_port_irq_epilogue>
    _usb_isr_invoke_sof_cb(usbp);
 800598a:	6863      	ldr	r3, [r4, #4]
 800598c:	68db      	ldr	r3, [r3, #12]
 800598e:	2b00      	cmp	r3, #0
 8005990:	d0d1      	beq.n	8005936 <Vector14C+0xb6>
 8005992:	485c      	ldr	r0, [pc, #368]	; (8005b04 <Vector14C+0x284>)
 8005994:	4798      	blx	r3
  if (sts & GINTSTS_IISOIXFR) {
 8005996:	02ef      	lsls	r7, r5, #11
 8005998:	d5cf      	bpl.n	800593a <Vector14C+0xba>
  for (ep = 0; ep <= usbp->otgparams->num_endpoints; ep++) {
 800599a:	2100      	movs	r1, #0
  stm32_otg_t *otgp = usbp->otg;
 800599c:	f8d4 b054 	ldr.w	fp, [r4, #84]	; 0x54
      _usb_isr_invoke_in_cb(usbp, ep);
 80059a0:	f8df a160 	ldr.w	sl, [pc, #352]	; 8005b04 <Vector14C+0x284>
  for (ep = 0; ep <= usbp->otgparams->num_endpoints; ep++) {
 80059a4:	460f      	mov	r7, r1
      _usb_isr_invoke_in_cb(usbp, ep);
 80059a6:	f04f 0901 	mov.w	r9, #1
 80059aa:	e006      	b.n	80059ba <Vector14C+0x13a>
  for (ep = 0; ep <= usbp->otgparams->num_endpoints; ep++) {
 80059ac:	6da3      	ldr	r3, [r4, #88]	; 0x58
 80059ae:	3701      	adds	r7, #1
 80059b0:	689b      	ldr	r3, [r3, #8]
 80059b2:	b2ff      	uxtb	r7, r7
 80059b4:	429f      	cmp	r7, r3
 80059b6:	4639      	mov	r1, r7
 80059b8:	d8bf      	bhi.n	800593a <Vector14C+0xba>
 80059ba:	eb0b 1347 	add.w	r3, fp, r7, lsl #5
    if (((otgp->ie[ep].DIEPCTL & DIEPCTL_EPTYP_MASK) == DIEPCTL_EPTYP_ISO) &&
 80059be:	f8d3 2900 	ldr.w	r2, [r3, #2304]	; 0x900
 80059c2:	f402 2240 	and.w	r2, r2, #786432	; 0xc0000
 80059c6:	f5b2 2f80 	cmp.w	r2, #262144	; 0x40000
 80059ca:	d1ef      	bne.n	80059ac <Vector14C+0x12c>
        ((otgp->ie[ep].DIEPCTL & DIEPCTL_EPENA) != 0)) {
 80059cc:	f8d3 2900 	ldr.w	r2, [r3, #2304]	; 0x900
    if (((otgp->ie[ep].DIEPCTL & DIEPCTL_EPTYP_MASK) == DIEPCTL_EPTYP_ISO) &&
 80059d0:	2a00      	cmp	r2, #0
 80059d2:	daeb      	bge.n	80059ac <Vector14C+0x12c>
      otgp->ie[ep].DIEPCTL |= (DIEPCTL_EPDIS | DIEPCTL_SNAK);
 80059d4:	f8d3 2900 	ldr.w	r2, [r3, #2304]	; 0x900
 80059d8:	f042 4290 	orr.w	r2, r2, #1207959552	; 0x48000000
 80059dc:	f8c3 2900 	str.w	r2, [r3, #2304]	; 0x900
      while (otgp->ie[ep].DIEPCTL & DIEPCTL_EPENA)
 80059e0:	f8d3 2900 	ldr.w	r2, [r3, #2304]	; 0x900
 80059e4:	2a00      	cmp	r2, #0
 80059e6:	dbfb      	blt.n	80059e0 <Vector14C+0x160>
      otg_txfifo_flush(usbp, ep);
 80059e8:	6d62      	ldr	r2, [r4, #84]	; 0x54
  otgp->GRSTCTL = GRSTCTL_TXFNUM(fifo) | GRSTCTL_TXFFLSH;
 80059ea:	0189      	lsls	r1, r1, #6
 80059ec:	f041 0120 	orr.w	r1, r1, #32
 80059f0:	6111      	str	r1, [r2, #16]
  while ((otgp->GRSTCTL & GRSTCTL_TXFFLSH) != 0)
 80059f2:	6913      	ldr	r3, [r2, #16]
 80059f4:	0699      	lsls	r1, r3, #26
 80059f6:	d4fc      	bmi.n	80059f2 <Vector14C+0x172>
 80059f8:	2012      	movs	r0, #18
 80059fa:	f7fb ffc1 	bl	8001980 <chSysPolledDelayX>
      _usb_isr_invoke_in_cb(usbp, ep);
 80059fe:	eb04 0387 	add.w	r3, r4, r7, lsl #2
 8005a02:	8921      	ldrh	r1, [r4, #8]
 8005a04:	68da      	ldr	r2, [r3, #12]
 8005a06:	fa09 f307 	lsl.w	r3, r9, r7
 8005a0a:	6892      	ldr	r2, [r2, #8]
 8005a0c:	ea21 0303 	bic.w	r3, r1, r3
 8005a10:	8123      	strh	r3, [r4, #8]
 8005a12:	b112      	cbz	r2, 8005a1a <Vector14C+0x19a>
 8005a14:	4639      	mov	r1, r7
 8005a16:	4650      	mov	r0, sl
 8005a18:	4790      	blx	r2
      otg_txfifo_handler(usbp, ep);
 8005a1a:	4638      	mov	r0, r7
 8005a1c:	f7fb fd58 	bl	80014d0 <otg_txfifo_handler.constprop.0>
 8005a20:	e7c4      	b.n	80059ac <Vector14C+0x12c>
    if (otgp->PCGCCTL & (PCGCCTL_STPPCLK | PCGCCTL_GATEHCLK)) {
 8005a22:	f8d6 3e00 	ldr.w	r3, [r6, #3584]	; 0xe00
 8005a26:	0798      	lsls	r0, r3, #30
 8005a28:	f040 80df 	bne.w	8005bea <Vector14C+0x36a>
  usbp->state = usbp->saved_state;
 8005a2c:	f894 3050 	ldrb.w	r3, [r4, #80]	; 0x50
  _usb_isr_invoke_event_cb(usbp, USB_EVENT_WAKEUP);
 8005a30:	6862      	ldr	r2, [r4, #4]
  usbp->state = usbp->saved_state;
 8005a32:	7023      	strb	r3, [r4, #0]
    otgp->DCTL &= ~DCTL_RWUSIG;
 8005a34:	f8d6 3804 	ldr.w	r3, [r6, #2052]	; 0x804
  _usb_isr_invoke_event_cb(usbp, USB_EVENT_WAKEUP);
 8005a38:	6812      	ldr	r2, [r2, #0]
 8005a3a:	f023 0301 	bic.w	r3, r3, #1
 8005a3e:	f8c6 3804 	str.w	r3, [r6, #2052]	; 0x804
 8005a42:	2a00      	cmp	r2, #0
 8005a44:	f43f af2b 	beq.w	800589e <Vector14C+0x1e>
 8005a48:	2105      	movs	r1, #5
 8005a4a:	482e      	ldr	r0, [pc, #184]	; (8005b04 <Vector14C+0x284>)
 8005a4c:	4790      	blx	r2
  if (sts & GINTSTS_USBSUSP) {
 8005a4e:	0529      	lsls	r1, r5, #20
 8005a50:	f57f af60 	bpl.w	8005914 <Vector14C+0x94>
 8005a54:	e725      	b.n	80058a2 <Vector14C+0x22>
  sts = usbp->otg->GRXSTSP;
 8005a56:	6d61      	ldr	r1, [r4, #84]	; 0x54
 8005a58:	6a0b      	ldr	r3, [r1, #32]
  switch (sts & GRXSTSP_PKTSTS_MASK) {
 8005a5a:	f403 10f0 	and.w	r0, r3, #1966080	; 0x1e0000
 8005a5e:	f5b0 2f80 	cmp.w	r0, #262144	; 0x40000
  cnt = (sts & GRXSTSP_BCNT_MASK) >> GRXSTSP_BCNT_OFF;
 8005a62:	f3c3 120a 	ubfx	r2, r3, #4, #11
  ep  = (sts & GRXSTSP_EPNUM_MASK) >> GRXSTSP_EPNUM_OFF;
 8005a66:	f003 030f 	and.w	r3, r3, #15
  switch (sts & GRXSTSP_PKTSTS_MASK) {
 8005a6a:	f000 80d3 	beq.w	8005c14 <Vector14C+0x394>
 8005a6e:	f5b0 2f40 	cmp.w	r0, #786432	; 0xc0000
 8005a72:	f47f af68 	bne.w	8005946 <Vector14C+0xc6>
    otg_fifo_read_to_buffer(usbp->otg->FIFO[0], usbp->epc[ep]->setup_buf,
 8005a76:	eb04 0383 	add.w	r3, r4, r3, lsl #2
 8005a7a:	68db      	ldr	r3, [r3, #12]
 8005a7c:	6a18      	ldr	r0, [r3, #32]
  while (i < n) {
 8005a7e:	2a00      	cmp	r2, #0
 8005a80:	f43f af61 	beq.w	8005946 <Vector14C+0xc6>
      w = *fifop;
 8005a84:	f501 5480 	add.w	r4, r1, #4096	; 0x1000
  size_t i = 0;
 8005a88:	2300      	movs	r3, #0
    if ((i & 3) == 0) {
 8005a8a:	079f      	lsls	r7, r3, #30
      w = *fifop;
 8005a8c:	bf08      	it	eq
 8005a8e:	f8d4 8000 	ldreq.w	r8, [r4]
    if (i < max) {
 8005a92:	2b07      	cmp	r3, #7
      *buf++ = (uint8_t)w;
 8005a94:	4601      	mov	r1, r0
    i++;
 8005a96:	f103 0301 	add.w	r3, r3, #1
    if (i < max) {
 8005a9a:	d804      	bhi.n	8005aa6 <Vector14C+0x226>
      *buf++ = (uint8_t)w;
 8005a9c:	f801 8b01 	strb.w	r8, [r1], #1
      w >>= 8;
 8005aa0:	ea4f 2818 	mov.w	r8, r8, lsr #8
      *buf++ = (uint8_t)w;
 8005aa4:	4608      	mov	r0, r1
  while (i < n) {
 8005aa6:	429a      	cmp	r2, r3
 8005aa8:	d1ef      	bne.n	8005a8a <Vector14C+0x20a>
 8005aaa:	e74c      	b.n	8005946 <Vector14C+0xc6>
  stm32_otg_t *otgp = usbp->otg;
 8005aac:	f8d4 9054 	ldr.w	r9, [r4, #84]	; 0x54
      _usb_isr_invoke_out_cb(usbp, ep);
 8005ab0:	f8df b050 	ldr.w	fp, [pc, #80]	; 8005b04 <Vector14C+0x284>
  for (ep = 0; ep <= usbp->otgparams->num_endpoints; ep++) {
 8005ab4:	2700      	movs	r7, #0
      _usb_isr_invoke_out_cb(usbp, ep);
 8005ab6:	f04f 0a01 	mov.w	sl, #1
 8005aba:	e006      	b.n	8005aca <Vector14C+0x24a>
  for (ep = 0; ep <= usbp->otgparams->num_endpoints; ep++) {
 8005abc:	6da3      	ldr	r3, [r4, #88]	; 0x58
 8005abe:	3701      	adds	r7, #1
 8005ac0:	689b      	ldr	r3, [r3, #8]
 8005ac2:	b2ff      	uxtb	r7, r7
 8005ac4:	429f      	cmp	r7, r3
 8005ac6:	f63f af3b 	bhi.w	8005940 <Vector14C+0xc0>
 8005aca:	eb09 1247 	add.w	r2, r9, r7, lsl #5
    if (((otgp->oe[ep].DOEPCTL & DOEPCTL_EPTYP_MASK) == DOEPCTL_EPTYP_ISO) &&
 8005ace:	f8d2 3b00 	ldr.w	r3, [r2, #2816]	; 0xb00
 8005ad2:	f403 2340 	and.w	r3, r3, #786432	; 0xc0000
 8005ad6:	f5b3 2f80 	cmp.w	r3, #262144	; 0x40000
 8005ada:	d1ef      	bne.n	8005abc <Vector14C+0x23c>
        ((otgp->oe[ep].DOEPCTL & DOEPCTL_EPENA) != 0)) {
 8005adc:	f8d2 3b00 	ldr.w	r3, [r2, #2816]	; 0xb00
    if (((otgp->oe[ep].DOEPCTL & DOEPCTL_EPTYP_MASK) == DOEPCTL_EPTYP_ISO) &&
 8005ae0:	2b00      	cmp	r3, #0
      _usb_isr_invoke_out_cb(usbp, ep);
 8005ae2:	eb04 0087 	add.w	r0, r4, r7, lsl #2
 8005ae6:	fa0a f107 	lsl.w	r1, sl, r7
    if (((otgp->oe[ep].DOEPCTL & DOEPCTL_EPTYP_MASK) == DOEPCTL_EPTYP_ISO) &&
 8005aea:	dae7      	bge.n	8005abc <Vector14C+0x23c>
      _usb_isr_invoke_out_cb(usbp, ep);
 8005aec:	68c2      	ldr	r2, [r0, #12]
 8005aee:	8963      	ldrh	r3, [r4, #10]
 8005af0:	68d2      	ldr	r2, [r2, #12]
 8005af2:	ea23 0301 	bic.w	r3, r3, r1
 8005af6:	4658      	mov	r0, fp
 8005af8:	4639      	mov	r1, r7
 8005afa:	8163      	strh	r3, [r4, #10]
 8005afc:	2a00      	cmp	r2, #0
 8005afe:	d0dd      	beq.n	8005abc <Vector14C+0x23c>
 8005b00:	4790      	blx	r2
 8005b02:	e7db      	b.n	8005abc <Vector14C+0x23c>
 8005b04:	2000183c 	.word	0x2000183c
  usbp->status        = 0;
 8005b08:	2300      	movs	r3, #0
  usbp->state         = USB_READY;
 8005b0a:	2102      	movs	r1, #2
  otgp->GRSTCTL = GRSTCTL_TXFNUM(fifo) | GRSTCTL_TXFFLSH;
 8005b0c:	2220      	movs	r2, #32
    usbp->epc[i] = NULL;
 8005b0e:	e9c4 3303 	strd	r3, r3, [r4, #12]
 8005b12:	e9c4 3305 	strd	r3, r3, [r4, #20]
  usbp->status        = 0;
 8005b16:	64e3      	str	r3, [r4, #76]	; 0x4c
  usbp->ep0state = USB_EP0_STP_WAITING;
 8005b18:	f884 3034 	strb.w	r3, [r4, #52]	; 0x34
  usbp->transmitting  = 0;
 8005b1c:	60a3      	str	r3, [r4, #8]
  usbp->state         = USB_READY;
 8005b1e:	7021      	strb	r1, [r4, #0]
 8005b20:	6132      	str	r2, [r6, #16]
  while ((otgp->GRSTCTL & GRSTCTL_TXFFLSH) != 0)
 8005b22:	6935      	ldr	r5, [r6, #16]
 8005b24:	f015 0520 	ands.w	r5, r5, #32
 8005b28:	d1fb      	bne.n	8005b22 <Vector14C+0x2a2>
 8005b2a:	2012      	movs	r0, #18
 8005b2c:	f7fb ff28 	bl	8001980 <chSysPolledDelayX>
  for (i = 0; i <= usbp->otgparams->num_endpoints; i++) {
 8005b30:	f8d4 c058 	ldr.w	ip, [r4, #88]	; 0x58
  otgp->DIEPEMPMSK = 0;
 8005b34:	f8c6 5834 	str.w	r5, [r6, #2100]	; 0x834
  otgp->DAINTMSK   = DAINTMSK_OEPM(0) | DAINTMSK_IEPM(0);
 8005b38:	f04f 1301 	mov.w	r3, #65537	; 0x10001
  for (i = 0; i <= usbp->otgparams->num_endpoints; i++) {
 8005b3c:	f8dc 7008 	ldr.w	r7, [ip, #8]
  otgp->DAINTMSK   = DAINTMSK_OEPM(0) | DAINTMSK_IEPM(0);
 8005b40:	f8c6 381c 	str.w	r3, [r6, #2076]	; 0x81c
    otgp->ie[i].DIEPCTL = DIEPCTL_SNAK;
 8005b44:	f04f 6000 	mov.w	r0, #134217728	; 0x8000000
    otgp->ie[i].DIEPINT = 0xFFFFFFFF;
 8005b48:	f04f 31ff 	mov.w	r1, #4294967295	; 0xffffffff
 8005b4c:	eb06 1345 	add.w	r3, r6, r5, lsl #5
  for (i = 0; i <= usbp->otgparams->num_endpoints; i++) {
 8005b50:	42af      	cmp	r7, r5
    otgp->ie[i].DIEPCTL = DIEPCTL_SNAK;
 8005b52:	f8c3 0900 	str.w	r0, [r3, #2304]	; 0x900
  for (i = 0; i <= usbp->otgparams->num_endpoints; i++) {
 8005b56:	f105 0501 	add.w	r5, r5, #1
    otgp->oe[i].DOEPCTL = DOEPCTL_SNAK;
 8005b5a:	f8c3 0b00 	str.w	r0, [r3, #2816]	; 0xb00
    otgp->ie[i].DIEPINT = 0xFFFFFFFF;
 8005b5e:	f8c3 1908 	str.w	r1, [r3, #2312]	; 0x908
    otgp->oe[i].DOEPINT = 0xFFFFFFFF;
 8005b62:	f8c3 1b08 	str.w	r1, [r3, #2824]	; 0xb08
  for (i = 0; i <= usbp->otgparams->num_endpoints; i++) {
 8005b66:	d1f1      	bne.n	8005b4c <Vector14C+0x2cc>
  usbp->pmnext = usbp->otgparams->rx_fifo_size;
 8005b68:	f8dc 3000 	ldr.w	r3, [ip]
 8005b6c:	65e3      	str	r3, [r4, #92]	; 0x5c
  otgp->GRXFSIZ = usbp->otgparams->rx_fifo_size;
 8005b6e:	f8dc 2000 	ldr.w	r2, [ip]
  otg_rxfifo_flush(usbp);
 8005b72:	6d63      	ldr	r3, [r4, #84]	; 0x54
  otgp->GRXFSIZ = usbp->otgparams->rx_fifo_size;
 8005b74:	6272      	str	r2, [r6, #36]	; 0x24
  otgp->GRSTCTL = GRSTCTL_RXFFLSH;
 8005b76:	2210      	movs	r2, #16
 8005b78:	611a      	str	r2, [r3, #16]
  while ((otgp->GRSTCTL & GRSTCTL_RXFFLSH) != 0)
 8005b7a:	691d      	ldr	r5, [r3, #16]
 8005b7c:	f015 0510 	ands.w	r5, r5, #16
 8005b80:	d1fb      	bne.n	8005b7a <Vector14C+0x2fa>
 8005b82:	2012      	movs	r0, #18
 8005b84:	f7fb fefc 	bl	8001980 <chSysPolledDelayX>
  otgp->DCFG = (otgp->DCFG & ~DCFG_DAD_MASK) | DCFG_DAD(0);
 8005b88:	f8d6 3800 	ldr.w	r3, [r6, #2048]	; 0x800
  _usb_isr_invoke_event_cb(usbp, USB_EVENT_RESET);
 8005b8c:	6861      	ldr	r1, [r4, #4]
  next = usbp->pmnext;
 8005b8e:	6de2      	ldr	r2, [r4, #92]	; 0x5c
 8005b90:	680f      	ldr	r7, [r1, #0]
  otgp->DCFG = (otgp->DCFG & ~DCFG_DAD_MASK) | DCFG_DAD(0);
 8005b92:	f423 63fe 	bic.w	r3, r3, #2032	; 0x7f0
 8005b96:	f8c6 3800 	str.w	r3, [r6, #2048]	; 0x800
  otgp->GINTMSK  |= GINTMSK_RXFLVLM | GINTMSK_OEPM  | GINTMSK_IEPM;
 8005b9a:	69b3      	ldr	r3, [r6, #24]
 8005b9c:	f443 2340 	orr.w	r3, r3, #786432	; 0xc0000
 8005ba0:	f043 0310 	orr.w	r3, r3, #16
 8005ba4:	61b3      	str	r3, [r6, #24]
  otgp->DIEPMSK   = DIEPMSK_TOCM    | DIEPMSK_XFRCM;
 8005ba6:	2309      	movs	r3, #9
 8005ba8:	f8c6 3810 	str.w	r3, [r6, #2064]	; 0x810
  otgp->DOEPMSK   = DOEPMSK_STUPM   | DOEPMSK_XFRCM;
 8005bac:	f8c6 3814 	str.w	r3, [r6, #2068]	; 0x814
  otgp->oe[0].DOEPTSIZ = DOEPTSIZ_STUPCNT(3);
 8005bb0:	f04f 43c0 	mov.w	r3, #1610612736	; 0x60000000
 8005bb4:	f8c6 3b10 	str.w	r3, [r6, #2832]	; 0xb10
  otgp->oe[0].DOEPCTL = DOEPCTL_SD0PID | DOEPCTL_USBAEP | DOEPCTL_EPTYP_CTRL |
 8005bb8:	4b38      	ldr	r3, [pc, #224]	; (8005c9c <Vector14C+0x41c>)
 8005bba:	f8c6 3b00 	str.w	r3, [r6, #2816]	; 0xb00
  otgp->ie[0].DIEPTSIZ = 0;
 8005bbe:	f8c6 5910 	str.w	r5, [r6, #2320]	; 0x910
  otgp->ie[0].DIEPCTL = DIEPCTL_SD0PID | DIEPCTL_USBAEP | DIEPCTL_EPTYP_CTRL |
 8005bc2:	f8c6 3900 	str.w	r3, [r6, #2304]	; 0x900
  usbp->pmnext += size;
 8005bc6:	f102 0310 	add.w	r3, r2, #16
 8005bca:	65e3      	str	r3, [r4, #92]	; 0x5c
  otgp->DIEPTXF0 = DIEPTXF_INEPTXFD(ep0config.in_maxsize / 4) |
 8005bcc:	f442 1280 	orr.w	r2, r2, #1048576	; 0x100000
  usbp->epc[0] = &ep0config;
 8005bd0:	4b33      	ldr	r3, [pc, #204]	; (8005ca0 <Vector14C+0x420>)
  otgp->DIEPTXF0 = DIEPTXF_INEPTXFD(ep0config.in_maxsize / 4) |
 8005bd2:	62b2      	str	r2, [r6, #40]	; 0x28
  usbp->epc[0] = &ep0config;
 8005bd4:	60e3      	str	r3, [r4, #12]
 8005bd6:	2f00      	cmp	r7, #0
 8005bd8:	f43f aed3 	beq.w	8005982 <Vector14C+0x102>
 8005bdc:	4629      	mov	r1, r5
 8005bde:	4831      	ldr	r0, [pc, #196]	; (8005ca4 <Vector14C+0x424>)
 8005be0:	47b8      	blx	r7
}
 8005be2:	e8bd 4ff8 	ldmia.w	sp!, {r3, r4, r5, r6, r7, r8, r9, sl, fp, lr}
  OSAL_IRQ_EPILOGUE();
 8005be6:	f7fb bd73 	b.w	80016d0 <_port_irq_epilogue>
      otgp->PCGCCTL &= ~(PCGCCTL_STPPCLK | PCGCCTL_GATEHCLK);
 8005bea:	f8d6 3e00 	ldr.w	r3, [r6, #3584]	; 0xe00
 8005bee:	f023 0303 	bic.w	r3, r3, #3
 8005bf2:	f8c6 3e00 	str.w	r3, [r6, #3584]	; 0xe00
 8005bf6:	e719      	b.n	8005a2c <Vector14C+0x1ac>
      otg_epout_handler(usbp, 3);
 8005bf8:	2003      	movs	r0, #3
 8005bfa:	f7fc f8c1 	bl	8001d80 <otg_epout_handler.constprop.0>
  if (sts & GINTSTS_IEPINT) {
 8005bfe:	036d      	lsls	r5, r5, #13
 8005c00:	f57f aebf 	bpl.w	8005982 <Vector14C+0x102>
 8005c04:	e6b1      	b.n	800596a <Vector14C+0xea>
      otg_epin_handler(usbp, 3);
 8005c06:	2003      	movs	r0, #3
 8005c08:	f7fc f832 	bl	8001c70 <otg_epin_handler.constprop.0>
}
 8005c0c:	e8bd 4ff8 	ldmia.w	sp!, {r3, r4, r5, r6, r7, r8, r9, sl, fp, lr}
  OSAL_IRQ_EPILOGUE();
 8005c10:	f7fb bd5e 	b.w	80016d0 <_port_irq_epilogue>
                            usbp->epc[ep]->out_state->rxbuf,
 8005c14:	f103 0a02 	add.w	sl, r3, #2
 8005c18:	eb04 038a 	add.w	r3, r4, sl, lsl #2
 8005c1c:	685b      	ldr	r3, [r3, #4]
 8005c1e:	699b      	ldr	r3, [r3, #24]
    otg_fifo_read_to_buffer(usbp->otg->FIFO[0],
 8005c20:	e9d3 9701 	ldrd	r9, r7, [r3, #4]
 8005c24:	6818      	ldr	r0, [r3, #0]
 8005c26:	eba0 0e09 	sub.w	lr, r0, r9
  while (i < n) {
 8005c2a:	b1c2      	cbz	r2, 8005c5e <Vector14C+0x3de>
      w = *fifop;
 8005c2c:	f501 5c80 	add.w	ip, r1, #4096	; 0x1000
  size_t i = 0;
 8005c30:	2300      	movs	r3, #0
    if ((i & 3) == 0) {
 8005c32:	0798      	lsls	r0, r3, #30
      w = *fifop;
 8005c34:	bf08      	it	eq
 8005c36:	f8dc 8000 	ldreq.w	r8, [ip]
    if (i < max) {
 8005c3a:	459e      	cmp	lr, r3
      *buf++ = (uint8_t)w;
 8005c3c:	4639      	mov	r1, r7
    i++;
 8005c3e:	f103 0301 	add.w	r3, r3, #1
    if (i < max) {
 8005c42:	d904      	bls.n	8005c4e <Vector14C+0x3ce>
      *buf++ = (uint8_t)w;
 8005c44:	f801 8b01 	strb.w	r8, [r1], #1
      w >>= 8;
 8005c48:	ea4f 2818 	mov.w	r8, r8, lsr #8
      *buf++ = (uint8_t)w;
 8005c4c:	460f      	mov	r7, r1
  while (i < n) {
 8005c4e:	429a      	cmp	r2, r3
 8005c50:	d1ef      	bne.n	8005c32 <Vector14C+0x3b2>
 8005c52:	eb04 048a 	add.w	r4, r4, sl, lsl #2
 8005c56:	6863      	ldr	r3, [r4, #4]
 8005c58:	699b      	ldr	r3, [r3, #24]
 8005c5a:	e9d3 9701 	ldrd	r9, r7, [r3, #4]
    usbp->epc[ep]->out_state->rxbuf += cnt;
 8005c5e:	4417      	add	r7, r2
    usbp->epc[ep]->out_state->rxcnt += cnt;
 8005c60:	444a      	add	r2, r9
 8005c62:	e9c3 2701 	strd	r2, r7, [r3, #4]
 8005c66:	e66e      	b.n	8005946 <Vector14C+0xc6>
      otg_epout_handler(usbp, 1);
 8005c68:	2001      	movs	r0, #1
 8005c6a:	f7fc f889 	bl	8001d80 <otg_epout_handler.constprop.0>
    if (src & (1 << 18))
 8005c6e:	0367      	lsls	r7, r4, #13
 8005c70:	f57f ae76 	bpl.w	8005960 <Vector14C+0xe0>
      otg_epout_handler(usbp, 2);
 8005c74:	2002      	movs	r0, #2
 8005c76:	f7fc f883 	bl	8001d80 <otg_epout_handler.constprop.0>
 8005c7a:	e671      	b.n	8005960 <Vector14C+0xe0>
      otg_epout_handler(usbp, 0);
 8005c7c:	2000      	movs	r0, #0
 8005c7e:	f7fc f87f 	bl	8001d80 <otg_epout_handler.constprop.0>
 8005c82:	e667      	b.n	8005954 <Vector14C+0xd4>
      otg_epin_handler(usbp, 2);
 8005c84:	2002      	movs	r0, #2
 8005c86:	f7fb fff3 	bl	8001c70 <otg_epin_handler.constprop.0>
 8005c8a:	e677      	b.n	800597c <Vector14C+0xfc>
      otg_epin_handler(usbp, 1);
 8005c8c:	2001      	movs	r0, #1
 8005c8e:	f7fb ffef 	bl	8001c70 <otg_epin_handler.constprop.0>
 8005c92:	e670      	b.n	8005976 <Vector14C+0xf6>
      otg_epin_handler(usbp, 0);
 8005c94:	2000      	movs	r0, #0
 8005c96:	f7fb ffeb 	bl	8001c70 <otg_epin_handler.constprop.0>
 8005c9a:	e669      	b.n	8005970 <Vector14C+0xf0>
 8005c9c:	10008040 	.word	0x10008040
 8005ca0:	08006a20 	.word	0x08006a20
 8005ca4:	2000183c 	.word	0x2000183c
	...

08005cb0 <__init_ram_areas>:
}

/**
 * @brief   Performs the initialization of the various RAM areas.
 */
void __init_ram_areas(void) {
 8005cb0:	b4f0      	push	{r4, r5, r6, r7}
 8005cb2:	4f14      	ldr	r7, [pc, #80]	; (8005d04 <__init_ram_areas+0x54>)
 8005cb4:	4d14      	ldr	r5, [pc, #80]	; (8005d08 <__init_ram_areas+0x58>)
 8005cb6:	4815      	ldr	r0, [pc, #84]	; (8005d0c <__init_ram_areas+0x5c>)
 8005cb8:	4b15      	ldr	r3, [pc, #84]	; (8005d10 <__init_ram_areas+0x60>)
 8005cba:	4916      	ldr	r1, [pc, #88]	; (8005d14 <__init_ram_areas+0x64>)
 8005cbc:	f107 0c70 	add.w	ip, r7, #112	; 0x70
      tp++;
    }

    /* Zeroing clear area.*/
    while (p < rap->no_init_area) {
      *p = 0;
 8005cc0:	2600      	movs	r6, #0
    while (p < rap->clear_area) {
 8005cc2:	4298      	cmp	r0, r3
 8005cc4:	d911      	bls.n	8005cea <__init_ram_areas+0x3a>
 8005cc6:	3904      	subs	r1, #4
 8005cc8:	461a      	mov	r2, r3
      *p = *tp;
 8005cca:	f851 4f04 	ldr.w	r4, [r1, #4]!
 8005cce:	f842 4b04 	str.w	r4, [r2], #4
    while (p < rap->clear_area) {
 8005cd2:	4290      	cmp	r0, r2
 8005cd4:	d8f9      	bhi.n	8005cca <__init_ram_areas+0x1a>
 8005cd6:	1e42      	subs	r2, r0, #1
 8005cd8:	1ad2      	subs	r2, r2, r3
 8005cda:	f022 0203 	bic.w	r2, r2, #3
 8005cde:	3204      	adds	r2, #4
 8005ce0:	4413      	add	r3, r2
    while (p < rap->no_init_area) {
 8005ce2:	429d      	cmp	r5, r3
 8005ce4:	d903      	bls.n	8005cee <__init_ram_areas+0x3e>
      *p = 0;
 8005ce6:	f843 6b04 	str.w	r6, [r3], #4
    while (p < rap->no_init_area) {
 8005cea:	429d      	cmp	r5, r3
 8005cec:	d8fb      	bhi.n	8005ce6 <__init_ram_areas+0x36>
      p++;
    }
    rap++;
  }
  while (rap < &ram_areas[CRT1_AREAS_NUMBER]);
 8005cee:	4567      	cmp	r7, ip
 8005cf0:	d005      	beq.n	8005cfe <__init_ram_areas+0x4e>
 8005cf2:	e9d7 1304 	ldrd	r1, r3, [r7, #16]
 8005cf6:	e9d7 0506 	ldrd	r0, r5, [r7, #24]
 8005cfa:	3710      	adds	r7, #16
 8005cfc:	e7e1      	b.n	8005cc2 <__init_ram_areas+0x12>
#endif
}
 8005cfe:	bcf0      	pop	{r4, r5, r6, r7}
 8005d00:	4770      	bx	lr
 8005d02:	bf00      	nop
 8005d04:	08006ab4 	.word	0x08006ab4
 8005d08:	200044e8 	.word	0x200044e8
 8005d0c:	200044e8 	.word	0x200044e8
 8005d10:	200044e8 	.word	0x200044e8
 8005d14:	08007224 	.word	0x08007224
	...

08005d20 <__default_exit>:
  while (true) {
 8005d20:	e7fe      	b.n	8005d20 <__default_exit>
 8005d22:	bf00      	nop
	...

08005d30 <__late_init>:
 8005d30:	4770      	bx	lr
 8005d32:	bf00      	nop
	...

08005d40 <__core_init>:
}
 8005d40:	4770      	bx	lr
 8005d42:	bf00      	nop

08005d44 <_strtol_l.isra.0>:
 8005d44:	e92d 4ff0 	stmdb	sp!, {r4, r5, r6, r7, r8, r9, sl, fp, lr}
 8005d48:	4f40      	ldr	r7, [pc, #256]	; (8005e4c <_strtol_l.isra.0+0x108>)
 8005d4a:	4681      	mov	r9, r0
 8005d4c:	460d      	mov	r5, r1
 8005d4e:	4628      	mov	r0, r5
 8005d50:	f815 4b01 	ldrb.w	r4, [r5], #1
 8005d54:	5d3e      	ldrb	r6, [r7, r4]
 8005d56:	f016 0608 	ands.w	r6, r6, #8
 8005d5a:	d1f8      	bne.n	8005d4e <_strtol_l.isra.0+0xa>
 8005d5c:	2c2d      	cmp	r4, #45	; 0x2d
 8005d5e:	d04f      	beq.n	8005e00 <_strtol_l.isra.0+0xbc>
 8005d60:	2c2b      	cmp	r4, #43	; 0x2b
 8005d62:	bf0a      	itet	eq
 8005d64:	f895 b000 	ldrbeq.w	fp, [r5]
 8005d68:	46a3      	movne	fp, r4
 8005d6a:	1c85      	addeq	r5, r0, #2
 8005d6c:	f06f 4800 	mvn.w	r8, #2147483648	; 0x80000000
 8005d70:	b11b      	cbz	r3, 8005d7a <_strtol_l.isra.0+0x36>
 8005d72:	2b10      	cmp	r3, #16
 8005d74:	d04b      	beq.n	8005e0e <_strtol_l.isra.0+0xca>
 8005d76:	469e      	mov	lr, r3
 8005d78:	e004      	b.n	8005d84 <_strtol_l.isra.0+0x40>
 8005d7a:	f1bb 0f30 	cmp.w	fp, #48	; 0x30
 8005d7e:	d050      	beq.n	8005e22 <_strtol_l.isra.0+0xde>
 8005d80:	230a      	movs	r3, #10
 8005d82:	469e      	mov	lr, r3
 8005d84:	2700      	movs	r7, #0
 8005d86:	fbb8 fcfe 	udiv	ip, r8, lr
 8005d8a:	4638      	mov	r0, r7
 8005d8c:	fb0e 8a1c 	mls	sl, lr, ip, r8
 8005d90:	e005      	b.n	8005d9e <_strtol_l.isra.0+0x5a>
 8005d92:	d029      	beq.n	8005de8 <_strtol_l.isra.0+0xa4>
 8005d94:	fb0e 4000 	mla	r0, lr, r0, r4
 8005d98:	2701      	movs	r7, #1
 8005d9a:	f815 bb01 	ldrb.w	fp, [r5], #1
 8005d9e:	f1ab 0430 	sub.w	r4, fp, #48	; 0x30
 8005da2:	2c09      	cmp	r4, #9
 8005da4:	d905      	bls.n	8005db2 <_strtol_l.isra.0+0x6e>
 8005da6:	f1ab 0441 	sub.w	r4, fp, #65	; 0x41
 8005daa:	2c19      	cmp	r4, #25
 8005dac:	d80b      	bhi.n	8005dc6 <_strtol_l.isra.0+0x82>
 8005dae:	f1ab 0437 	sub.w	r4, fp, #55	; 0x37
 8005db2:	42a3      	cmp	r3, r4
 8005db4:	dd0f      	ble.n	8005dd6 <_strtol_l.isra.0+0x92>
 8005db6:	f1b7 3fff 	cmp.w	r7, #4294967295	; 0xffffffff
 8005dba:	d0ee      	beq.n	8005d9a <_strtol_l.isra.0+0x56>
 8005dbc:	4584      	cmp	ip, r0
 8005dbe:	d2e8      	bcs.n	8005d92 <_strtol_l.isra.0+0x4e>
 8005dc0:	f04f 37ff 	mov.w	r7, #4294967295	; 0xffffffff
 8005dc4:	e7e9      	b.n	8005d9a <_strtol_l.isra.0+0x56>
 8005dc6:	f1ab 0461 	sub.w	r4, fp, #97	; 0x61
 8005dca:	2c19      	cmp	r4, #25
 8005dcc:	d803      	bhi.n	8005dd6 <_strtol_l.isra.0+0x92>
 8005dce:	f1ab 0457 	sub.w	r4, fp, #87	; 0x57
 8005dd2:	42a3      	cmp	r3, r4
 8005dd4:	dcef      	bgt.n	8005db6 <_strtol_l.isra.0+0x72>
 8005dd6:	1c7b      	adds	r3, r7, #1
 8005dd8:	d00b      	beq.n	8005df2 <_strtol_l.isra.0+0xae>
 8005dda:	b106      	cbz	r6, 8005dde <_strtol_l.isra.0+0x9a>
 8005ddc:	4240      	negs	r0, r0
 8005dde:	b10a      	cbz	r2, 8005de4 <_strtol_l.isra.0+0xa0>
 8005de0:	bb77      	cbnz	r7, 8005e40 <_strtol_l.isra.0+0xfc>
 8005de2:	6011      	str	r1, [r2, #0]
 8005de4:	e8bd 8ff0 	ldmia.w	sp!, {r4, r5, r6, r7, r8, r9, sl, fp, pc}
 8005de8:	45a2      	cmp	sl, r4
 8005dea:	dad3      	bge.n	8005d94 <_strtol_l.isra.0+0x50>
 8005dec:	f04f 37ff 	mov.w	r7, #4294967295	; 0xffffffff
 8005df0:	e7d3      	b.n	8005d9a <_strtol_l.isra.0+0x56>
 8005df2:	2322      	movs	r3, #34	; 0x22
 8005df4:	f8c9 3000 	str.w	r3, [r9]
 8005df8:	b1fa      	cbz	r2, 8005e3a <_strtol_l.isra.0+0xf6>
 8005dfa:	1e69      	subs	r1, r5, #1
 8005dfc:	4640      	mov	r0, r8
 8005dfe:	e7f0      	b.n	8005de2 <_strtol_l.isra.0+0x9e>
 8005e00:	f895 b000 	ldrb.w	fp, [r5]
 8005e04:	f04f 4800 	mov.w	r8, #2147483648	; 0x80000000
 8005e08:	1c85      	adds	r5, r0, #2
 8005e0a:	2601      	movs	r6, #1
 8005e0c:	e7b0      	b.n	8005d70 <_strtol_l.isra.0+0x2c>
 8005e0e:	f1bb 0f30 	cmp.w	fp, #48	; 0x30
 8005e12:	d1b0      	bne.n	8005d76 <_strtol_l.isra.0+0x32>
 8005e14:	7828      	ldrb	r0, [r5, #0]
 8005e16:	f000 00df 	and.w	r0, r0, #223	; 0xdf
 8005e1a:	2858      	cmp	r0, #88	; 0x58
 8005e1c:	d006      	beq.n	8005e2c <_strtol_l.isra.0+0xe8>
 8005e1e:	469e      	mov	lr, r3
 8005e20:	e7b0      	b.n	8005d84 <_strtol_l.isra.0+0x40>
 8005e22:	782b      	ldrb	r3, [r5, #0]
 8005e24:	f003 03df 	and.w	r3, r3, #223	; 0xdf
 8005e28:	2b58      	cmp	r3, #88	; 0x58
 8005e2a:	d10b      	bne.n	8005e44 <_strtol_l.isra.0+0x100>
 8005e2c:	f04f 0e10 	mov.w	lr, #16
 8005e30:	f895 b001 	ldrb.w	fp, [r5, #1]
 8005e34:	4673      	mov	r3, lr
 8005e36:	3502      	adds	r5, #2
 8005e38:	e7a4      	b.n	8005d84 <_strtol_l.isra.0+0x40>
 8005e3a:	4640      	mov	r0, r8
 8005e3c:	e8bd 8ff0 	ldmia.w	sp!, {r4, r5, r6, r7, r8, r9, sl, fp, pc}
 8005e40:	4680      	mov	r8, r0
 8005e42:	e7da      	b.n	8005dfa <_strtol_l.isra.0+0xb6>
 8005e44:	2308      	movs	r3, #8
 8005e46:	469e      	mov	lr, r3
 8005e48:	e79c      	b.n	8005d84 <_strtol_l.isra.0+0x40>
 8005e4a:	bf00      	nop
 8005e4c:	08006cb1 	.word	0x08006cb1

08005e50 <strtol>:
 8005e50:	b430      	push	{r4, r5}
 8005e52:	4c04      	ldr	r4, [pc, #16]	; (8005e64 <strtol+0x14>)
 8005e54:	460d      	mov	r5, r1
 8005e56:	4613      	mov	r3, r2
 8005e58:	4601      	mov	r1, r0
 8005e5a:	462a      	mov	r2, r5
 8005e5c:	6820      	ldr	r0, [r4, #0]
 8005e5e:	bc30      	pop	{r4, r5}
 8005e60:	f7ff bf70 	b.w	8005d44 <_strtol_l.isra.0>
 8005e64:	2000083c 	.word	0x2000083c

08005e68 <memset>:
 8005e68:	b4f0      	push	{r4, r5, r6, r7}
 8005e6a:	0786      	lsls	r6, r0, #30
 8005e6c:	d046      	beq.n	8005efc <memset+0x94>
 8005e6e:	1e54      	subs	r4, r2, #1
 8005e70:	2a00      	cmp	r2, #0
 8005e72:	d03c      	beq.n	8005eee <memset+0x86>
 8005e74:	b2ca      	uxtb	r2, r1
 8005e76:	4603      	mov	r3, r0
 8005e78:	e001      	b.n	8005e7e <memset+0x16>
 8005e7a:	3c01      	subs	r4, #1
 8005e7c:	d337      	bcc.n	8005eee <memset+0x86>
 8005e7e:	f803 2b01 	strb.w	r2, [r3], #1
 8005e82:	079d      	lsls	r5, r3, #30
 8005e84:	d1f9      	bne.n	8005e7a <memset+0x12>
 8005e86:	2c03      	cmp	r4, #3
 8005e88:	d92a      	bls.n	8005ee0 <memset+0x78>
 8005e8a:	b2cd      	uxtb	r5, r1
 8005e8c:	ea45 2505 	orr.w	r5, r5, r5, lsl #8
 8005e90:	2c0f      	cmp	r4, #15
 8005e92:	ea45 4505 	orr.w	r5, r5, r5, lsl #16
 8005e96:	d934      	bls.n	8005f02 <memset+0x9a>
 8005e98:	f1a4 0210 	sub.w	r2, r4, #16
 8005e9c:	f022 0c0f 	bic.w	ip, r2, #15
 8005ea0:	f103 0720 	add.w	r7, r3, #32
 8005ea4:	0916      	lsrs	r6, r2, #4
 8005ea6:	4467      	add	r7, ip
 8005ea8:	f103 0210 	add.w	r2, r3, #16
 8005eac:	e942 5504 	strd	r5, r5, [r2, #-16]
 8005eb0:	e942 5502 	strd	r5, r5, [r2, #-8]
 8005eb4:	3210      	adds	r2, #16
 8005eb6:	42ba      	cmp	r2, r7
 8005eb8:	d1f8      	bne.n	8005eac <memset+0x44>
 8005eba:	1c72      	adds	r2, r6, #1
 8005ebc:	f014 0f0c 	tst.w	r4, #12
 8005ec0:	eb03 1202 	add.w	r2, r3, r2, lsl #4
 8005ec4:	f004 060f 	and.w	r6, r4, #15
 8005ec8:	d013      	beq.n	8005ef2 <memset+0x8a>
 8005eca:	1f33      	subs	r3, r6, #4
 8005ecc:	f023 0303 	bic.w	r3, r3, #3
 8005ed0:	3304      	adds	r3, #4
 8005ed2:	4413      	add	r3, r2
 8005ed4:	f842 5b04 	str.w	r5, [r2], #4
 8005ed8:	4293      	cmp	r3, r2
 8005eda:	d1fb      	bne.n	8005ed4 <memset+0x6c>
 8005edc:	f006 0403 	and.w	r4, r6, #3
 8005ee0:	b12c      	cbz	r4, 8005eee <memset+0x86>
 8005ee2:	b2ca      	uxtb	r2, r1
 8005ee4:	441c      	add	r4, r3
 8005ee6:	f803 2b01 	strb.w	r2, [r3], #1
 8005eea:	429c      	cmp	r4, r3
 8005eec:	d1fb      	bne.n	8005ee6 <memset+0x7e>
 8005eee:	bcf0      	pop	{r4, r5, r6, r7}
 8005ef0:	4770      	bx	lr
 8005ef2:	4634      	mov	r4, r6
 8005ef4:	4613      	mov	r3, r2
 8005ef6:	2c00      	cmp	r4, #0
 8005ef8:	d1f3      	bne.n	8005ee2 <memset+0x7a>
 8005efa:	e7f8      	b.n	8005eee <memset+0x86>
 8005efc:	4614      	mov	r4, r2
 8005efe:	4603      	mov	r3, r0
 8005f00:	e7c1      	b.n	8005e86 <memset+0x1e>
 8005f02:	461a      	mov	r2, r3
 8005f04:	4626      	mov	r6, r4
 8005f06:	e7e0      	b.n	8005eca <memset+0x62>

08005f08 <strchr>:
 8005f08:	f011 01ff 	ands.w	r1, r1, #255	; 0xff
 8005f0c:	4603      	mov	r3, r0
 8005f0e:	d044      	beq.n	8005f9a <strchr+0x92>
 8005f10:	0782      	lsls	r2, r0, #30
 8005f12:	d132      	bne.n	8005f7a <strchr+0x72>
 8005f14:	b470      	push	{r4, r5, r6}
 8005f16:	6804      	ldr	r4, [r0, #0]
 8005f18:	ea41 2601 	orr.w	r6, r1, r1, lsl #8
 8005f1c:	ea46 4606 	orr.w	r6, r6, r6, lsl #16
 8005f20:	ea86 0504 	eor.w	r5, r6, r4
 8005f24:	f1a5 3301 	sub.w	r3, r5, #16843009	; 0x1010101
 8005f28:	f1a4 3201 	sub.w	r2, r4, #16843009	; 0x1010101
 8005f2c:	ea23 0305 	bic.w	r3, r3, r5
 8005f30:	ea22 0204 	bic.w	r2, r2, r4
 8005f34:	4313      	orrs	r3, r2
 8005f36:	f013 3f80 	tst.w	r3, #2155905152	; 0x80808080
 8005f3a:	d10f      	bne.n	8005f5c <strchr+0x54>
 8005f3c:	f850 4f04 	ldr.w	r4, [r0, #4]!
 8005f40:	ea84 0506 	eor.w	r5, r4, r6
 8005f44:	f1a5 3201 	sub.w	r2, r5, #16843009	; 0x1010101
 8005f48:	f1a4 3301 	sub.w	r3, r4, #16843009	; 0x1010101
 8005f4c:	ea22 0205 	bic.w	r2, r2, r5
 8005f50:	ea23 0304 	bic.w	r3, r3, r4
 8005f54:	4313      	orrs	r3, r2
 8005f56:	f013 3f80 	tst.w	r3, #2155905152	; 0x80808080
 8005f5a:	d0ef      	beq.n	8005f3c <strchr+0x34>
 8005f5c:	7803      	ldrb	r3, [r0, #0]
 8005f5e:	b923      	cbnz	r3, 8005f6a <strchr+0x62>
 8005f60:	e036      	b.n	8005fd0 <strchr+0xc8>
 8005f62:	f810 3f01 	ldrb.w	r3, [r0, #1]!
 8005f66:	2b00      	cmp	r3, #0
 8005f68:	d032      	beq.n	8005fd0 <strchr+0xc8>
 8005f6a:	4299      	cmp	r1, r3
 8005f6c:	d1f9      	bne.n	8005f62 <strchr+0x5a>
 8005f6e:	e030      	b.n	8005fd2 <strchr+0xca>
 8005f70:	428a      	cmp	r2, r1
 8005f72:	d011      	beq.n	8005f98 <strchr+0x90>
 8005f74:	079a      	lsls	r2, r3, #30
 8005f76:	4618      	mov	r0, r3
 8005f78:	d0cc      	beq.n	8005f14 <strchr+0xc>
 8005f7a:	4618      	mov	r0, r3
 8005f7c:	f813 2b01 	ldrb.w	r2, [r3], #1
 8005f80:	2a00      	cmp	r2, #0
 8005f82:	d1f5      	bne.n	8005f70 <strchr+0x68>
 8005f84:	4610      	mov	r0, r2
 8005f86:	4770      	bx	lr
 8005f88:	0799      	lsls	r1, r3, #30
 8005f8a:	4618      	mov	r0, r3
 8005f8c:	d007      	beq.n	8005f9e <strchr+0x96>
 8005f8e:	4618      	mov	r0, r3
 8005f90:	3301      	adds	r3, #1
 8005f92:	7802      	ldrb	r2, [r0, #0]
 8005f94:	2a00      	cmp	r2, #0
 8005f96:	d1f7      	bne.n	8005f88 <strchr+0x80>
 8005f98:	4770      	bx	lr
 8005f9a:	0782      	lsls	r2, r0, #30
 8005f9c:	d1f7      	bne.n	8005f8e <strchr+0x86>
 8005f9e:	6802      	ldr	r2, [r0, #0]
 8005fa0:	f1a2 3301 	sub.w	r3, r2, #16843009	; 0x1010101
 8005fa4:	ea23 0302 	bic.w	r3, r3, r2
 8005fa8:	f013 3f80 	tst.w	r3, #2155905152	; 0x80808080
 8005fac:	d108      	bne.n	8005fc0 <strchr+0xb8>
 8005fae:	f850 2f04 	ldr.w	r2, [r0, #4]!
 8005fb2:	f1a2 3301 	sub.w	r3, r2, #16843009	; 0x1010101
 8005fb6:	ea23 0302 	bic.w	r3, r3, r2
 8005fba:	f013 3f80 	tst.w	r3, #2155905152	; 0x80808080
 8005fbe:	d0f6      	beq.n	8005fae <strchr+0xa6>
 8005fc0:	7803      	ldrb	r3, [r0, #0]
 8005fc2:	2b00      	cmp	r3, #0
 8005fc4:	d0e8      	beq.n	8005f98 <strchr+0x90>
 8005fc6:	f810 3f01 	ldrb.w	r3, [r0, #1]!
 8005fca:	2b00      	cmp	r3, #0
 8005fcc:	d1fb      	bne.n	8005fc6 <strchr+0xbe>
 8005fce:	4770      	bx	lr
 8005fd0:	4618      	mov	r0, r3
 8005fd2:	bc70      	pop	{r4, r5, r6}
 8005fd4:	4770      	bx	lr
 8005fd6:	bf00      	nop

08005fd8 <strpbrk>:
 8005fd8:	b430      	push	{r4, r5}
 8005fda:	7804      	ldrb	r4, [r0, #0]
 8005fdc:	b1a4      	cbz	r4, 8006008 <strpbrk+0x30>
 8005fde:	780d      	ldrb	r5, [r1, #0]
 8005fe0:	460a      	mov	r2, r1
 8005fe2:	462b      	mov	r3, r5
 8005fe4:	b91d      	cbnz	r5, 8005fee <strpbrk+0x16>
 8005fe6:	e00a      	b.n	8005ffe <strpbrk+0x26>
 8005fe8:	f812 3f01 	ldrb.w	r3, [r2, #1]!
 8005fec:	b13b      	cbz	r3, 8005ffe <strpbrk+0x26>
 8005fee:	429c      	cmp	r4, r3
 8005ff0:	d1fa      	bne.n	8005fe8 <strpbrk+0x10>
 8005ff2:	7813      	ldrb	r3, [r2, #0]
 8005ff4:	2b00      	cmp	r3, #0
 8005ff6:	bf08      	it	eq
 8005ff8:	2000      	moveq	r0, #0
 8005ffa:	bc30      	pop	{r4, r5}
 8005ffc:	4770      	bx	lr
 8005ffe:	f810 4f01 	ldrb.w	r4, [r0, #1]!
 8006002:	2c00      	cmp	r4, #0
 8006004:	d1ec      	bne.n	8005fe0 <strpbrk+0x8>
 8006006:	e7f4      	b.n	8005ff2 <strpbrk+0x1a>
 8006008:	4620      	mov	r0, r4
 800600a:	bc30      	pop	{r4, r5}
 800600c:	4770      	bx	lr
 800600e:	bf00      	nop

08006010 <strspn>:
 8006010:	b470      	push	{r4, r5, r6}
 8006012:	7804      	ldrb	r4, [r0, #0]
 8006014:	b18c      	cbz	r4, 800603a <strspn+0x2a>
 8006016:	780e      	ldrb	r6, [r1, #0]
 8006018:	4605      	mov	r5, r0
 800601a:	b15e      	cbz	r6, 8006034 <strspn+0x24>
 800601c:	460a      	mov	r2, r1
 800601e:	4633      	mov	r3, r6
 8006020:	e002      	b.n	8006028 <strspn+0x18>
 8006022:	f812 3f01 	ldrb.w	r3, [r2, #1]!
 8006026:	b12b      	cbz	r3, 8006034 <strspn+0x24>
 8006028:	42a3      	cmp	r3, r4
 800602a:	d1fa      	bne.n	8006022 <strspn+0x12>
 800602c:	f815 4f01 	ldrb.w	r4, [r5, #1]!
 8006030:	2c00      	cmp	r4, #0
 8006032:	d1f2      	bne.n	800601a <strspn+0xa>
 8006034:	1a28      	subs	r0, r5, r0
 8006036:	bc70      	pop	{r4, r5, r6}
 8006038:	4770      	bx	lr
 800603a:	4620      	mov	r0, r4
 800603c:	e7fb      	b.n	8006036 <strspn+0x26>
 800603e:	bf00      	nop

08006040 <two_way_long_needle>:
 8006040:	e92d 4ff0 	stmdb	sp!, {r4, r5, r6, r7, r8, r9, sl, fp, lr}
 8006044:	2b01      	cmp	r3, #1
 8006046:	461d      	mov	r5, r3
 8006048:	f2ad 4d1c 	subw	sp, sp, #1052	; 0x41c
 800604c:	4681      	mov	r9, r0
 800604e:	460f      	mov	r7, r1
 8006050:	4690      	mov	r8, r2
 8006052:	f04f 0301 	mov.w	r3, #1
 8006056:	f240 8144 	bls.w	80062e2 <two_way_long_needle+0x2a2>
 800605a:	4619      	mov	r1, r3
 800605c:	469c      	mov	ip, r3
 800605e:	2400      	movs	r4, #0
 8006060:	f04f 30ff 	mov.w	r0, #4294967295	; 0xffffffff
 8006064:	e006      	b.n	8006074 <two_way_long_needle+0x34>
 8006066:	eba3 0c00 	sub.w	ip, r3, r0
 800606a:	461c      	mov	r4, r3
 800606c:	2101      	movs	r1, #1
 800606e:	1863      	adds	r3, r4, r1
 8006070:	429d      	cmp	r5, r3
 8006072:	d910      	bls.n	8006096 <two_way_long_needle+0x56>
 8006074:	eb08 0200 	add.w	r2, r8, r0
 8006078:	f818 6003 	ldrb.w	r6, [r8, r3]
 800607c:	5c52      	ldrb	r2, [r2, r1]
 800607e:	4296      	cmp	r6, r2
 8006080:	d3f1      	bcc.n	8006066 <two_way_long_needle+0x26>
 8006082:	f000 8082 	beq.w	800618a <two_way_long_needle+0x14a>
 8006086:	f04f 0c01 	mov.w	ip, #1
 800608a:	4661      	mov	r1, ip
 800608c:	4620      	mov	r0, r4
 800608e:	4464      	add	r4, ip
 8006090:	1863      	adds	r3, r4, r1
 8006092:	429d      	cmp	r5, r3
 8006094:	d8ee      	bhi.n	8006074 <two_way_long_needle+0x34>
 8006096:	f8cd c008 	str.w	ip, [sp, #8]
 800609a:	f04f 0c01 	mov.w	ip, #1
 800609e:	4661      	mov	r1, ip
 80060a0:	4663      	mov	r3, ip
 80060a2:	2400      	movs	r4, #0
 80060a4:	f04f 36ff 	mov.w	r6, #4294967295	; 0xffffffff
 80060a8:	e006      	b.n	80060b8 <two_way_long_needle+0x78>
 80060aa:	eba3 0c06 	sub.w	ip, r3, r6
 80060ae:	461c      	mov	r4, r3
 80060b0:	2101      	movs	r1, #1
 80060b2:	1863      	adds	r3, r4, r1
 80060b4:	429d      	cmp	r5, r3
 80060b6:	d90f      	bls.n	80060d8 <two_way_long_needle+0x98>
 80060b8:	eb08 0201 	add.w	r2, r8, r1
 80060bc:	f818 e003 	ldrb.w	lr, [r8, r3]
 80060c0:	5d92      	ldrb	r2, [r2, r6]
 80060c2:	4596      	cmp	lr, r2
 80060c4:	d8f1      	bhi.n	80060aa <two_way_long_needle+0x6a>
 80060c6:	d066      	beq.n	8006196 <two_way_long_needle+0x156>
 80060c8:	f04f 0c01 	mov.w	ip, #1
 80060cc:	4661      	mov	r1, ip
 80060ce:	4626      	mov	r6, r4
 80060d0:	4464      	add	r4, ip
 80060d2:	1863      	adds	r3, r4, r1
 80060d4:	429d      	cmp	r5, r3
 80060d6:	d8ef      	bhi.n	80060b8 <two_way_long_needle+0x78>
 80060d8:	3601      	adds	r6, #1
 80060da:	f100 0b01 	add.w	fp, r0, #1
 80060de:	455e      	cmp	r6, fp
 80060e0:	d302      	bcc.n	80060e8 <two_way_long_needle+0xa8>
 80060e2:	f8cd c008 	str.w	ip, [sp, #8]
 80060e6:	46b3      	mov	fp, r6
 80060e8:	ab05      	add	r3, sp, #20
 80060ea:	f20d 4214 	addw	r2, sp, #1044	; 0x414
 80060ee:	f843 5f04 	str.w	r5, [r3, #4]!
 80060f2:	4293      	cmp	r3, r2
 80060f4:	d1fb      	bne.n	80060ee <two_way_long_needle+0xae>
 80060f6:	2d00      	cmp	r5, #0
 80060f8:	f000 80f7 	beq.w	80062ea <two_way_long_needle+0x2aa>
 80060fc:	1e6c      	subs	r4, r5, #1
 80060fe:	ae06      	add	r6, sp, #24
 8006100:	eb08 0004 	add.w	r0, r8, r4
 8006104:	f108 32ff 	add.w	r2, r8, #4294967295	; 0xffffffff
 8006108:	9601      	str	r6, [sp, #4]
 800610a:	f812 1f01 	ldrb.w	r1, [r2, #1]!
 800610e:	43d3      	mvns	r3, r2
 8006110:	442b      	add	r3, r5
 8006112:	4443      	add	r3, r8
 8006114:	4290      	cmp	r0, r2
 8006116:	f846 3021 	str.w	r3, [r6, r1, lsl #2]
 800611a:	d1f6      	bne.n	800610a <two_way_long_needle+0xca>
 800611c:	9b02      	ldr	r3, [sp, #8]
 800611e:	465a      	mov	r2, fp
 8006120:	eb08 0103 	add.w	r1, r8, r3
 8006124:	4640      	mov	r0, r8
 8006126:	f000 f997 	bl	8006458 <memcmp>
 800612a:	2800      	cmp	r0, #0
 800612c:	f040 8081 	bne.w	8006232 <two_way_long_needle+0x1f2>
 8006130:	9b02      	ldr	r3, [sp, #8]
 8006132:	f10b 32ff 	add.w	r2, fp, #4294967295	; 0xffffffff
 8006136:	1aeb      	subs	r3, r5, r3
 8006138:	4682      	mov	sl, r0
 800613a:	4606      	mov	r6, r0
 800613c:	9205      	str	r2, [sp, #20]
 800613e:	9303      	str	r3, [sp, #12]
 8006140:	eb09 0e06 	add.w	lr, r9, r6
 8006144:	9a01      	ldr	r2, [sp, #4]
 8006146:	f81e 3004 	ldrb.w	r3, [lr, r4]
 800614a:	f852 3023 	ldr.w	r3, [r2, r3, lsl #2]
 800614e:	b343      	cbz	r3, 80061a2 <two_way_long_needle+0x162>
 8006150:	f1ba 0f00 	cmp.w	sl, #0
 8006154:	d004      	beq.n	8006160 <two_way_long_needle+0x120>
 8006156:	9a02      	ldr	r2, [sp, #8]
 8006158:	4293      	cmp	r3, r2
 800615a:	9a03      	ldr	r2, [sp, #12]
 800615c:	bf38      	it	cc
 800615e:	4613      	movcc	r3, r2
 8006160:	441e      	add	r6, r3
 8006162:	f04f 0a00 	mov.w	sl, #0
 8006166:	1b7b      	subs	r3, r7, r5
 8006168:	42b3      	cmp	r3, r6
 800616a:	d2e9      	bcs.n	8006140 <two_way_long_needle+0x100>
 800616c:	eb09 0007 	add.w	r0, r9, r7
 8006170:	f445 6100 	orr.w	r1, r5, #2048	; 0x800
 8006174:	f000 f9a0 	bl	80064b8 <strnlen>
 8006178:	4407      	add	r7, r0
 800617a:	1b7b      	subs	r3, r7, r5
 800617c:	42b3      	cmp	r3, r6
 800617e:	d2df      	bcs.n	8006140 <two_way_long_needle+0x100>
 8006180:	2000      	movs	r0, #0
 8006182:	f20d 4d1c 	addw	sp, sp, #1052	; 0x41c
 8006186:	e8bd 8ff0 	ldmia.w	sp!, {r4, r5, r6, r7, r8, r9, sl, fp, pc}
 800618a:	458c      	cmp	ip, r1
 800618c:	bf12      	itee	ne
 800618e:	3101      	addne	r1, #1
 8006190:	4464      	addeq	r4, ip
 8006192:	2101      	moveq	r1, #1
 8006194:	e76b      	b.n	800606e <two_way_long_needle+0x2e>
 8006196:	4561      	cmp	r1, ip
 8006198:	bf0a      	itet	eq
 800619a:	1864      	addeq	r4, r4, r1
 800619c:	3101      	addne	r1, #1
 800619e:	2101      	moveq	r1, #1
 80061a0:	e787      	b.n	80060b2 <two_way_long_needle+0x72>
 80061a2:	45d3      	cmp	fp, sl
 80061a4:	465b      	mov	r3, fp
 80061a6:	bf38      	it	cc
 80061a8:	4653      	movcc	r3, sl
 80061aa:	42a3      	cmp	r3, r4
 80061ac:	d211      	bcs.n	80061d2 <two_way_long_needle+0x192>
 80061ae:	1e59      	subs	r1, r3, #1
 80061b0:	199a      	adds	r2, r3, r6
 80061b2:	4441      	add	r1, r8
 80061b4:	444a      	add	r2, r9
 80061b6:	e002      	b.n	80061be <two_way_long_needle+0x17e>
 80061b8:	3301      	adds	r3, #1
 80061ba:	42a3      	cmp	r3, r4
 80061bc:	d209      	bcs.n	80061d2 <two_way_long_needle+0x192>
 80061be:	f812 0b01 	ldrb.w	r0, [r2], #1
 80061c2:	f811 cf01 	ldrb.w	ip, [r1, #1]!
 80061c6:	4584      	cmp	ip, r0
 80061c8:	d0f6      	beq.n	80061b8 <two_way_long_needle+0x178>
 80061ca:	f1cb 0201 	rsb	r2, fp, #1
 80061ce:	4416      	add	r6, r2
 80061d0:	e7c6      	b.n	8006160 <two_way_long_needle+0x120>
 80061d2:	45d3      	cmp	fp, sl
 80061d4:	9b05      	ldr	r3, [sp, #20]
 80061d6:	d97d      	bls.n	80062d4 <two_way_long_needle+0x294>
 80061d8:	eb0b 0206 	add.w	r2, fp, r6
 80061dc:	444a      	add	r2, r9
 80061de:	eb08 010b 	add.w	r1, r8, fp
 80061e2:	f8cd b010 	str.w	fp, [sp, #16]
 80061e6:	e002      	b.n	80061ee <two_way_long_needle+0x1ae>
 80061e8:	4553      	cmp	r3, sl
 80061ea:	d016      	beq.n	800621a <two_way_long_needle+0x1da>
 80061ec:	4603      	mov	r3, r0
 80061ee:	f812 0d01 	ldrb.w	r0, [r2, #-1]!
 80061f2:	f811 cd01 	ldrb.w	ip, [r1, #-1]!
 80061f6:	4584      	cmp	ip, r0
 80061f8:	f103 0b01 	add.w	fp, r3, #1
 80061fc:	f103 30ff 	add.w	r0, r3, #4294967295	; 0xffffffff
 8006200:	d0f2      	beq.n	80061e8 <two_way_long_needle+0x1a8>
 8006202:	465b      	mov	r3, fp
 8006204:	f8dd b010 	ldr.w	fp, [sp, #16]
 8006208:	f10a 0a01 	add.w	sl, sl, #1
 800620c:	459a      	cmp	sl, r3
 800620e:	d80b      	bhi.n	8006228 <two_way_long_needle+0x1e8>
 8006210:	9b02      	ldr	r3, [sp, #8]
 8006212:	f8dd a00c 	ldr.w	sl, [sp, #12]
 8006216:	441e      	add	r6, r3
 8006218:	e7a5      	b.n	8006166 <two_way_long_needle+0x126>
 800621a:	4653      	mov	r3, sl
 800621c:	f10a 0a01 	add.w	sl, sl, #1
 8006220:	459a      	cmp	sl, r3
 8006222:	f8dd b010 	ldr.w	fp, [sp, #16]
 8006226:	d9f3      	bls.n	8006210 <two_way_long_needle+0x1d0>
 8006228:	4670      	mov	r0, lr
 800622a:	f20d 4d1c 	addw	sp, sp, #1052	; 0x41c
 800622e:	e8bd 8ff0 	ldmia.w	sp!, {r4, r5, r6, r7, r8, r9, sl, fp, pc}
 8006232:	eba5 030b 	sub.w	r3, r5, fp
 8006236:	455b      	cmp	r3, fp
 8006238:	bf38      	it	cc
 800623a:	465b      	movcc	r3, fp
 800623c:	3301      	adds	r3, #1
 800623e:	9304      	str	r3, [sp, #16]
 8006240:	f10b 33ff 	add.w	r3, fp, #4294967295	; 0xffffffff
 8006244:	9302      	str	r3, [sp, #8]
 8006246:	f1cb 0301 	rsb	r3, fp, #1
 800624a:	2600      	movs	r6, #0
 800624c:	9303      	str	r3, [sp, #12]
 800624e:	f445 6a00 	orr.w	sl, r5, #2048	; 0x800
 8006252:	eb09 0e06 	add.w	lr, r9, r6
 8006256:	9a01      	ldr	r2, [sp, #4]
 8006258:	f81e 3004 	ldrb.w	r3, [lr, r4]
 800625c:	f852 3023 	ldr.w	r3, [r2, r3, lsl #2]
 8006260:	b16b      	cbz	r3, 800627e <two_way_long_needle+0x23e>
 8006262:	441e      	add	r6, r3
 8006264:	1b7b      	subs	r3, r7, r5
 8006266:	429e      	cmp	r6, r3
 8006268:	d9f3      	bls.n	8006252 <two_way_long_needle+0x212>
 800626a:	eb09 0007 	add.w	r0, r9, r7
 800626e:	4651      	mov	r1, sl
 8006270:	f000 f922 	bl	80064b8 <strnlen>
 8006274:	4407      	add	r7, r0
 8006276:	1b7b      	subs	r3, r7, r5
 8006278:	429e      	cmp	r6, r3
 800627a:	d9ea      	bls.n	8006252 <two_way_long_needle+0x212>
 800627c:	e780      	b.n	8006180 <two_way_long_needle+0x140>
 800627e:	45a3      	cmp	fp, r4
 8006280:	d214      	bcs.n	80062ac <two_way_long_needle+0x26c>
 8006282:	9b02      	ldr	r3, [sp, #8]
 8006284:	eb0b 0206 	add.w	r2, fp, r6
 8006288:	eb08 0103 	add.w	r1, r8, r3
 800628c:	444a      	add	r2, r9
 800628e:	465b      	mov	r3, fp
 8006290:	e002      	b.n	8006298 <two_way_long_needle+0x258>
 8006292:	3301      	adds	r3, #1
 8006294:	42a3      	cmp	r3, r4
 8006296:	d209      	bcs.n	80062ac <two_way_long_needle+0x26c>
 8006298:	f812 0b01 	ldrb.w	r0, [r2], #1
 800629c:	f811 cf01 	ldrb.w	ip, [r1, #1]!
 80062a0:	4584      	cmp	ip, r0
 80062a2:	d0f6      	beq.n	8006292 <two_way_long_needle+0x252>
 80062a4:	9a03      	ldr	r2, [sp, #12]
 80062a6:	4416      	add	r6, r2
 80062a8:	441e      	add	r6, r3
 80062aa:	e7db      	b.n	8006264 <two_way_long_needle+0x224>
 80062ac:	f1bb 0f00 	cmp.w	fp, #0
 80062b0:	d012      	beq.n	80062d8 <two_way_long_needle+0x298>
 80062b2:	eb0b 0106 	add.w	r1, fp, r6
 80062b6:	4449      	add	r1, r9
 80062b8:	eb08 020b 	add.w	r2, r8, fp
 80062bc:	e001      	b.n	80062c2 <two_way_long_needle+0x282>
 80062be:	4543      	cmp	r3, r8
 80062c0:	d00a      	beq.n	80062d8 <two_way_long_needle+0x298>
 80062c2:	f812 cd01 	ldrb.w	ip, [r2, #-1]!
 80062c6:	f811 0d01 	ldrb.w	r0, [r1, #-1]!
 80062ca:	4584      	cmp	ip, r0
 80062cc:	4613      	mov	r3, r2
 80062ce:	d0f6      	beq.n	80062be <two_way_long_needle+0x27e>
 80062d0:	9b04      	ldr	r3, [sp, #16]
 80062d2:	e7c6      	b.n	8006262 <two_way_long_needle+0x222>
 80062d4:	465b      	mov	r3, fp
 80062d6:	e797      	b.n	8006208 <two_way_long_needle+0x1c8>
 80062d8:	4670      	mov	r0, lr
 80062da:	f20d 4d1c 	addw	sp, sp, #1052	; 0x41c
 80062de:	e8bd 8ff0 	ldmia.w	sp!, {r4, r5, r6, r7, r8, r9, sl, fp, pc}
 80062e2:	9302      	str	r3, [sp, #8]
 80062e4:	f04f 0b00 	mov.w	fp, #0
 80062e8:	e6fe      	b.n	80060e8 <two_way_long_needle+0xa8>
 80062ea:	ab06      	add	r3, sp, #24
 80062ec:	f04f 34ff 	mov.w	r4, #4294967295	; 0xffffffff
 80062f0:	9301      	str	r3, [sp, #4]
 80062f2:	e713      	b.n	800611c <two_way_long_needle+0xdc>

080062f4 <strstr>:
 80062f4:	e92d 41f0 	stmdb	sp!, {r4, r5, r6, r7, r8, lr}
 80062f8:	460e      	mov	r6, r1
 80062fa:	7809      	ldrb	r1, [r1, #0]
 80062fc:	b090      	sub	sp, #64	; 0x40
 80062fe:	4604      	mov	r4, r0
 8006300:	2900      	cmp	r1, #0
 8006302:	d050      	beq.n	80063a6 <strstr+0xb2>
 8006304:	7872      	ldrb	r2, [r6, #1]
 8006306:	2a00      	cmp	r2, #0
 8006308:	f000 8082 	beq.w	8006410 <strstr+0x11c>
 800630c:	78b3      	ldrb	r3, [r6, #2]
 800630e:	2b00      	cmp	r3, #0
 8006310:	d04d      	beq.n	80063ae <strstr+0xba>
 8006312:	78f0      	ldrb	r0, [r6, #3]
 8006314:	2800      	cmp	r0, #0
 8006316:	f000 8082 	beq.w	800641e <strstr+0x12a>
 800631a:	7933      	ldrb	r3, [r6, #4]
 800631c:	2b00      	cmp	r3, #0
 800631e:	d054      	beq.n	80063ca <strstr+0xd6>
 8006320:	4630      	mov	r0, r6
 8006322:	f7fa fa0d 	bl	8000740 <strlen>
 8006326:	4607      	mov	r7, r0
 8006328:	f440 7100 	orr.w	r1, r0, #512	; 0x200
 800632c:	4620      	mov	r0, r4
 800632e:	f000 f8c3 	bl	80064b8 <strnlen>
 8006332:	4287      	cmp	r7, r0
 8006334:	d867      	bhi.n	8006406 <strstr+0x112>
 8006336:	2ffe      	cmp	r7, #254	; 0xfe
 8006338:	f200 8085 	bhi.w	8006446 <strstr+0x152>
 800633c:	eba0 0807 	sub.w	r8, r0, r7
 8006340:	2240      	movs	r2, #64	; 0x40
 8006342:	1c79      	adds	r1, r7, #1
 8006344:	4668      	mov	r0, sp
 8006346:	44a0      	add	r8, r4
 8006348:	f7ff fd8e 	bl	8005e68 <memset>
 800634c:	b177      	cbz	r7, 800636c <strstr+0x78>
 800634e:	1e72      	subs	r2, r6, #1
 8006350:	19d5      	adds	r5, r2, r7
 8006352:	b2f8      	uxtb	r0, r7
 8006354:	f812 3f01 	ldrb.w	r3, [r2, #1]!
 8006358:	a910      	add	r1, sp, #64	; 0x40
 800635a:	f003 033f 	and.w	r3, r3, #63	; 0x3f
 800635e:	440b      	add	r3, r1
 8006360:	1ab1      	subs	r1, r6, r2
 8006362:	4401      	add	r1, r0
 8006364:	42aa      	cmp	r2, r5
 8006366:	f803 1c40 	strb.w	r1, [r3, #-64]
 800636a:	d1f3      	bne.n	8006354 <strstr+0x60>
 800636c:	3c01      	subs	r4, #1
 800636e:	aa10      	add	r2, sp, #64	; 0x40
 8006370:	5de3      	ldrb	r3, [r4, r7]
 8006372:	f003 033f 	and.w	r3, r3, #63	; 0x3f
 8006376:	4413      	add	r3, r2
 8006378:	f813 0c40 	ldrb.w	r0, [r3, #-64]
 800637c:	4404      	add	r4, r0
 800637e:	45a0      	cmp	r8, r4
 8006380:	d203      	bcs.n	800638a <strstr+0x96>
 8006382:	e034      	b.n	80063ee <strstr+0xfa>
 8006384:	442c      	add	r4, r5
 8006386:	45a0      	cmp	r8, r4
 8006388:	d331      	bcc.n	80063ee <strstr+0xfa>
 800638a:	5de5      	ldrb	r5, [r4, r7]
 800638c:	ab10      	add	r3, sp, #64	; 0x40
 800638e:	f005 053f 	and.w	r5, r5, #63	; 0x3f
 8006392:	441d      	add	r5, r3
 8006394:	463a      	mov	r2, r7
 8006396:	4631      	mov	r1, r6
 8006398:	4620      	mov	r0, r4
 800639a:	f815 5c40 	ldrb.w	r5, [r5, #-64]
 800639e:	f000 f85b 	bl	8006458 <memcmp>
 80063a2:	2800      	cmp	r0, #0
 80063a4:	d1ee      	bne.n	8006384 <strstr+0x90>
 80063a6:	4620      	mov	r0, r4
 80063a8:	b010      	add	sp, #64	; 0x40
 80063aa:	e8bd 81f0 	ldmia.w	sp!, {r4, r5, r6, r7, r8, pc}
 80063ae:	ea42 4101 	orr.w	r1, r2, r1, lsl #16
 80063b2:	7802      	ldrb	r2, [r0, #0]
 80063b4:	e000      	b.n	80063b8 <strstr+0xc4>
 80063b6:	4604      	mov	r4, r0
 80063b8:	ea42 4303 	orr.w	r3, r2, r3, lsl #16
 80063bc:	1c60      	adds	r0, r4, #1
 80063be:	b312      	cbz	r2, 8006406 <strstr+0x112>
 80063c0:	4299      	cmp	r1, r3
 80063c2:	7862      	ldrb	r2, [r4, #1]
 80063c4:	d1f7      	bne.n	80063b6 <strstr+0xc2>
 80063c6:	3c01      	subs	r4, #1
 80063c8:	e7ed      	b.n	80063a6 <strstr+0xb2>
 80063ca:	7822      	ldrb	r2, [r4, #0]
 80063cc:	b1da      	cbz	r2, 8006406 <strstr+0x112>
 80063ce:	6831      	ldr	r1, [r6, #0]
 80063d0:	ba09      	rev	r1, r1
 80063d2:	e001      	b.n	80063d8 <strstr+0xe4>
 80063d4:	4299      	cmp	r1, r3
 80063d6:	d008      	beq.n	80063ea <strstr+0xf6>
 80063d8:	ea42 2303 	orr.w	r3, r2, r3, lsl #8
 80063dc:	4620      	mov	r0, r4
 80063de:	f814 2f01 	ldrb.w	r2, [r4, #1]!
 80063e2:	2a00      	cmp	r2, #0
 80063e4:	d1f6      	bne.n	80063d4 <strstr+0xe0>
 80063e6:	4299      	cmp	r1, r3
 80063e8:	d10d      	bne.n	8006406 <strstr+0x112>
 80063ea:	1ec4      	subs	r4, r0, #3
 80063ec:	e7db      	b.n	80063a6 <strstr+0xb2>
 80063ee:	f818 3007 	ldrb.w	r3, [r8, r7]
 80063f2:	eb08 0007 	add.w	r0, r8, r7
 80063f6:	b133      	cbz	r3, 8006406 <strstr+0x112>
 80063f8:	f44f 6100 	mov.w	r1, #2048	; 0x800
 80063fc:	f000 f85c 	bl	80064b8 <strnlen>
 8006400:	4480      	add	r8, r0
 8006402:	4544      	cmp	r4, r8
 8006404:	d9b2      	bls.n	800636c <strstr+0x78>
 8006406:	2400      	movs	r4, #0
 8006408:	4620      	mov	r0, r4
 800640a:	b010      	add	sp, #64	; 0x40
 800640c:	e8bd 81f0 	ldmia.w	sp!, {r4, r5, r6, r7, r8, pc}
 8006410:	f7ff fd7a 	bl	8005f08 <strchr>
 8006414:	4604      	mov	r4, r0
 8006416:	4620      	mov	r0, r4
 8006418:	b010      	add	sp, #64	; 0x40
 800641a:	e8bd 81f0 	ldmia.w	sp!, {r4, r5, r6, r7, r8, pc}
 800641e:	0412      	lsls	r2, r2, #16
 8006420:	ea42 6201 	orr.w	r2, r2, r1, lsl #24
 8006424:	ea42 2303 	orr.w	r3, r2, r3, lsl #8
 8006428:	7822      	ldrb	r2, [r4, #0]
 800642a:	e000      	b.n	800642e <strstr+0x13a>
 800642c:	462c      	mov	r4, r5
 800642e:	ea42 0100 	orr.w	r1, r2, r0
 8006432:	1c65      	adds	r5, r4, #1
 8006434:	0208      	lsls	r0, r1, #8
 8006436:	2a00      	cmp	r2, #0
 8006438:	d0e5      	beq.n	8006406 <strstr+0x112>
 800643a:	ebb3 2f01 	cmp.w	r3, r1, lsl #8
 800643e:	7862      	ldrb	r2, [r4, #1]
 8006440:	d1f4      	bne.n	800642c <strstr+0x138>
 8006442:	3c02      	subs	r4, #2
 8006444:	e7af      	b.n	80063a6 <strstr+0xb2>
 8006446:	4601      	mov	r1, r0
 8006448:	463b      	mov	r3, r7
 800644a:	4620      	mov	r0, r4
 800644c:	4632      	mov	r2, r6
 800644e:	f7ff fdf7 	bl	8006040 <two_way_long_needle>
 8006452:	4604      	mov	r4, r0
 8006454:	e7a7      	b.n	80063a6 <strstr+0xb2>
 8006456:	bf00      	nop

08006458 <memcmp>:
 8006458:	2a03      	cmp	r2, #3
 800645a:	b470      	push	{r4, r5, r6}
 800645c:	d912      	bls.n	8006484 <memcmp+0x2c>
 800645e:	ea40 0501 	orr.w	r5, r0, r1
 8006462:	07ad      	lsls	r5, r5, #30
 8006464:	4604      	mov	r4, r0
 8006466:	460b      	mov	r3, r1
 8006468:	d11e      	bne.n	80064a8 <memcmp+0x50>
 800646a:	4619      	mov	r1, r3
 800646c:	4620      	mov	r0, r4
 800646e:	f853 5b04 	ldr.w	r5, [r3], #4
 8006472:	f854 6b04 	ldr.w	r6, [r4], #4
 8006476:	42ae      	cmp	r6, r5
 8006478:	d116      	bne.n	80064a8 <memcmp+0x50>
 800647a:	3a04      	subs	r2, #4
 800647c:	2a03      	cmp	r2, #3
 800647e:	4620      	mov	r0, r4
 8006480:	4619      	mov	r1, r3
 8006482:	d8f2      	bhi.n	800646a <memcmp+0x12>
 8006484:	1e56      	subs	r6, r2, #1
 8006486:	b1a2      	cbz	r2, 80064b2 <memcmp+0x5a>
 8006488:	3901      	subs	r1, #1
 800648a:	1e44      	subs	r4, r0, #1
 800648c:	e001      	b.n	8006492 <memcmp+0x3a>
 800648e:	18c3      	adds	r3, r0, r3
 8006490:	d00c      	beq.n	80064ac <memcmp+0x54>
 8006492:	f814 5f01 	ldrb.w	r5, [r4, #1]!
 8006496:	f811 2f01 	ldrb.w	r2, [r1, #1]!
 800649a:	4295      	cmp	r5, r2
 800649c:	eba6 0304 	sub.w	r3, r6, r4
 80064a0:	d0f5      	beq.n	800648e <memcmp+0x36>
 80064a2:	1aa8      	subs	r0, r5, r2
 80064a4:	bc70      	pop	{r4, r5, r6}
 80064a6:	4770      	bx	lr
 80064a8:	1e56      	subs	r6, r2, #1
 80064aa:	e7ed      	b.n	8006488 <memcmp+0x30>
 80064ac:	4618      	mov	r0, r3
 80064ae:	bc70      	pop	{r4, r5, r6}
 80064b0:	4770      	bx	lr
 80064b2:	4610      	mov	r0, r2
 80064b4:	e7f6      	b.n	80064a4 <memcmp+0x4c>
 80064b6:	bf00      	nop

080064b8 <strnlen>:
 80064b8:	b181      	cbz	r1, 80064dc <strnlen+0x24>
 80064ba:	b410      	push	{r4}
 80064bc:	4603      	mov	r3, r0
 80064be:	1844      	adds	r4, r0, r1
 80064c0:	e001      	b.n	80064c6 <strnlen+0xe>
 80064c2:	42a3      	cmp	r3, r4
 80064c4:	d007      	beq.n	80064d6 <strnlen+0x1e>
 80064c6:	461a      	mov	r2, r3
 80064c8:	3301      	adds	r3, #1
 80064ca:	7811      	ldrb	r1, [r2, #0]
 80064cc:	2900      	cmp	r1, #0
 80064ce:	d1f8      	bne.n	80064c2 <strnlen+0xa>
 80064d0:	1a10      	subs	r0, r2, r0
 80064d2:	bc10      	pop	{r4}
 80064d4:	4770      	bx	lr
 80064d6:	1a18      	subs	r0, r3, r0
 80064d8:	bc10      	pop	{r4}
 80064da:	4770      	bx	lr
 80064dc:	4608      	mov	r0, r1
 80064de:	4770      	bx	lr
